
========================================================================

** ELF Header Information

    File Name: .\obj\Oscar-Numaker.axf

    Machine class: ELFCLASS32 (32-bit)
    Data encoding: ELFDATA2LSB (Little endian)
    Header version: EV_CURRENT (Current version)
    Operating System ABI: none
    ABI Version: 0
    File Type: ET_EXEC (Executable) (2)
    Machine: EM_ARM (ARM)

    Image Entry point: 0x00000181
    Flags: EF_ARM_HASENTRY (0x05000002)

    ARM ELF revision: 5 (ABI version 2)

    Built with
    Component: ARM Compiler 5.05 (build 41) Tool: armasm [4d0eb9]
    Component: ARM Compiler 5.04 update 1 (build 49) Tool: armasm [5040049]
    Component: ARM Compiler 5.05 (build 41) Tool: armlink [4d0eb9]
    Component: ARM Compiler 5.04 update 1 (build 49) Tool: armlink [5040049]

    Header size: 52 bytes (0x34)
    Program header entry size: 32 bytes (0x20)
    Section header entry size: 40 bytes (0x28)

    Program header entries: 1
    Section header entries: 16

    Program header offset: 661224 (0x000a16e8)
    Section header offset: 661256 (0x000a1708)

    Section header string table index: 15

========================================================================

** Program header #0 (PT_LOAD) [PF_X + PF_W + PF_R + PF_ARM_ENTRY]
    Size : 37304 bytes (30876 bytes in file)
    Virtual address: 0x00000000 (Alignment 8)


========================================================================

** Section #1 'ER_RO' (SHT_PROGBITS) [SHF_ALLOC + SHF_EXECINSTR]
    Size   : 28952 bytes (alignment 8)
    Address: 0x00000000

    $d.realdata
    RESET
    __Vectors
        0x00000000:    200020a0    . .     DCD    536879264
        0x00000004:    00000181    ....    DCD    385
        0x00000008:    0000019d    ....    DCD    413
        0x0000000c:    0000019f    ....    DCD    415
        0x00000010:    00000000    ....    DCD    0
        0x00000014:    00000000    ....    DCD    0
        0x00000018:    00000000    ....    DCD    0
        0x0000001c:    00000000    ....    DCD    0
        0x00000020:    00000000    ....    DCD    0
        0x00000024:    00000000    ....    DCD    0
        0x00000028:    00000000    ....    DCD    0
        0x0000002c:    000001a1    ....    DCD    417
        0x00000030:    00000000    ....    DCD    0
        0x00000034:    00000000    ....    DCD    0
        0x00000038:    000001a3    ....    DCD    419
        0x0000003c:    00003fd9    .?..    DCD    16345
        0x00000040:    000001a7    ....    DCD    423
        0x00000044:    000001a7    ....    DCD    423
        0x00000048:    00002859    Y(..    DCD    10329
        0x0000004c:    0000286d    m(..    DCD    10349
        0x00000050:    00002971    q)..    DCD    10609
        0x00000054:    000001a7    ....    DCD    423
        0x00000058:    000001a7    ....    DCD    423
        0x0000005c:    000001a7    ....    DCD    423
        0x00000060:    000040d1    .@..    DCD    16593
        0x00000064:    000001a7    ....    DCD    423
        0x00000068:    000001a7    ....    DCD    423
        0x0000006c:    000001a7    ....    DCD    423
        0x00000070:    00004159    YA..    DCD    16729
        0x00000074:    000001a7    ....    DCD    423
        0x00000078:    000001a7    ....    DCD    423
        0x0000007c:    000001a7    ....    DCD    423
        0x00000080:    000001a7    ....    DCD    423
        0x00000084:    000001a7    ....    DCD    423
        0x00000088:    00002c9d    .,..    DCD    11421
        0x0000008c:    000001a7    ....    DCD    423
        0x00000090:    000001a7    ....    DCD    423
        0x00000094:    000001a7    ....    DCD    423
        0x00000098:    000001a7    ....    DCD    423
        0x0000009c:    000001a7    ....    DCD    423
        0x000000a0:    000001a7    ....    DCD    423
        0x000000a4:    000001a7    ....    DCD    423
        0x000000a8:    000001a7    ....    DCD    423
        0x000000ac:    000001a7    ....    DCD    423
        0x000000b0:    000001a7    ....    DCD    423
        0x000000b4:    000001a7    ....    DCD    423
        0x000000b8:    000001a7    ....    DCD    423
        0x000000bc:    000001a7    ....    DCD    423
    $t
    !!!main
    __main
        0x000000c0:    f000f802    ....    BL       __scatterload ; 0xc8
        0x000000c4:    f000f84d    ..M.    BL       __rt_entry ; 0x162
    !!!scatter
    __scatterload
    __scatterload_rt2
    __scatterload_rt2_thumb_only
        0x000000c8:    a00c        ..      ADR      r0,{pc}+0x34 ; 0xfc
        0x000000ca:    c830        0.      LDM      r0!,{r4,r5}
        0x000000cc:    3808        .8      SUBS     r0,r0,#8
        0x000000ce:    1824        $.      ADDS     r4,r4,r0
        0x000000d0:    182d        -.      ADDS     r5,r5,r0
        0x000000d2:    46a2        .F      MOV      r10,r4
        0x000000d4:    1e67        g.      SUBS     r7,r4,#1
        0x000000d6:    46ab        .F      MOV      r11,r5
    __scatterload_null
        0x000000d8:    4654        TF      MOV      r4,r10
        0x000000da:    465d        ]F      MOV      r5,r11
        0x000000dc:    42ac        .B      CMP      r4,r5
        0x000000de:    d101        ..      BNE      0xe4 ; __scatterload_null + 12
        0x000000e0:    f000f83f    ..?.    BL       __rt_entry ; 0x162
        0x000000e4:    467e        ~F      MOV      r6,pc
        0x000000e6:    3e0f        .>      SUBS     r6,r6,#0xf
        0x000000e8:    cc0f        ..      LDM      r4!,{r0-r3}
        0x000000ea:    46b6        .F      MOV      lr,r6
        0x000000ec:    2601        .&      MOVS     r6,#1
        0x000000ee:    4233        3B      TST      r3,r6
        0x000000f0:    d000        ..      BEQ      0xf4 ; __scatterload_null + 28
        0x000000f2:    1afb        ..      SUBS     r3,r7,r3
        0x000000f4:    46a2        .F      MOV      r10,r4
        0x000000f6:    46ab        .F      MOV      r11,r5
        0x000000f8:    4333        3C      ORRS     r3,r3,r6
        0x000000fa:    4718        .G      BX       r3
    $d
        0x000000fc:    00006ffc    .o..    DCD    28668
        0x00000100:    0000701c    .p..    DCD    28700
    $t
    !!handler_copy
    __scatterload_copy
        0x00000104:    3a10        .:      SUBS     r2,r2,#0x10
        0x00000106:    d302        ..      BCC      0x10e ; __scatterload_copy + 10
        0x00000108:    c878        x.      LDM      r0!,{r3-r6}
        0x0000010a:    c178        x.      STM      r1!,{r3-r6}
        0x0000010c:    d8fa        ..      BHI      __scatterload_copy ; 0x104
        0x0000010e:    0752        R.      LSLS     r2,r2,#29
        0x00000110:    d301        ..      BCC      0x116 ; __scatterload_copy + 18
        0x00000112:    c830        0.      LDM      r0!,{r4,r5}
        0x00000114:    c130        0.      STM      r1!,{r4,r5}
        0x00000116:    d501        ..      BPL      0x11c ; __scatterload_copy + 24
        0x00000118:    6804        .h      LDR      r4,[r0,#0]
        0x0000011a:    600c        .`      STR      r4,[r1,#0]
        0x0000011c:    4770        pG      BX       lr
        0x0000011e:    0000        ..      MOVS     r0,r0
    !!handler_zi
    __scatterload_zeroinit
        0x00000120:    2300        .#      MOVS     r3,#0
        0x00000122:    2400        .$      MOVS     r4,#0
        0x00000124:    2500        .%      MOVS     r5,#0
        0x00000126:    2600        .&      MOVS     r6,#0
        0x00000128:    3a10        .:      SUBS     r2,r2,#0x10
        0x0000012a:    d301        ..      BCC      0x130 ; __scatterload_zeroinit + 16
        0x0000012c:    c178        x.      STM      r1!,{r3-r6}
        0x0000012e:    d8fb        ..      BHI      0x128 ; __scatterload_zeroinit + 8
        0x00000130:    0752        R.      LSLS     r2,r2,#29
        0x00000132:    d300        ..      BCC      0x136 ; __scatterload_zeroinit + 22
        0x00000134:    c130        0.      STM      r1!,{r4,r5}
        0x00000136:    d500        ..      BPL      0x13a ; __scatterload_zeroinit + 26
        0x00000138:    600b        .`      STR      r3,[r1,#0]
        0x0000013a:    4770        pG      BX       lr
    .ARM.Collect$$_printf_percent$$00000000
    _printf_percent
        0x0000013c:    b510        ..      PUSH     {r4,lr}
    .ARM.Collect$$_printf_percent$$00000009
    _printf_d
        0x0000013e:    2964        d)      CMP      r1,#0x64
        0x00000140:    d102        ..      BNE      _printf_x ; 0x148
        0x00000142:    f000f86f    ..o.    BL       _printf_int_dec ; 0x224
        0x00000146:    bd10        ..      POP      {r4,pc}
    .ARM.Collect$$_printf_percent$$0000000C
    _printf_x
        0x00000148:    2978        x)      CMP      r1,#0x78
        0x0000014a:    d102        ..      BNE      _printf_percent_end ; 0x152
        0x0000014c:    f000f8a0    ....    BL       _printf_int_hex ; 0x290
        0x00000150:    bd10        ..      POP      {r4,pc}
    .ARM.Collect$$_printf_percent$$00000017
    _printf_percent_end
        0x00000152:    2000        .       MOVS     r0,#0
        0x00000154:    bd10        ..      POP      {r4,pc}
    .ARM.Collect$$libinit$$00000000
    __rt_lib_init
        0x00000156:    b51f        ..      PUSH     {r0-r4,lr}
    .ARM.Collect$$libinit$$00000001
    __rt_lib_init_fp_1
        0x00000158:    46c0        .F      MOV      r8,r8
        0x0000015a:    46c0        .F      MOV      r8,r8
    .ARM.Collect$$libinit$$00000008
    .ARM.Collect$$libinit$$0000000A
    .ARM.Collect$$libinit$$0000000C
    .ARM.Collect$$libinit$$0000000F
    .ARM.Collect$$libinit$$00000011
    .ARM.Collect$$libinit$$00000013
    .ARM.Collect$$libinit$$00000015
    .ARM.Collect$$libinit$$00000017
    .ARM.Collect$$libinit$$00000019
    .ARM.Collect$$libinit$$0000001B
    .ARM.Collect$$libinit$$0000001D
    .ARM.Collect$$libinit$$0000001F
    .ARM.Collect$$libinit$$00000021
    .ARM.Collect$$libinit$$00000023
    .ARM.Collect$$libinit$$0000002A
    .ARM.Collect$$libinit$$0000002C
    .ARM.Collect$$libinit$$0000002E
    .ARM.Collect$$libinit$$00000030
    .ARM.Collect$$libinit$$00000031
    __rt_lib_init_alloca_1
    __rt_lib_init_argv_1
    __rt_lib_init_atexit_1
    __rt_lib_init_clock_1
    __rt_lib_init_cpp_1
    __rt_lib_init_exceptions_1
    __rt_lib_init_fp_trap_1
    __rt_lib_init_getenv_1
    __rt_lib_init_heap_1
    __rt_lib_init_lc_collate_1
    __rt_lib_init_lc_ctype_1
    __rt_lib_init_lc_monetary_1
    __rt_lib_init_lc_numeric_1
    __rt_lib_init_lc_time_1
    __rt_lib_init_rand_1
    __rt_lib_init_return
    __rt_lib_init_signal_1
    __rt_lib_init_stdio_1
    __rt_lib_init_user_alloc_1
        0x0000015c:    bd1f        ..      POP      {r0-r4,pc}
    .ARM.Collect$$libshutdown$$00000000
    __rt_lib_shutdown
        0x0000015e:    b510        ..      PUSH     {r4,lr}
    .ARM.Collect$$libshutdown$$00000003
    .ARM.Collect$$libshutdown$$00000006
    .ARM.Collect$$libshutdown$$00000009
    .ARM.Collect$$libshutdown$$0000000B
    .ARM.Collect$$libshutdown$$0000000E
    .ARM.Collect$$libshutdown$$0000000F
    __rt_lib_shutdown_fp_trap_1
    __rt_lib_shutdown_heap_1
    __rt_lib_shutdown_return
    __rt_lib_shutdown_signal_1
    __rt_lib_shutdown_stdio_1
    __rt_lib_shutdown_user_alloc_1
        0x00000160:    bd10        ..      POP      {r4,pc}
    .ARM.Collect$$rtentry$$00000000
    .ARM.Collect$$rtentry$$00000002
    .ARM.Collect$$rtentry$$00000004
    __rt_entry
    __rt_entry_presh_1
    __rt_entry_sh
        0x00000162:    f001fbc3    ....    BL       __user_setup_stackheap ; 0x18ec
        0x00000166:    4611        .F      MOV      r1,r2
    .ARM.Collect$$rtentry$$00000009
    .ARM.Collect$$rtentry$$0000000A
    __rt_entry_li
    __rt_entry_postsh_1
        0x00000168:    f7fffff5    ....    BL       __rt_lib_init ; 0x156
    .ARM.Collect$$rtentry$$0000000C
    .ARM.Collect$$rtentry$$0000000D
    __rt_entry_main
    __rt_entry_postli_1
        0x0000016c:    f005f816    ....    BL       main ; 0x519c
        0x00000170:    f001fbdb    ....    BL       exit ; 0x192a
    .ARM.Collect$$rtexit$$00000000
    __rt_exit
        0x00000174:    b403        ..      PUSH     {r0,r1}
    .ARM.Collect$$rtexit$$00000002
    .ARM.Collect$$rtexit$$00000003
    __rt_exit_ls
    __rt_exit_prels_1
        0x00000176:    f7fffff2    ....    BL       __rt_lib_shutdown ; 0x15e
    .ARM.Collect$$rtexit$$00000004
    __rt_exit_exit
        0x0000017a:    bc03        ..      POP      {r0,r1}
        0x0000017c:    f001fc0a    ....    BL       _sys_exit ; 0x1994
    .text
    Reset_Handler
        0x00000180:    480c        .H      LDR      r0,[pc,#48] ; [0x1b4] = 0x50000100
        0x00000182:    490d        .I      LDR      r1,[pc,#52] ; [0x1b8] = 0x59
        0x00000184:    6001        .`      STR      r1,[r0,#0]
        0x00000186:    490d        .I      LDR      r1,[pc,#52] ; [0x1bc] = 0x16
        0x00000188:    6001        .`      STR      r1,[r0,#0]
        0x0000018a:    490d        .I      LDR      r1,[pc,#52] ; [0x1c0] = 0x88
        0x0000018c:    6001        .`      STR      r1,[r0,#0]
        0x0000018e:    4a0d        .J      LDR      r2,[pc,#52] ; [0x1c4] = 0x50000024
        0x00000190:    490d        .I      LDR      r1,[pc,#52] ; [0x1c8] = 0x5aa5
        0x00000192:    6011        .`      STR      r1,[r2,#0]
        0x00000194:    2100        .!      MOVS     r1,#0
        0x00000196:    6001        .`      STR      r1,[r0,#0]
        0x00000198:    480c        .H      LDR      r0,[pc,#48] ; [0x1cc] = 0xc1
        0x0000019a:    4700        .G      BX       r0
    NMI_Handler
        0x0000019c:    e7fe        ..      B        NMI_Handler ; 0x19c
    HardFault_Handler
        0x0000019e:    e7fe        ..      B        HardFault_Handler ; 0x19e
    SVC_Handler
        0x000001a0:    e7fe        ..      B        SVC_Handler ; 0x1a0
    PendSV_Handler
        0x000001a2:    e7fe        ..      B        PendSV_Handler ; 0x1a2
        0x000001a4:    e7fe        ..      B        0x1a4 ; PendSV_Handler + 2
    Default_Handler
    ACMP_IRQHandler
    ADC_IRQHandler
    ALC_IRQHandler
    BOD_IRQHandler
    CAPS_IRQHandler
    I2S_IRQHandler
    PDMA_IRQHandler
    PWM0_IRQHandler
    RTC_IRQHandler
    SPI0_IRQHandler
    TALARM_IRQHandler
    TMR1_IRQHandler
    WDT_IRQHandler
        0x000001a6:    e7fe        ..      B        Default_Handler ; 0x1a6
    __user_initial_stackheap
        0x000001a8:    4809        .H      LDR      r0,[pc,#36] ; [0x1d0] = 0x20001aa0
        0x000001aa:    490a        .I      LDR      r1,[pc,#40] ; [0x1d4] = 0x200020a0
        0x000001ac:    4a0a        .J      LDR      r2,[pc,#40] ; [0x1d8] = 0x20001ca0
        0x000001ae:    4b0b        .K      LDR      r3,[pc,#44] ; [0x1dc] = 0x20001ca0
        0x000001b0:    4770        pG      BX       lr
    $d
        0x000001b2:    0000        ..      DCW    0
        0x000001b4:    50000100    ...P    DCD    1342177536
        0x000001b8:    00000059    Y...    DCD    89
        0x000001bc:    00000016    ....    DCD    22
        0x000001c0:    00000088    ....    DCD    136
        0x000001c4:    50000024    $..P    DCD    1342177316
        0x000001c8:    00005aa5    .Z..    DCD    23205
        0x000001cc:    000000c1    ....    DCD    193
        0x000001d0:    20001aa0    ...     DCD    536877728
        0x000001d4:    200020a0    . .     DCD    536879264
        0x000001d8:    20001ca0    ...     DCD    536878240
        0x000001dc:    20001ca0    ...     DCD    536878240
    $t
    .text
    __2printf
        0x000001e0:    b40f        ..      PUSH     {r0-r3}
        0x000001e2:    4905        .I      LDR      r1,[pc,#20] ; [0x1f8] = 0x20000084
        0x000001e4:    b510        ..      PUSH     {r4,lr}
        0x000001e6:    aa03        ..      ADD      r2,sp,#0xc
        0x000001e8:    9802        ..      LDR      r0,[sp,#8]
        0x000001ea:    f001f9fb    ....    BL       _printf_char_file ; 0x15e4
        0x000001ee:    bc10        ..      POP      {r4}
        0x000001f0:    bc08        ..      POP      {r3}
        0x000001f2:    b004        ..      ADD      sp,sp,#0x10
        0x000001f4:    4718        .G      BX       r3
    $d
        0x000001f6:    0000        ..      DCW    0
        0x000001f8:    20000084    ...     DCD    536871044
    $t
    .text
    __2sprintf
        0x000001fc:    b40f        ..      PUSH     {r0-r3}
        0x000001fe:    b51c        ..      PUSH     {r2-r4,lr}
        0x00000200:    4b07        .K      LDR      r3,[pc,#28] ; [0x220] = 0x13d1
        0x00000202:    aa06        ..      ADD      r2,sp,#0x18
        0x00000204:    447b        {D      ADD      r3,r3,pc
        0x00000206:    4669        iF      MOV      r1,sp
        0x00000208:    9000        ..      STR      r0,[sp,#0]
        0x0000020a:    9805        ..      LDR      r0,[sp,#0x14]
        0x0000020c:    f001f9d1    ....    BL       _printf_char_common ; 0x15b2
        0x00000210:    2000        .       MOVS     r0,#0
        0x00000212:    4669        iF      MOV      r1,sp
        0x00000214:    f001f9e0    ....    BL       _sputc ; 0x15d8
        0x00000218:    bc1c        ..      POP      {r2-r4}
        0x0000021a:    bc08        ..      POP      {r3}
        0x0000021c:    b004        ..      ADD      sp,sp,#0x10
        0x0000021e:    4718        .G      BX       r3
    $d
        0x00000220:    000013d1    ....    DCD    5073
    $t
    .text
    _printf_int_dec
        0x00000224:    b5f7        ..      PUSH     {r0-r2,r4-r7,lr}
        0x00000226:    2500        .%      MOVS     r5,#0
        0x00000228:    2975        u)      CMP      r1,#0x75
        0x0000022a:    6810        .h      LDR      r0,[r2,#0]
        0x0000022c:    9900        ..      LDR      r1,[sp,#0]
        0x0000022e:    a614        ..      ADR      r6,{pc}+0x52 ; 0x280
        0x00000230:    d011        ..      BEQ      0x256 ; _printf_int_dec + 50
        0x00000232:    46c0        .F      MOV      r8,r8
        0x00000234:    46c0        .F      MOV      r8,r8
        0x00000236:    2800        .(      CMP      r0,#0
        0x00000238:    da02        ..      BGE      0x240 ; _printf_int_dec + 28
        0x0000023a:    4240        @B      RSBS     r0,r0,#0
        0x0000023c:    a611        ..      ADR      r6,{pc}+0x48 ; 0x284
        0x0000023e:    e008        ..      B        0x252 ; _printf_int_dec + 46
        0x00000240:    9900        ..      LDR      r1,[sp,#0]
        0x00000242:    6809        .h      LDR      r1,[r1,#0]
        0x00000244:    078a        ..      LSLS     r2,r1,#30
        0x00000246:    d501        ..      BPL      0x24c ; _printf_int_dec + 40
        0x00000248:    a60f        ..      ADR      r6,{pc}+0x40 ; 0x288
        0x0000024a:    e002        ..      B        0x252 ; _printf_int_dec + 46
        0x0000024c:    0749        I.      LSLS     r1,r1,#29
        0x0000024e:    d504        ..      BPL      0x25a ; _printf_int_dec + 54
        0x00000250:    a60e        ..      ADR      r6,{pc}+0x3c ; 0x28c
        0x00000252:    2501        .%      MOVS     r5,#1
        0x00000254:    e001        ..      B        0x25a ; _printf_int_dec + 54
        0x00000256:    46c0        .F      MOV      r8,r8
        0x00000258:    46c0        .F      MOV      r8,r8
        0x0000025a:    9f00        ..      LDR      r7,[sp,#0]
        0x0000025c:    2400        .$      MOVS     r4,#0
        0x0000025e:    3724        $7      ADDS     r7,r7,#0x24
        0x00000260:    e004        ..      B        0x26c ; _printf_int_dec + 72
        0x00000262:    f001f9d3    ....    BL       __rt_udiv10 ; 0x160c
        0x00000266:    3130        01      ADDS     r1,r1,#0x30
        0x00000268:    5539        9U      STRB     r1,[r7,r4]
        0x0000026a:    1c64        d.      ADDS     r4,r4,#1
        0x0000026c:    2800        .(      CMP      r0,#0
        0x0000026e:    d1f8        ..      BNE      0x262 ; _printf_int_dec + 62
        0x00000270:    462b        +F      MOV      r3,r5
        0x00000272:    4632        2F      MOV      r2,r6
        0x00000274:    4621        !F      MOV      r1,r4
        0x00000276:    9800        ..      LDR      r0,[sp,#0]
        0x00000278:    f001f93d    ..=.    BL       _printf_int_common ; 0x14f6
        0x0000027c:    bdfe        ..      POP      {r1-r7,pc}
    $d
        0x0000027e:    0000        ..      DCW    0
        0x00000280:    00000000    ....    DCD    0
        0x00000284:    0000002d    -...    DCD    45
        0x00000288:    0000002b    +...    DCD    43
        0x0000028c:    00000020     ...    DCD    32
    $t
    .text
    _printf_int_hex
    _printf_longlong_hex
        0x00000290:    b570        p.      PUSH     {r4-r6,lr}
        0x00000292:    4604        .F      MOV      r4,r0
        0x00000294:    460d        .F      MOV      r5,r1
        0x00000296:    4621        !F      MOV      r1,r4
        0x00000298:    6810        .h      LDR      r0,[r2,#0]
        0x0000029a:    46c0        .F      MOV      r8,r8
        0x0000029c:    46c0        .F      MOV      r8,r8
        0x0000029e:    8821        !.      LDRH     r1,[r4,#0]
        0x000002a0:    0509        ..      LSLS     r1,r1,#20
        0x000002a2:    d502        ..      BPL      0x2aa ; _printf_int_hex + 26
        0x000002a4:    4a0f        .J      LDR      r2,[pc,#60] ; [0x2e4] = 0x6ba6
        0x000002a6:    447a        zD      ADD      r2,r2,pc
        0x000002a8:    e002        ..      B        0x2b0 ; _printf_int_hex + 32
        0x000002aa:    4a0e        .J      LDR      r2,[pc,#56] ; [0x2e4] = 0x6ba6
        0x000002ac:    447a        zD      ADD      r2,r2,pc
        0x000002ae:    320e        .2      ADDS     r2,r2,#0xe
        0x000002b0:    4623        #F      MOV      r3,r4
        0x000002b2:    2100        .!      MOVS     r1,#0
        0x000002b4:    3324        $3      ADDS     r3,r3,#0x24
        0x000002b6:    e005        ..      B        0x2c4 ; _printf_int_hex + 52
        0x000002b8:    0706        ..      LSLS     r6,r0,#28
        0x000002ba:    0900        ..      LSRS     r0,r0,#4
        0x000002bc:    0f36        6.      LSRS     r6,r6,#28
        0x000002be:    5d96        .]      LDRB     r6,[r2,r6]
        0x000002c0:    545e        ^T      STRB     r6,[r3,r1]
        0x000002c2:    1c49        I.      ADDS     r1,r1,#1
        0x000002c4:    2800        .(      CMP      r0,#0
        0x000002c6:    d1f7        ..      BNE      0x2b8 ; _printf_int_hex + 40
        0x000002c8:    7820         x      LDRB     r0,[r4,#0]
        0x000002ca:    2300        .#      MOVS     r3,#0
        0x000002cc:    0700        ..      LSLS     r0,r0,#28
        0x000002ce:    d505        ..      BPL      0x2dc ; _printf_int_hex + 76
        0x000002d0:    2d70        p-      CMP      r5,#0x70
        0x000002d2:    d003        ..      BEQ      0x2dc ; _printf_int_hex + 76
        0x000002d4:    2900        .)      CMP      r1,#0
        0x000002d6:    d001        ..      BEQ      0x2dc ; _printf_int_hex + 76
        0x000002d8:    2302        .#      MOVS     r3,#2
        0x000002da:    3211        .2      ADDS     r2,r2,#0x11
        0x000002dc:    4620         F      MOV      r0,r4
        0x000002de:    f001f90a    ....    BL       _printf_int_common ; 0x14f6
        0x000002e2:    bd70        p.      POP      {r4-r6,pc}
    $d
        0x000002e4:    00006ba6    .k..    DCD    27558
    $t
    .text
    __printf
        0x000002e8:    b5f3        ..      PUSH     {r0,r1,r4-r7,lr}
        0x000002ea:    4604        .F      MOV      r4,r0
        0x000002ec:    2000        .       MOVS     r0,#0
        0x000002ee:    b081        ..      SUB      sp,sp,#4
        0x000002f0:    6220         b      STR      r0,[r4,#0x20]
        0x000002f2:    4620         F      MOV      r0,r4
        0x000002f4:    68e1        .h      LDR      r1,[r4,#0xc]
        0x000002f6:    4788        .G      BLX      r1
        0x000002f8:    2800        .(      CMP      r0,#0
        0x000002fa:    d07a        z.      BEQ      0x3f2 ; __printf + 266
        0x000002fc:    2825        %(      CMP      r0,#0x25
        0x000002fe:    d002        ..      BEQ      0x306 ; __printf + 30
        0x00000300:    6862        bh      LDR      r2,[r4,#4]
        0x00000302:    68a1        .h      LDR      r1,[r4,#8]
        0x00000304:    e071        q.      B        0x3ea ; __printf + 258
        0x00000306:    68e1        .h      LDR      r1,[r4,#0xc]
        0x00000308:    4620         F      MOV      r0,r4
        0x0000030a:    2500        .%      MOVS     r5,#0
        0x0000030c:    4788        .G      BLX      r1
        0x0000030e:    4606        .F      MOV      r6,r0
        0x00000310:    2000        .       MOVS     r0,#0
        0x00000312:    61e0        .a      STR      r0,[r4,#0x1c]
        0x00000314:    4607        .F      MOV      r7,r0
        0x00000316:    61a0        .a      STR      r0,[r4,#0x18]
        0x00000318:    2e2a        *.      CMP      r6,#0x2a
        0x0000031a:    d00a        ..      BEQ      0x332 ; __printf + 74
        0x0000031c:    4630        0F      MOV      r0,r6
        0x0000031e:    f004fb41    ..A.    BL       _is_digit ; 0x49a4
        0x00000322:    2800        .(      CMP      r0,#0
        0x00000324:    d027        '.      BEQ      0x376 ; __printf + 142
        0x00000326:    00b8        ..      LSLS     r0,r7,#2
        0x00000328:    1900        ..      ADDS     r0,r0,r4
        0x0000032a:    3e30        0>      SUBS     r6,r6,#0x30
        0x0000032c:    9000        ..      STR      r0,[sp,#0]
        0x0000032e:    6186        .a      STR      r6,[r0,#0x18]
        0x00000330:    e019        ..      B        0x366 ; __printf + 126
        0x00000332:    9802        ..      LDR      r0,[sp,#8]
        0x00000334:    00ba        ..      LSLS     r2,r7,#2
        0x00000336:    1912        ..      ADDS     r2,r2,r4
        0x00000338:    c802        ..      LDM      r0!,{r1}
        0x0000033a:    6191        .a      STR      r1,[r2,#0x18]
        0x0000033c:    9002        ..      STR      r0,[sp,#8]
        0x0000033e:    4620         F      MOV      r0,r4
        0x00000340:    68e1        .h      LDR      r1,[r4,#0xc]
        0x00000342:    4788        .G      BLX      r1
        0x00000344:    2f01        ./      CMP      r7,#1
        0x00000346:    4606        .F      MOV      r6,r0
        0x00000348:    d117        ..      BNE      0x37a ; __printf + 146
        0x0000034a:    69e0        .i      LDR      r0,[r4,#0x1c]
        0x0000034c:    2800        .(      CMP      r0,#0
        0x0000034e:    da1f        ..      BGE      0x390 ; __printf + 168
        0x00000350:    2020                MOVS     r0,#0x20
        0x00000352:    4385        .C      BICS     r5,r5,r0
        0x00000354:    e01c        ..      B        0x390 ; __printf + 168
        0x00000356:    9800        ..      LDR      r0,[sp,#0]
        0x00000358:    210a        .!      MOVS     r1,#0xa
        0x0000035a:    6980        .i      LDR      r0,[r0,#0x18]
        0x0000035c:    4348        HC      MULS     r0,r1,r0
        0x0000035e:    9900        ..      LDR      r1,[sp,#0]
        0x00000360:    1980        ..      ADDS     r0,r0,r6
        0x00000362:    3830        08      SUBS     r0,r0,#0x30
        0x00000364:    6188        .a      STR      r0,[r1,#0x18]
        0x00000366:    4620         F      MOV      r0,r4
        0x00000368:    68e1        .h      LDR      r1,[r4,#0xc]
        0x0000036a:    4788        .G      BLX      r1
        0x0000036c:    4606        .F      MOV      r6,r0
        0x0000036e:    f004fb19    ....    BL       _is_digit ; 0x49a4
        0x00000372:    2800        .(      CMP      r0,#0
        0x00000374:    d1ef        ..      BNE      0x356 ; __printf + 110
        0x00000376:    2f01        ./      CMP      r7,#1
        0x00000378:    d00a        ..      BEQ      0x390 ; __printf + 168
        0x0000037a:    2e2e        ..      CMP      r6,#0x2e
        0x0000037c:    d108        ..      BNE      0x390 ; __printf + 168
        0x0000037e:    4620         F      MOV      r0,r4
        0x00000380:    68e1        .h      LDR      r1,[r4,#0xc]
        0x00000382:    4788        .G      BLX      r1
        0x00000384:    4606        .F      MOV      r6,r0
        0x00000386:    2020                MOVS     r0,#0x20
        0x00000388:    4305        .C      ORRS     r5,r5,r0
        0x0000038a:    1c7f        ..      ADDS     r7,r7,#1
        0x0000038c:    2f02        ./      CMP      r7,#2
        0x0000038e:    dbc3        ..      BLT      0x318 ; __printf + 48
        0x00000390:    69a0        .i      LDR      r0,[r4,#0x18]
        0x00000392:    2800        .(      CMP      r0,#0
        0x00000394:    da03        ..      BGE      0x39e ; __printf + 182
        0x00000396:    4240        @B      RSBS     r0,r0,#0
        0x00000398:    61a0        .a      STR      r0,[r4,#0x18]
        0x0000039a:    2001        .       MOVS     r0,#1
        0x0000039c:    4305        .C      ORRS     r5,r5,r0
        0x0000039e:    07e8        ..      LSLS     r0,r5,#31
        0x000003a0:    d001        ..      BEQ      0x3a6 ; __printf + 190
        0x000003a2:    2010        .       MOVS     r0,#0x10
        0x000003a4:    4385        .C      BICS     r5,r5,r0
        0x000003a6:    2e00        ..      CMP      r6,#0
        0x000003a8:    d023        #.      BEQ      0x3f2 ; __printf + 266
        0x000003aa:    4630        0F      MOV      r0,r6
        0x000003ac:    3841        A8      SUBS     r0,r0,#0x41
        0x000003ae:    2819        .(      CMP      r0,#0x19
        0x000003b0:    d803        ..      BHI      0x3ba ; __printf + 210
        0x000003b2:    2001        .       MOVS     r0,#1
        0x000003b4:    02c0        ..      LSLS     r0,r0,#11
        0x000003b6:    4305        .C      ORRS     r5,r5,r0
        0x000003b8:    3620         6      ADDS     r6,r6,#0x20
        0x000003ba:    4620         F      MOV      r0,r4
        0x000003bc:    6025        %`      STR      r5,[r4,#0]
        0x000003be:    4631        1F      MOV      r1,r6
        0x000003c0:    9a02        ..      LDR      r2,[sp,#8]
        0x000003c2:    4615        .F      MOV      r5,r2
        0x000003c4:    f7fffeba    ....    BL       _printf_percent ; 0x13c
        0x000003c8:    2800        .(      CMP      r0,#0
        0x000003ca:    d00b        ..      BEQ      0x3e4 ; __printf + 252
        0x000003cc:    2801        .(      CMP      r0,#1
        0x000003ce:    d006        ..      BEQ      0x3de ; __printf + 246
        0x000003d0:    1ded        ..      ADDS     r5,r5,#7
        0x000003d2:    08e8        ..      LSRS     r0,r5,#3
        0x000003d4:    00c0        ..      LSLS     r0,r0,#3
        0x000003d6:    3008        .0      ADDS     r0,r0,#8
        0x000003d8:    9002        ..      STR      r0,[sp,#8]
        0x000003da:    e78a        ..      B        0x2f2 ; __printf + 10
        0x000003dc:    e009        ..      B        0x3f2 ; __printf + 266
        0x000003de:    1d2d        -.      ADDS     r5,r5,#4
        0x000003e0:    9502        ..      STR      r5,[sp,#8]
        0x000003e2:    e786        ..      B        0x2f2 ; __printf + 10
        0x000003e4:    6862        bh      LDR      r2,[r4,#4]
        0x000003e6:    4630        0F      MOV      r0,r6
        0x000003e8:    68a1        .h      LDR      r1,[r4,#8]
        0x000003ea:    4790        .G      BLX      r2
        0x000003ec:    6a20         j      LDR      r0,[r4,#0x20]
        0x000003ee:    1c40        @.      ADDS     r0,r0,#1
        0x000003f0:    e77e        ~.      B        0x2f0 ; __printf + 8
        0x000003f2:    6a20         j      LDR      r0,[r4,#0x20]
        0x000003f4:    bdfe        ..      POP      {r1-r7,pc}
        0x000003f6:    0000        ..      MOVS     r0,r0
    .text
    strlen
        0x000003f8:    b530        0.      PUSH     {r4,r5,lr}
        0x000003fa:    1c44        D.      ADDS     r4,r0,#1
        0x000003fc:    e003        ..      B        0x406 ; strlen + 14
        0x000003fe:    7801        .x      LDRB     r1,[r0,#0]
        0x00000400:    1c40        @.      ADDS     r0,r0,#1
        0x00000402:    2900        .)      CMP      r1,#0
        0x00000404:    d00d        ..      BEQ      0x422 ; strlen + 42
        0x00000406:    0781        ..      LSLS     r1,r0,#30
        0x00000408:    d1f9        ..      BNE      0x3fe ; strlen + 6
        0x0000040a:    4b0b        .K      LDR      r3,[pc,#44] ; [0x438] = 0x1010101
        0x0000040c:    01dd        ..      LSLS     r5,r3,#7
        0x0000040e:    c804        ..      LDM      r0!,{r2}
        0x00000410:    1ad1        ..      SUBS     r1,r2,r3
        0x00000412:    4391        .C      BICS     r1,r1,r2
        0x00000414:    4029        )@      ANDS     r1,r1,r5
        0x00000416:    d0fa        ..      BEQ      0x40e ; strlen + 22
        0x00000418:    1b00        ..      SUBS     r0,r0,r4
        0x0000041a:    060a        ..      LSLS     r2,r1,#24
        0x0000041c:    d003        ..      BEQ      0x426 ; strlen + 46
        0x0000041e:    1ec0        ..      SUBS     r0,r0,#3
        0x00000420:    bd30        0.      POP      {r4,r5,pc}
        0x00000422:    1b00        ..      SUBS     r0,r0,r4
        0x00000424:    bd30        0.      POP      {r4,r5,pc}
        0x00000426:    040a        ..      LSLS     r2,r1,#16
        0x00000428:    d001        ..      BEQ      0x42e ; strlen + 54
        0x0000042a:    1e80        ..      SUBS     r0,r0,#2
        0x0000042c:    bd30        0.      POP      {r4,r5,pc}
        0x0000042e:    0209        ..      LSLS     r1,r1,#8
        0x00000430:    d0fc        ..      BEQ      0x42c ; strlen + 52
        0x00000432:    1e40        @.      SUBS     r0,r0,#1
        0x00000434:    bd30        0.      POP      {r4,r5,pc}
    $d
        0x00000436:    0000        ..      DCW    0
        0x00000438:    01010101    ....    DCD    16843009
    $t
    .text
    strncmp
        0x0000043c:    4603        .F      MOV      r3,r0
        0x0000043e:    b5f0        ..      PUSH     {r4-r7,lr}
        0x00000440:    430b        .C      ORRS     r3,r3,r1
        0x00000442:    079b        ..      LSLS     r3,r3,#30
        0x00000444:    d12d        -.      BNE      0x4a2 ; strncmp + 102
        0x00000446:    4d24        $M      LDR      r5,[pc,#144] ; [0x4d8] = 0x1010101
        0x00000448:    01ef        ..      LSLS     r7,r5,#7
        0x0000044a:    2a04        .*      CMP      r2,#4
        0x0000044c:    d329        ).      BCC      0x4a2 ; strncmp + 102
        0x0000044e:    c808        ..      LDM      r0!,{r3}
        0x00000450:    c910        ..      LDM      r1!,{r4}
        0x00000452:    1b5e        ^.      SUBS     r6,r3,r5
        0x00000454:    439e        .C      BICS     r6,r6,r3
        0x00000456:    1f12        ..      SUBS     r2,r2,#4
        0x00000458:    403e        >@      ANDS     r6,r6,r7
        0x0000045a:    d017        ..      BEQ      0x48c ; strncmp + 80
        0x0000045c:    b2d8        ..      UXTB     r0,r3
        0x0000045e:    b2e1        ..      UXTB     r1,r4
        0x00000460:    1a40        @.      SUBS     r0,r0,r1
        0x00000462:    0631        1.      LSLS     r1,r6,#24
        0x00000464:    4301        .C      ORRS     r1,r1,r0
        0x00000466:    d110        ..      BNE      0x48a ; strncmp + 78
        0x00000468:    b298        ..      UXTH     r0,r3
        0x0000046a:    b2a1        ..      UXTH     r1,r4
        0x0000046c:    1a40        @.      SUBS     r0,r0,r1
        0x0000046e:    0431        1.      LSLS     r1,r6,#16
        0x00000470:    4301        .C      ORRS     r1,r1,r0
        0x00000472:    d10a        ..      BNE      0x48a ; strncmp + 78
        0x00000474:    0218        ..      LSLS     r0,r3,#8
        0x00000476:    0221        !.      LSLS     r1,r4,#8
        0x00000478:    0a00        ..      LSRS     r0,r0,#8
        0x0000047a:    0a09        ..      LSRS     r1,r1,#8
        0x0000047c:    1a40        @.      SUBS     r0,r0,r1
        0x0000047e:    0231        1.      LSLS     r1,r6,#8
        0x00000480:    4301        .C      ORRS     r1,r1,r0
        0x00000482:    d102        ..      BNE      0x48a ; strncmp + 78
        0x00000484:    0e18        ..      LSRS     r0,r3,#24
        0x00000486:    0e21        !.      LSRS     r1,r4,#24
        0x00000488:    1a40        @.      SUBS     r0,r0,r1
        0x0000048a:    bdf0        ..      POP      {r4-r7,pc}
        0x0000048c:    42a3        .B      CMP      r3,r4
        0x0000048e:    d0dc        ..      BEQ      0x44a ; strncmp + 14
        0x00000490:    ba18        ..      REV      r0,r3
        0x00000492:    ba21        !.      REV      r1,r4
        0x00000494:    4288        .B      CMP      r0,r1
        0x00000496:    d901        ..      BLS      0x49c ; strncmp + 96
        0x00000498:    2001        .       MOVS     r0,#1
        0x0000049a:    bdf0        ..      POP      {r4-r7,pc}
        0x0000049c:    2000        .       MOVS     r0,#0
        0x0000049e:    43c0        .C      MVNS     r0,r0
        0x000004a0:    bdf0        ..      POP      {r4-r7,pc}
        0x000004a2:    2a00        .*      CMP      r2,#0
        0x000004a4:    d101        ..      BNE      0x4aa ; strncmp + 110
        0x000004a6:    2000        .       MOVS     r0,#0
        0x000004a8:    bdf0        ..      POP      {r4-r7,pc}
        0x000004aa:    7803        .x      LDRB     r3,[r0,#0]
        0x000004ac:    780c        .x      LDRB     r4,[r1,#0]
        0x000004ae:    1c40        @.      ADDS     r0,r0,#1
        0x000004b0:    1c49        I.      ADDS     r1,r1,#1
        0x000004b2:    2b00        .+      CMP      r3,#0
        0x000004b4:    d00d        ..      BEQ      0x4d2 ; strncmp + 150
        0x000004b6:    42a3        .B      CMP      r3,r4
        0x000004b8:    d10b        ..      BNE      0x4d2 ; strncmp + 150
        0x000004ba:    1e52        R.      SUBS     r2,r2,#1
        0x000004bc:    d009        ..      BEQ      0x4d2 ; strncmp + 150
        0x000004be:    7803        .x      LDRB     r3,[r0,#0]
        0x000004c0:    780c        .x      LDRB     r4,[r1,#0]
        0x000004c2:    1c40        @.      ADDS     r0,r0,#1
        0x000004c4:    1c49        I.      ADDS     r1,r1,#1
        0x000004c6:    2b00        .+      CMP      r3,#0
        0x000004c8:    d003        ..      BEQ      0x4d2 ; strncmp + 150
        0x000004ca:    42a3        .B      CMP      r3,r4
        0x000004cc:    d101        ..      BNE      0x4d2 ; strncmp + 150
        0x000004ce:    1e52        R.      SUBS     r2,r2,#1
        0x000004d0:    d1eb        ..      BNE      0x4aa ; strncmp + 110
        0x000004d2:    1b18        ..      SUBS     r0,r3,r4
        0x000004d4:    bdf0        ..      POP      {r4-r7,pc}
    $d
        0x000004d6:    0000        ..      DCW    0
        0x000004d8:    01010101    ....    DCD    16843009
    $t
    .text
    __aeabi_uidiv
    __aeabi_uidivmod
        0x000004dc:    2200        ."      MOVS     r2,#0
        0x000004de:    0903        ..      LSRS     r3,r0,#4
        0x000004e0:    428b        .B      CMP      r3,r1
        0x000004e2:    d373        s.      BCC      0x5cc ; __aeabi_idiv + 212
        0x000004e4:    0a03        ..      LSRS     r3,r0,#8
        0x000004e6:    428b        .B      CMP      r3,r1
        0x000004e8:    d358        X.      BCC      0x59c ; __aeabi_idiv + 164
        0x000004ea:    0b03        ..      LSRS     r3,r0,#12
        0x000004ec:    428b        .B      CMP      r3,r1
        0x000004ee:    d33c        <.      BCC      0x56a ; __aeabi_idiv + 114
        0x000004f0:    0c03        ..      LSRS     r3,r0,#16
        0x000004f2:    428b        .B      CMP      r3,r1
        0x000004f4:    d321        !.      BCC      0x53a ; __aeabi_idiv + 66
        0x000004f6:    e012        ..      B        0x51e ; __aeabi_idiv + 38
    __aeabi_idiv
    __aeabi_idivmod
        0x000004f8:    4603        .F      MOV      r3,r0
        0x000004fa:    430b        .C      ORRS     r3,r3,r1
        0x000004fc:    d47f        ..      BMI      0x5fe ; __aeabi_idiv + 262
        0x000004fe:    2200        ."      MOVS     r2,#0
        0x00000500:    0843        C.      LSRS     r3,r0,#1
        0x00000502:    428b        .B      CMP      r3,r1
        0x00000504:    d374        t.      BCC      0x5f0 ; __aeabi_idiv + 248
        0x00000506:    0903        ..      LSRS     r3,r0,#4
        0x00000508:    428b        .B      CMP      r3,r1
        0x0000050a:    d35f        _.      BCC      0x5cc ; __aeabi_idiv + 212
        0x0000050c:    0a03        ..      LSRS     r3,r0,#8
        0x0000050e:    428b        .B      CMP      r3,r1
        0x00000510:    d344        D.      BCC      0x59c ; __aeabi_idiv + 164
        0x00000512:    0b03        ..      LSRS     r3,r0,#12
        0x00000514:    428b        .B      CMP      r3,r1
        0x00000516:    d328        (.      BCC      0x56a ; __aeabi_idiv + 114
        0x00000518:    0c03        ..      LSRS     r3,r0,#16
        0x0000051a:    428b        .B      CMP      r3,r1
        0x0000051c:    d30d        ..      BCC      0x53a ; __aeabi_idiv + 66
        0x0000051e:    22ff        ."      MOVS     r2,#0xff
        0x00000520:    0209        ..      LSLS     r1,r1,#8
        0x00000522:    ba12        ..      REV      r2,r2
        0x00000524:    0c03        ..      LSRS     r3,r0,#16
        0x00000526:    428b        .B      CMP      r3,r1
        0x00000528:    d302        ..      BCC      0x530 ; __aeabi_idiv + 56
        0x0000052a:    1212        ..      ASRS     r2,r2,#8
        0x0000052c:    0209        ..      LSLS     r1,r1,#8
        0x0000052e:    d065        e.      BEQ      0x5fc ; __aeabi_idiv + 260
        0x00000530:    0b03        ..      LSRS     r3,r0,#12
        0x00000532:    428b        .B      CMP      r3,r1
        0x00000534:    d319        ..      BCC      0x56a ; __aeabi_idiv + 114
        0x00000536:    e000        ..      B        0x53a ; __aeabi_idiv + 66
        0x00000538:    0a09        ..      LSRS     r1,r1,#8
        0x0000053a:    0bc3        ..      LSRS     r3,r0,#15
        0x0000053c:    428b        .B      CMP      r3,r1
        0x0000053e:    d301        ..      BCC      0x544 ; __aeabi_idiv + 76
        0x00000540:    03cb        ..      LSLS     r3,r1,#15
        0x00000542:    1ac0        ..      SUBS     r0,r0,r3
        0x00000544:    4152        RA      ADCS     r2,r2,r2
        0x00000546:    0b83        ..      LSRS     r3,r0,#14
        0x00000548:    428b        .B      CMP      r3,r1
        0x0000054a:    d301        ..      BCC      0x550 ; __aeabi_idiv + 88
        0x0000054c:    038b        ..      LSLS     r3,r1,#14
        0x0000054e:    1ac0        ..      SUBS     r0,r0,r3
        0x00000550:    4152        RA      ADCS     r2,r2,r2
        0x00000552:    0b43        C.      LSRS     r3,r0,#13
        0x00000554:    428b        .B      CMP      r3,r1
        0x00000556:    d301        ..      BCC      0x55c ; __aeabi_idiv + 100
        0x00000558:    034b        K.      LSLS     r3,r1,#13
        0x0000055a:    1ac0        ..      SUBS     r0,r0,r3
        0x0000055c:    4152        RA      ADCS     r2,r2,r2
        0x0000055e:    0b03        ..      LSRS     r3,r0,#12
        0x00000560:    428b        .B      CMP      r3,r1
        0x00000562:    d301        ..      BCC      0x568 ; __aeabi_idiv + 112
        0x00000564:    030b        ..      LSLS     r3,r1,#12
        0x00000566:    1ac0        ..      SUBS     r0,r0,r3
        0x00000568:    4152        RA      ADCS     r2,r2,r2
        0x0000056a:    0ac3        ..      LSRS     r3,r0,#11
        0x0000056c:    428b        .B      CMP      r3,r1
        0x0000056e:    d301        ..      BCC      0x574 ; __aeabi_idiv + 124
        0x00000570:    02cb        ..      LSLS     r3,r1,#11
        0x00000572:    1ac0        ..      SUBS     r0,r0,r3
        0x00000574:    4152        RA      ADCS     r2,r2,r2
        0x00000576:    0a83        ..      LSRS     r3,r0,#10
        0x00000578:    428b        .B      CMP      r3,r1
        0x0000057a:    d301        ..      BCC      0x580 ; __aeabi_idiv + 136
        0x0000057c:    028b        ..      LSLS     r3,r1,#10
        0x0000057e:    1ac0        ..      SUBS     r0,r0,r3
        0x00000580:    4152        RA      ADCS     r2,r2,r2
        0x00000582:    0a43        C.      LSRS     r3,r0,#9
        0x00000584:    428b        .B      CMP      r3,r1
        0x00000586:    d301        ..      BCC      0x58c ; __aeabi_idiv + 148
        0x00000588:    024b        K.      LSLS     r3,r1,#9
        0x0000058a:    1ac0        ..      SUBS     r0,r0,r3
        0x0000058c:    4152        RA      ADCS     r2,r2,r2
        0x0000058e:    0a03        ..      LSRS     r3,r0,#8
        0x00000590:    428b        .B      CMP      r3,r1
        0x00000592:    d301        ..      BCC      0x598 ; __aeabi_idiv + 160
        0x00000594:    020b        ..      LSLS     r3,r1,#8
        0x00000596:    1ac0        ..      SUBS     r0,r0,r3
        0x00000598:    4152        RA      ADCS     r2,r2,r2
        0x0000059a:    d2cd        ..      BCS      0x538 ; __aeabi_idiv + 64
        0x0000059c:    09c3        ..      LSRS     r3,r0,#7
        0x0000059e:    428b        .B      CMP      r3,r1
        0x000005a0:    d301        ..      BCC      0x5a6 ; __aeabi_idiv + 174
        0x000005a2:    01cb        ..      LSLS     r3,r1,#7
        0x000005a4:    1ac0        ..      SUBS     r0,r0,r3
        0x000005a6:    4152        RA      ADCS     r2,r2,r2
        0x000005a8:    0983        ..      LSRS     r3,r0,#6
        0x000005aa:    428b        .B      CMP      r3,r1
        0x000005ac:    d301        ..      BCC      0x5b2 ; __aeabi_idiv + 186
        0x000005ae:    018b        ..      LSLS     r3,r1,#6
        0x000005b0:    1ac0        ..      SUBS     r0,r0,r3
        0x000005b2:    4152        RA      ADCS     r2,r2,r2
        0x000005b4:    0943        C.      LSRS     r3,r0,#5
        0x000005b6:    428b        .B      CMP      r3,r1
        0x000005b8:    d301        ..      BCC      0x5be ; __aeabi_idiv + 198
        0x000005ba:    014b        K.      LSLS     r3,r1,#5
        0x000005bc:    1ac0        ..      SUBS     r0,r0,r3
        0x000005be:    4152        RA      ADCS     r2,r2,r2
        0x000005c0:    0903        ..      LSRS     r3,r0,#4
        0x000005c2:    428b        .B      CMP      r3,r1
        0x000005c4:    d301        ..      BCC      0x5ca ; __aeabi_idiv + 210
        0x000005c6:    010b        ..      LSLS     r3,r1,#4
        0x000005c8:    1ac0        ..      SUBS     r0,r0,r3
        0x000005ca:    4152        RA      ADCS     r2,r2,r2
        0x000005cc:    08c3        ..      LSRS     r3,r0,#3
        0x000005ce:    428b        .B      CMP      r3,r1
        0x000005d0:    d301        ..      BCC      0x5d6 ; __aeabi_idiv + 222
        0x000005d2:    00cb        ..      LSLS     r3,r1,#3
        0x000005d4:    1ac0        ..      SUBS     r0,r0,r3
        0x000005d6:    4152        RA      ADCS     r2,r2,r2
        0x000005d8:    0883        ..      LSRS     r3,r0,#2
        0x000005da:    428b        .B      CMP      r3,r1
        0x000005dc:    d301        ..      BCC      0x5e2 ; __aeabi_idiv + 234
        0x000005de:    008b        ..      LSLS     r3,r1,#2
        0x000005e0:    1ac0        ..      SUBS     r0,r0,r3
        0x000005e2:    4152        RA      ADCS     r2,r2,r2
        0x000005e4:    0843        C.      LSRS     r3,r0,#1
        0x000005e6:    428b        .B      CMP      r3,r1
        0x000005e8:    d301        ..      BCC      0x5ee ; __aeabi_idiv + 246
        0x000005ea:    004b        K.      LSLS     r3,r1,#1
        0x000005ec:    1ac0        ..      SUBS     r0,r0,r3
        0x000005ee:    4152        RA      ADCS     r2,r2,r2
        0x000005f0:    1a41        A.      SUBS     r1,r0,r1
        0x000005f2:    d200        ..      BCS      0x5f6 ; __aeabi_idiv + 254
        0x000005f4:    4601        .F      MOV      r1,r0
        0x000005f6:    4152        RA      ADCS     r2,r2,r2
        0x000005f8:    4610        .F      MOV      r0,r2
        0x000005fa:    4770        pG      BX       lr
        0x000005fc:    e05d        ].      B        0x6ba ; __aeabi_idiv + 450
        0x000005fe:    0fca        ..      LSRS     r2,r1,#31
        0x00000600:    d000        ..      BEQ      0x604 ; __aeabi_idiv + 268
        0x00000602:    4249        IB      RSBS     r1,r1,#0
        0x00000604:    1003        ..      ASRS     r3,r0,#32
        0x00000606:    d300        ..      BCC      0x60a ; __aeabi_idiv + 274
        0x00000608:    4240        @B      RSBS     r0,r0,#0
        0x0000060a:    4053        S@      EORS     r3,r3,r2
        0x0000060c:    2200        ."      MOVS     r2,#0
        0x0000060e:    469c        .F      MOV      r12,r3
        0x00000610:    0903        ..      LSRS     r3,r0,#4
        0x00000612:    428b        .B      CMP      r3,r1
        0x00000614:    d32d        -.      BCC      0x672 ; __aeabi_idiv + 378
        0x00000616:    0a03        ..      LSRS     r3,r0,#8
        0x00000618:    428b        .B      CMP      r3,r1
        0x0000061a:    d312        ..      BCC      0x642 ; __aeabi_idiv + 330
        0x0000061c:    22fc        ."      MOVS     r2,#0xfc
        0x0000061e:    0189        ..      LSLS     r1,r1,#6
        0x00000620:    ba12        ..      REV      r2,r2
        0x00000622:    0a03        ..      LSRS     r3,r0,#8
        0x00000624:    428b        .B      CMP      r3,r1
        0x00000626:    d30c        ..      BCC      0x642 ; __aeabi_idiv + 330
        0x00000628:    0189        ..      LSLS     r1,r1,#6
        0x0000062a:    1192        ..      ASRS     r2,r2,#6
        0x0000062c:    428b        .B      CMP      r3,r1
        0x0000062e:    d308        ..      BCC      0x642 ; __aeabi_idiv + 330
        0x00000630:    0189        ..      LSLS     r1,r1,#6
        0x00000632:    1192        ..      ASRS     r2,r2,#6
        0x00000634:    428b        .B      CMP      r3,r1
        0x00000636:    d304        ..      BCC      0x642 ; __aeabi_idiv + 330
        0x00000638:    0189        ..      LSLS     r1,r1,#6
        0x0000063a:    d03a        :.      BEQ      0x6b2 ; __aeabi_idiv + 442
        0x0000063c:    1192        ..      ASRS     r2,r2,#6
        0x0000063e:    e000        ..      B        0x642 ; __aeabi_idiv + 330
        0x00000640:    0989        ..      LSRS     r1,r1,#6
        0x00000642:    09c3        ..      LSRS     r3,r0,#7
        0x00000644:    428b        .B      CMP      r3,r1
        0x00000646:    d301        ..      BCC      0x64c ; __aeabi_idiv + 340
        0x00000648:    01cb        ..      LSLS     r3,r1,#7
        0x0000064a:    1ac0        ..      SUBS     r0,r0,r3
        0x0000064c:    4152        RA      ADCS     r2,r2,r2
        0x0000064e:    0983        ..      LSRS     r3,r0,#6
        0x00000650:    428b        .B      CMP      r3,r1
        0x00000652:    d301        ..      BCC      0x658 ; __aeabi_idiv + 352
        0x00000654:    018b        ..      LSLS     r3,r1,#6
        0x00000656:    1ac0        ..      SUBS     r0,r0,r3
        0x00000658:    4152        RA      ADCS     r2,r2,r2
        0x0000065a:    0943        C.      LSRS     r3,r0,#5
        0x0000065c:    428b        .B      CMP      r3,r1
        0x0000065e:    d301        ..      BCC      0x664 ; __aeabi_idiv + 364
        0x00000660:    014b        K.      LSLS     r3,r1,#5
        0x00000662:    1ac0        ..      SUBS     r0,r0,r3
        0x00000664:    4152        RA      ADCS     r2,r2,r2
        0x00000666:    0903        ..      LSRS     r3,r0,#4
        0x00000668:    428b        .B      CMP      r3,r1
        0x0000066a:    d301        ..      BCC      0x670 ; __aeabi_idiv + 376
        0x0000066c:    010b        ..      LSLS     r3,r1,#4
        0x0000066e:    1ac0        ..      SUBS     r0,r0,r3
        0x00000670:    4152        RA      ADCS     r2,r2,r2
        0x00000672:    08c3        ..      LSRS     r3,r0,#3
        0x00000674:    428b        .B      CMP      r3,r1
        0x00000676:    d301        ..      BCC      0x67c ; __aeabi_idiv + 388
        0x00000678:    00cb        ..      LSLS     r3,r1,#3
        0x0000067a:    1ac0        ..      SUBS     r0,r0,r3
        0x0000067c:    4152        RA      ADCS     r2,r2,r2
        0x0000067e:    0883        ..      LSRS     r3,r0,#2
        0x00000680:    428b        .B      CMP      r3,r1
        0x00000682:    d301        ..      BCC      0x688 ; __aeabi_idiv + 400
        0x00000684:    008b        ..      LSLS     r3,r1,#2
        0x00000686:    1ac0        ..      SUBS     r0,r0,r3
        0x00000688:    4152        RA      ADCS     r2,r2,r2
        0x0000068a:    d2d9        ..      BCS      0x640 ; __aeabi_idiv + 328
        0x0000068c:    0843        C.      LSRS     r3,r0,#1
        0x0000068e:    428b        .B      CMP      r3,r1
        0x00000690:    d301        ..      BCC      0x696 ; __aeabi_idiv + 414
        0x00000692:    004b        K.      LSLS     r3,r1,#1
        0x00000694:    1ac0        ..      SUBS     r0,r0,r3
        0x00000696:    4152        RA      ADCS     r2,r2,r2
        0x00000698:    1a41        A.      SUBS     r1,r0,r1
        0x0000069a:    d200        ..      BCS      0x69e ; __aeabi_idiv + 422
        0x0000069c:    4601        .F      MOV      r1,r0
        0x0000069e:    4663        cF      MOV      r3,r12
        0x000006a0:    4152        RA      ADCS     r2,r2,r2
        0x000006a2:    105b        [.      ASRS     r3,r3,#1
        0x000006a4:    4610        .F      MOV      r0,r2
        0x000006a6:    d301        ..      BCC      0x6ac ; __aeabi_idiv + 436
        0x000006a8:    4240        @B      RSBS     r0,r0,#0
        0x000006aa:    2b00        .+      CMP      r3,#0
        0x000006ac:    d500        ..      BPL      0x6b0 ; __aeabi_idiv + 440
        0x000006ae:    4249        IB      RSBS     r1,r1,#0
        0x000006b0:    4770        pG      BX       lr
        0x000006b2:    4663        cF      MOV      r3,r12
        0x000006b4:    105b        [.      ASRS     r3,r3,#1
        0x000006b6:    d300        ..      BCC      0x6ba ; __aeabi_idiv + 450
        0x000006b8:    4240        @B      RSBS     r0,r0,#0
        0x000006ba:    b501        ..      PUSH     {r0,lr}
        0x000006bc:    2000        .       MOVS     r0,#0
        0x000006be:    46c0        .F      MOV      r8,r8
        0x000006c0:    46c0        .F      MOV      r8,r8
        0x000006c2:    bd02        ..      POP      {r1,pc}
    .text
    __use_two_region_memory
        0x000006c4:    4770        pG      BX       lr
    __rt_heap_escrow$2region
        0x000006c6:    4770        pG      BX       lr
    __rt_heap_expand$2region
        0x000006c8:    4770        pG      BX       lr
        0x000006ca:    0000        ..      MOVS     r0,r0
    .text
    __aeabi_d2f
    _d2f
        0x000006cc:    4602        .F      MOV      r2,r0
        0x000006ce:    0fc8        ..      LSRS     r0,r1,#31
        0x000006d0:    07c0        ..      LSLS     r0,r0,#31
        0x000006d2:    4381        .C      BICS     r1,r1,r0
        0x000006d4:    004b        K.      LSLS     r3,r1,#1
        0x000006d6:    b530        0.      PUSH     {r4,r5,lr}
        0x000006d8:    404b        K@      EORS     r3,r3,r1
        0x000006da:    005b        [.      LSLS     r3,r3,#1
        0x000006dc:    0d9b        ..      LSRS     r3,r3,#22
        0x000006de:    d020         .      BEQ      0x722 ; __aeabi_d2f + 86
        0x000006e0:    2319        .#      MOVS     r3,#0x19
        0x000006e2:    06db        ..      LSLS     r3,r3,#27
        0x000006e4:    18c9        ..      ADDS     r1,r1,r3
        0x000006e6:    2301        .#      MOVS     r3,#1
        0x000006e8:    051b        ..      LSLS     r3,r3,#20
        0x000006ea:    4299        .B      CMP      r1,r3
        0x000006ec:    db20         .      BLT      0x730 ; __aeabi_d2f + 100
        0x000006ee:    2403        .$      MOVS     r4,#3
        0x000006f0:    07a4        ..      LSLS     r4,r4,#30
        0x000006f2:    2504        .%      MOVS     r5,#4
        0x000006f4:    4613        .F      MOV      r3,r2
        0x000006f6:    40ab        .@      LSLS     r3,r3,r5
        0x000006f8:    d30b        ..      BCC      0x712 ; __aeabi_d2f + 70
        0x000006fa:    2b00        .+      CMP      r3,#0
        0x000006fc:    d104        ..      BNE      0x708 ; __aeabi_d2f + 60
        0x000006fe:    06eb        ..      LSLS     r3,r5,#27
        0x00000700:    4013        .@      ANDS     r3,r3,r2
        0x00000702:    009b        ..      LSLS     r3,r3,#2
        0x00000704:    42e3        .B      CMN      r3,r4
        0x00000706:    d404        ..      BMI      0x712 ; __aeabi_d2f + 70
        0x00000708:    2401        .$      MOVS     r4,#1
        0x0000070a:    0764        d.      LSLS     r4,r4,#29
        0x0000070c:    2300        .#      MOVS     r3,#0
        0x0000070e:    1912        ..      ADDS     r2,r2,r4
        0x00000710:    4159        YA      ADCS     r1,r1,r3
        0x00000712:    23ff        .#      MOVS     r3,#0xff
        0x00000714:    051b        ..      LSLS     r3,r3,#20
        0x00000716:    4299        .B      CMP      r1,r3
        0x00000718:    d20b        ..      BCS      0x732 ; __aeabi_d2f + 102
        0x0000071a:    00c9        ..      LSLS     r1,r1,#3
        0x0000071c:    4301        .C      ORRS     r1,r1,r0
        0x0000071e:    0f50        P.      LSRS     r0,r2,#29
        0x00000720:    e009        ..      B        0x736 ; __aeabi_d2f + 106
        0x00000722:    02cb        ..      LSLS     r3,r1,#11
        0x00000724:    d504        ..      BPL      0x730 ; __aeabi_d2f + 100
        0x00000726:    4301        .C      ORRS     r1,r1,r0
        0x00000728:    0308        ..      LSLS     r0,r1,#12
        0x0000072a:    4302        .C      ORRS     r2,r2,r0
        0x0000072c:    d005        ..      BEQ      0x73a ; __aeabi_d2f + 110
        0x0000072e:    4805        .H      LDR      r0,[pc,#20] ; [0x744] = 0x7fc00000
        0x00000730:    bd30        0.      POP      {r4,r5,pc}
        0x00000732:    21ff        .!      MOVS     r1,#0xff
        0x00000734:    05c9        ..      LSLS     r1,r1,#23
        0x00000736:    4308        .C      ORRS     r0,r0,r1
        0x00000738:    bd30        0.      POP      {r4,r5,pc}
        0x0000073a:    4608        .F      MOV      r0,r1
        0x0000073c:    2107        .!      MOVS     r1,#7
        0x0000073e:    0509        ..      LSLS     r1,r1,#20
        0x00000740:    4388        .C      BICS     r0,r0,r1
        0x00000742:    bd30        0.      POP      {r4,r5,pc}
    $d
        0x00000744:    7fc00000    ....    DCD    2143289344
    $t
    .text
    _dadd1
        0x00000748:    b5f0        ..      PUSH     {r4-r7,lr}
        0x0000074a:    460c        .F      MOV      r4,r1
        0x0000074c:    1a87        ..      SUBS     r7,r0,r2
        0x0000074e:    419c        .A      SBCS     r4,r4,r3
        0x00000750:    460d        .F      MOV      r5,r1
        0x00000752:    1a86        ..      SUBS     r6,r0,r2
        0x00000754:    419d        .A      SBCS     r5,r5,r3
        0x00000756:    d203        ..      BCS      0x760 ; _dadd1 + 24
        0x00000758:    1bc0        ..      SUBS     r0,r0,r7
        0x0000075a:    41a1        .A      SBCS     r1,r1,r4
        0x0000075c:    19d2        ..      ADDS     r2,r2,r7
        0x0000075e:    4163        cA      ADCS     r3,r3,r4
        0x00000760:    0d0d        ..      LSRS     r5,r1,#20
        0x00000762:    0d1f        ..      LSRS     r7,r3,#20
        0x00000764:    4ec7        .N      LDR      r6,[pc,#796] ; [0xa84] = 0x7ff
        0x00000766:    1bec        ..      SUBS     r4,r5,r7
        0x00000768:    43ae        .C      BICS     r6,r6,r5
        0x0000076a:    d05c        \.      BEQ      0x826 ; _dadd1 + 222
        0x0000076c:    057f        ..      LSLS     r7,r7,#21
        0x0000076e:    0d7f        ..      LSRS     r7,r7,#21
        0x00000770:    2600        .&      MOVS     r6,#0
        0x00000772:    2f00        ./      CMP      r7,#0
        0x00000774:    d051        Q.      BEQ      0x81a ; _dadd1 + 210
        0x00000776:    052d        -.      LSLS     r5,r5,#20
        0x00000778:    46ac        .F      MOV      r12,r5
        0x0000077a:    43a9        .C      BICS     r1,r1,r5
        0x0000077c:    02dd        ..      LSLS     r5,r3,#11
        0x0000077e:    2301        .#      MOVS     r3,#1
        0x00000780:    0aed        ..      LSRS     r5,r5,#11
        0x00000782:    051b        ..      LSLS     r3,r3,#20
        0x00000784:    431d        .C      ORRS     r5,r5,r3
        0x00000786:    2320         #      MOVS     r3,#0x20
        0x00000788:    1b1b        ..      SUBS     r3,r3,r4
        0x0000078a:    d424        $.      BMI      0x7d6 ; _dadd1 + 142
        0x0000078c:    4617        .F      MOV      r7,r2
        0x0000078e:    40e7        .@      LSRS     r7,r7,r4
        0x00000790:    1838        8.      ADDS     r0,r7,r0
        0x00000792:    4171        qA      ADCS     r1,r1,r6
        0x00000794:    462f        /F      MOV      r7,r5
        0x00000796:    40e7        .@      LSRS     r7,r7,r4
        0x00000798:    19cc        ..      ADDS     r4,r1,r7
        0x0000079a:    409d        .@      LSLS     r5,r5,r3
        0x0000079c:    1828        (.      ADDS     r0,r5,r0
        0x0000079e:    4631        1F      MOV      r1,r6
        0x000007a0:    4161        aA      ADCS     r1,r1,r4
        0x000007a2:    0d0c        ..      LSRS     r4,r1,#20
        0x000007a4:    d127        '.      BNE      0x7f6 ; _dadd1 + 174
        0x000007a6:    4461        aD      ADD      r1,r1,r12
        0x000007a8:    409a        .@      LSLS     r2,r2,r3
        0x000007aa:    d513        ..      BPL      0x7d4 ; _dadd1 + 140
        0x000007ac:    2300        .#      MOVS     r3,#0
        0x000007ae:    1c40        @.      ADDS     r0,r0,#1
        0x000007b0:    4159        YA      ADCS     r1,r1,r3
        0x000007b2:    0052        R.      LSLS     r2,r2,#1
        0x000007b4:    d10e        ..      BNE      0x7d4 ; _dadd1 + 140
        0x000007b6:    0840        @.      LSRS     r0,r0,#1
        0x000007b8:    0040        @.      LSLS     r0,r0,#1
        0x000007ba:    2201        ."      MOVS     r2,#1
        0x000007bc:    004b        K.      LSLS     r3,r1,#1
        0x000007be:    0552        R.      LSLS     r2,r2,#21
        0x000007c0:    42d3        .B      CMN      r3,r2
        0x000007c2:    d307        ..      BCC      0x7d4 ; _dadd1 + 140
        0x000007c4:    2005        .       MOVS     r0,#5
        0x000007c6:    0740        @.      LSLS     r0,r0,#29
        0x000007c8:    42c1        .B      CMN      r1,r0
        0x000007ca:    d501        ..      BPL      0x7d0 ; _dadd1 + 136
        0x000007cc:    49ae        .I      LDR      r1,[pc,#696] ; [0xa88] = 0xfff00000
        0x000007ce:    e000        ..      B        0x7d2 ; _dadd1 + 138
        0x000007d0:    49ae        .I      LDR      r1,[pc,#696] ; [0xa8c] = 0x7ff00000
        0x000007d2:    4630        0F      MOV      r0,r6
        0x000007d4:    bdf0        ..      POP      {r4-r7,pc}
        0x000007d6:    006b        k.      LSLS     r3,r5,#1
        0x000007d8:    2a00        .*      CMP      r2,#0
        0x000007da:    d000        ..      BEQ      0x7de ; _dadd1 + 150
        0x000007dc:    2201        ."      MOVS     r2,#1
        0x000007de:    189a        ..      ADDS     r2,r3,r2
        0x000007e0:    231f        .#      MOVS     r3,#0x1f
        0x000007e2:    3c20         <      SUBS     r4,r4,#0x20
        0x000007e4:    1b1b        ..      SUBS     r3,r3,r4
        0x000007e6:    d501        ..      BPL      0x7ec ; _dadd1 + 164
        0x000007e8:    2300        .#      MOVS     r3,#0
        0x000007ea:    e002        ..      B        0x7f2 ; _dadd1 + 170
        0x000007ec:    40e5        .@      LSRS     r5,r5,r4
        0x000007ee:    1828        (.      ADDS     r0,r5,r0
        0x000007f0:    4171        qA      ADCS     r1,r1,r6
        0x000007f2:    0d0c        ..      LSRS     r4,r1,#20
        0x000007f4:    d0d7        ..      BEQ      0x7a6 ; _dadd1 + 94
        0x000007f6:    2401        .$      MOVS     r4,#1
        0x000007f8:    0524        $.      LSLS     r4,r4,#20
        0x000007fa:    1909        ..      ADDS     r1,r1,r4
        0x000007fc:    07c4        ..      LSLS     r4,r0,#31
        0x000007fe:    07cd        ..      LSLS     r5,r1,#31
        0x00000800:    0840        @.      LSRS     r0,r0,#1
        0x00000802:    0849        I.      LSRS     r1,r1,#1
        0x00000804:    0fe4        ..      LSRS     r4,r4,#31
        0x00000806:    4328        (C      ORRS     r0,r0,r5
        0x00000808:    4461        aD      ADD      r1,r1,r12
        0x0000080a:    2c00        .,      CMP      r4,#0
        0x0000080c:    d0d5        ..      BEQ      0x7ba ; _dadd1 + 114
        0x0000080e:    2400        .$      MOVS     r4,#0
        0x00000810:    1c40        @.      ADDS     r0,r0,#1
        0x00000812:    4161        aA      ADCS     r1,r1,r4
        0x00000814:    409a        .@      LSLS     r2,r2,r3
        0x00000816:    d1d0        ..      BNE      0x7ba ; _dadd1 + 114
        0x00000818:    e7cd        ..      B        0x7b6 ; _dadd1 + 110
        0x0000081a:    056a        j.      LSLS     r2,r5,#21
        0x0000081c:    0d52        R.      LSRS     r2,r2,#21
        0x0000081e:    d1d9        ..      BNE      0x7d4 ; _dadd1 + 140
        0x00000820:    0fc9        ..      LSRS     r1,r1,#31
        0x00000822:    07c9        ..      LSLS     r1,r1,#31
        0x00000824:    e7d5        ..      B        0x7d2 ; _dadd1 + 138
        0x00000826:    4d9a        .M      LDR      r5,[pc,#616] ; [0xa90] = 0xffe00000
        0x00000828:    004e        N.      LSLS     r6,r1,#1
        0x0000082a:    2800        .(      CMP      r0,#0
        0x0000082c:    d001        ..      BEQ      0x832 ; _dadd1 + 234
        0x0000082e:    2401        .$      MOVS     r4,#1
        0x00000830:    e000        ..      B        0x834 ; _dadd1 + 236
        0x00000832:    2400        .$      MOVS     r4,#0
        0x00000834:    1934        4.      ADDS     r4,r6,r4
        0x00000836:    005f        _.      LSLS     r7,r3,#1
        0x00000838:    2a00        .*      CMP      r2,#0
        0x0000083a:    d001        ..      BEQ      0x840 ; _dadd1 + 248
        0x0000083c:    2601        .&      MOVS     r6,#1
        0x0000083e:    e000        ..      B        0x842 ; _dadd1 + 250
        0x00000840:    2600        .&      MOVS     r6,#0
        0x00000842:    19be        ..      ADDS     r6,r7,r6
        0x00000844:    4f93        .O      LDR      r7,[pc,#588] ; [0xa94] = 0x7ff80000
        0x00000846:    42ac        .B      CMP      r4,r5
        0x00000848:    d80c        ..      BHI      0x864 ; _dadd1 + 284
        0x0000084a:    42ae        .B      CMP      r6,r5
        0x0000084c:    d80a        ..      BHI      0x864 ; _dadd1 + 284
        0x0000084e:    42b4        .B      CMP      r4,r6
        0x00000850:    d006        ..      BEQ      0x860 ; _dadd1 + 280
        0x00000852:    2501        .%      MOVS     r5,#1
        0x00000854:    056d        m.      LSLS     r5,r5,#21
        0x00000856:    42ec        .B      CMN      r4,r5
        0x00000858:    d0bc        ..      BEQ      0x7d4 ; _dadd1 + 140
        0x0000085a:    4610        .F      MOV      r0,r2
        0x0000085c:    4619        .F      MOV      r1,r3
        0x0000085e:    bdf0        ..      POP      {r4-r7,pc}
        0x00000860:    4299        .B      CMP      r1,r3
        0x00000862:    d0fc        ..      BEQ      0x85e ; _dadd1 + 278
        0x00000864:    2000        .       MOVS     r0,#0
        0x00000866:    4639        9F      MOV      r1,r7
        0x00000868:    bdf0        ..      POP      {r4-r7,pc}
    _dsub1
        0x0000086a:    b5f0        ..      PUSH     {r4-r7,lr}
        0x0000086c:    b41f        ..      PUSH     {r0-r4}
        0x0000086e:    460c        .F      MOV      r4,r1
        0x00000870:    460f        .F      MOV      r7,r1
        0x00000872:    1a81        ..      SUBS     r1,r0,r2
        0x00000874:    419f        .A      SBCS     r7,r7,r3
        0x00000876:    4625        %F      MOV      r5,r4
        0x00000878:    1a86        ..      SUBS     r6,r0,r2
        0x0000087a:    419d        .A      SBCS     r5,r5,r3
        0x0000087c:    d206        ..      BCS      0x88c ; _dsub1 + 34
        0x0000087e:    2501        .%      MOVS     r5,#1
        0x00000880:    07ed        ..      LSLS     r5,r5,#31
        0x00000882:    406f        o@      EORS     r7,r7,r5
        0x00000884:    1a40        @.      SUBS     r0,r0,r1
        0x00000886:    41bc        .A      SBCS     r4,r4,r7
        0x00000888:    1852        R.      ADDS     r2,r2,r1
        0x0000088a:    417b        {A      ADCS     r3,r3,r7
        0x0000088c:    0d21        !.      LSRS     r1,r4,#20
        0x0000088e:    0d1e        ..      LSRS     r6,r3,#20
        0x00000890:    1b8d        ..      SUBS     r5,r1,r6
        0x00000892:    46ac        .F      MOV      r12,r5
        0x00000894:    4d7b        {M      LDR      r5,[pc,#492] ; [0xa84] = 0x7ff
        0x00000896:    438d        .C      BICS     r5,r5,r1
        0x00000898:    d07e        ~.      BEQ      0x998 ; _dsub1 + 302
        0x0000089a:    0575        u.      LSLS     r5,r6,#21
        0x0000089c:    0d6d        m.      LSRS     r5,r5,#21
        0x0000089e:    d07c        |.      BEQ      0x99a ; _dsub1 + 304
        0x000008a0:    050d        ..      LSLS     r5,r1,#20
        0x000008a2:    46ae        .F      MOV      lr,r5
        0x000008a4:    43ac        .C      BICS     r4,r4,r5
        0x000008a6:    031b        ..      LSLS     r3,r3,#12
        0x000008a8:    0b1b        ..      LSRS     r3,r3,#12
        0x000008aa:    4d77        wM      LDR      r5,[pc,#476] ; [0xa88] = 0xfff00000
        0x000008ac:    4252        RB      RSBS     r2,r2,#0
        0x000008ae:    419d        .A      SBCS     r5,r5,r3
        0x000008b0:    2320         #      MOVS     r3,#0x20
        0x000008b2:    4666        fF      MOV      r6,r12
        0x000008b4:    1b9b        ..      SUBS     r3,r3,r6
        0x000008b6:    d314        ..      BCC      0x8e2 ; _dsub1 + 120
        0x000008b8:    4617        .F      MOV      r7,r2
        0x000008ba:    40f7        .@      LSRS     r7,r7,r6
        0x000008bc:    1838        8.      ADDS     r0,r7,r0
        0x000008be:    2600        .&      MOVS     r6,#0
        0x000008c0:    9000        ..      STR      r0,[sp,#0]
        0x000008c2:    4174        tA      ADCS     r4,r4,r6
        0x000008c4:    4660        `F      MOV      r0,r12
        0x000008c6:    462f        /F      MOV      r7,r5
        0x000008c8:    4107        .A      ASRS     r7,r7,r0
        0x000008ca:    19e4        ..      ADDS     r4,r4,r7
        0x000008cc:    9800        ..      LDR      r0,[sp,#0]
        0x000008ce:    409d        .@      LSLS     r5,r5,r3
        0x000008d0:    1828        (.      ADDS     r0,r5,r0
        0x000008d2:    4166        fA      ADCS     r6,r6,r4
        0x000008d4:    d416        ..      BMI      0x904 ; _dsub1 + 154
        0x000008d6:    4671        qF      MOV      r1,lr
        0x000008d8:    1871        q.      ADDS     r1,r6,r1
        0x000008da:    409a        .@      LSLS     r2,r2,r3
        0x000008dc:    d525        %.      BPL      0x92a ; _dsub1 + 192
        0x000008de:    2301        .#      MOVS     r3,#1
        0x000008e0:    e020         .      B        0x924 ; _dsub1 + 186
        0x000008e2:    1893        ..      ADDS     r3,r2,r2
        0x000008e4:    462a        *F      MOV      r2,r5
        0x000008e6:    416a        jA      ADCS     r2,r2,r5
        0x000008e8:    0052        R.      LSLS     r2,r2,#1
        0x000008ea:    2b00        .+      CMP      r3,#0
        0x000008ec:    d000        ..      BEQ      0x8f0 ; _dsub1 + 134
        0x000008ee:    1c52        R.      ADDS     r2,r2,#1
        0x000008f0:    231e        .#      MOVS     r3,#0x1e
        0x000008f2:    3e20         >      SUBS     r6,r6,#0x20
        0x000008f4:    1b9b        ..      SUBS     r3,r3,r6
        0x000008f6:    2b00        .+      CMP      r3,#0
        0x000008f8:    dd61        a.      BLE      0x9be ; _dsub1 + 340
        0x000008fa:    4135        5A      ASRS     r5,r5,r6
        0x000008fc:    17ee        ..      ASRS     r6,r5,#31
        0x000008fe:    1828        (.      ADDS     r0,r5,r0
        0x00000900:    4166        fA      ADCS     r6,r6,r4
        0x00000902:    d5e8        ..      BPL      0x8d6 ; _dsub1 + 108
        0x00000904:    1800        ..      ADDS     r0,r0,r0
        0x00000906:    4176        vA      ADCS     r6,r6,r6
        0x00000908:    1c5b        [.      ADDS     r3,r3,#1
        0x0000090a:    409a        .@      LSLS     r2,r2,r3
        0x0000090c:    d300        ..      BCC      0x910 ; _dsub1 + 166
        0x0000090e:    1c40        @.      ADDS     r0,r0,#1
        0x00000910:    054b        K.      LSLS     r3,r1,#21
        0x00000912:    18f3        ..      ADDS     r3,r6,r3
        0x00000914:    2415        .$      MOVS     r4,#0x15
        0x00000916:    40e3        .@      LSRS     r3,r3,r4
        0x00000918:    d310        ..      BCC      0x93c ; _dsub1 + 210
        0x0000091a:    2b00        .+      CMP      r3,#0
        0x0000091c:    d052        R.      BEQ      0x9c4 ; _dsub1 + 346
        0x0000091e:    4671        qF      MOV      r1,lr
        0x00000920:    1871        q.      ADDS     r1,r6,r1
        0x00000922:    0fd3        ..      LSRS     r3,r2,#31
        0x00000924:    18c0        ..      ADDS     r0,r0,r3
        0x00000926:    d302        ..      BCC      0x92e ; _dsub1 + 196
        0x00000928:    1c49        I.      ADDS     r1,r1,#1
        0x0000092a:    b005        ..      ADD      sp,sp,#0x14
        0x0000092c:    bdf0        ..      POP      {r4-r7,pc}
        0x0000092e:    2301        .#      MOVS     r3,#1
        0x00000930:    07db        ..      LSLS     r3,r3,#31
        0x00000932:    429a        .B      CMP      r2,r3
        0x00000934:    d1f9        ..      BNE      0x92a ; _dsub1 + 192
        0x00000936:    0840        @.      LSRS     r0,r0,#1
        0x00000938:    0040        @.      LSLS     r0,r0,#1
        0x0000093a:    e7f6        ..      B        0x92a ; _dsub1 + 192
        0x0000093c:    2201        ."      MOVS     r2,#1
        0x0000093e:    0552        R.      LSLS     r2,r2,#21
        0x00000940:    18b2        ..      ADDS     r2,r6,r2
        0x00000942:    d101        ..      BNE      0x948 ; _dsub1 + 222
        0x00000944:    2800        .(      CMP      r0,#0
        0x00000946:    d053        S.      BEQ      0x9f0 ; _dsub1 + 390
        0x00000948:    2301        .#      MOVS     r3,#1
        0x0000094a:    0acc        ..      LSRS     r4,r1,#11
        0x0000094c:    02db        ..      LSLS     r3,r3,#11
        0x0000094e:    4399        .C      BICS     r1,r1,r3
        0x00000950:    1e89        ..      SUBS     r1,r1,#2
        0x00000952:    2a00        .*      CMP      r2,#0
        0x00000954:    d108        ..      BNE      0x968 ; _dsub1 + 254
        0x00000956:    0c02        ..      LSRS     r2,r0,#16
        0x00000958:    d003        ..      BEQ      0x962 ; _dsub1 + 248
        0x0000095a:    0c02        ..      LSRS     r2,r0,#16
        0x0000095c:    0400        ..      LSLS     r0,r0,#16
        0x0000095e:    3910        .9      SUBS     r1,r1,#0x10
        0x00000960:    e002        ..      B        0x968 ; _dsub1 + 254
        0x00000962:    4602        .F      MOV      r2,r0
        0x00000964:    2000        .       MOVS     r0,#0
        0x00000966:    3920         9      SUBS     r1,r1,#0x20
        0x00000968:    2300        .#      MOVS     r3,#0
        0x0000096a:    0b55        U.      LSRS     r5,r2,#13
        0x0000096c:    d105        ..      BNE      0x97a ; _dsub1 + 272
        0x0000096e:    0212        ..      LSLS     r2,r2,#8
        0x00000970:    2308        .#      MOVS     r3,#8
        0x00000972:    0b55        U.      LSRS     r5,r2,#13
        0x00000974:    d101        ..      BNE      0x97a ; _dsub1 + 272
        0x00000976:    0152        R.      LSLS     r2,r2,#5
        0x00000978:    230d        .#      MOVS     r3,#0xd
        0x0000097a:    0c55        U.      LSRS     r5,r2,#17
        0x0000097c:    d101        ..      BNE      0x982 ; _dsub1 + 280
        0x0000097e:    0112        ..      LSLS     r2,r2,#4
        0x00000980:    1d1b        ..      ADDS     r3,r3,#4
        0x00000982:    0cd5        ..      LSRS     r5,r2,#19
        0x00000984:    d101        ..      BNE      0x98a ; _dsub1 + 288
        0x00000986:    0092        ..      LSLS     r2,r2,#2
        0x00000988:    1c9b        ..      ADDS     r3,r3,#2
        0x0000098a:    0d15        ..      LSRS     r5,r2,#20
        0x0000098c:    d101        ..      BNE      0x992 ; _dsub1 + 296
        0x0000098e:    0052        R.      LSLS     r2,r2,#1
        0x00000990:    1c5b        [.      ADDS     r3,r3,#1
        0x00000992:    2520         %      MOVS     r5,#0x20
        0x00000994:    1aee        ..      SUBS     r6,r5,r3
        0x00000996:    e001        ..      B        0x99c ; _dsub1 + 306
        0x00000998:    e02c        ,.      B        0x9f4 ; _dsub1 + 394
        0x0000099a:    e022        ".      B        0x9e2 ; _dsub1 + 376
        0x0000099c:    4605        .F      MOV      r5,r0
        0x0000099e:    40f5        .@      LSRS     r5,r5,r6
        0x000009a0:    4315        .C      ORRS     r5,r5,r2
        0x000009a2:    4098        .@      LSLS     r0,r0,r3
        0x000009a4:    1aca        ..      SUBS     r2,r1,r3
        0x000009a6:    07e1        ..      LSLS     r1,r4,#31
        0x000009a8:    1869        i.      ADDS     r1,r5,r1
        0x000009aa:    0513        ..      LSLS     r3,r2,#20
        0x000009ac:    18c9        ..      ADDS     r1,r1,r3
        0x000009ae:    2a00        .*      CMP      r2,#0
        0x000009b0:    dabb        ..      BGE      0x92a ; _dsub1 + 192
        0x000009b2:    2003        .       MOVS     r0,#3
        0x000009b4:    0740        @.      LSLS     r0,r0,#29
        0x000009b6:    1808        ..      ADDS     r0,r1,r0
        0x000009b8:    0fc1        ..      LSRS     r1,r0,#31
        0x000009ba:    07c9        ..      LSLS     r1,r1,#31
        0x000009bc:    e00f        ..      B        0x9de ; _dsub1 + 372
        0x000009be:    4671        qF      MOV      r1,lr
        0x000009c0:    1861        a.      ADDS     r1,r4,r1
        0x000009c2:    e7b2        ..      B        0x92a ; _dsub1 + 192
        0x000009c4:    07f1        ..      LSLS     r1,r6,#31
        0x000009c6:    0840        @.      LSRS     r0,r0,#1
        0x000009c8:    4308        .C      ORRS     r0,r0,r1
        0x000009ca:    1071        q.      ASRS     r1,r6,#1
        0x000009cc:    4471        qD      ADD      r1,r1,lr
        0x000009ce:    004a        J.      LSLS     r2,r1,#1
        0x000009d0:    d00c        ..      BEQ      0x9ec ; _dsub1 + 386
        0x000009d2:    2301        .#      MOVS     r3,#1
        0x000009d4:    055b        [.      LSLS     r3,r3,#21
        0x000009d6:    429a        .B      CMP      r2,r3
        0x000009d8:    d2a7        ..      BCS      0x92a ; _dsub1 + 192
        0x000009da:    0fc9        ..      LSRS     r1,r1,#31
        0x000009dc:    07c9        ..      LSLS     r1,r1,#31
        0x000009de:    2000        .       MOVS     r0,#0
        0x000009e0:    e7a3        ..      B        0x92a ; _dsub1 + 192
        0x000009e2:    0549        I.      LSLS     r1,r1,#21
        0x000009e4:    0d49        I.      LSRS     r1,r1,#21
        0x000009e6:    d126        &.      BNE      0xa36 ; _dsub1 + 460
        0x000009e8:    2000        .       MOVS     r0,#0
        0x000009ea:    e001        ..      B        0x9f0 ; _dsub1 + 390
        0x000009ec:    2800        .(      CMP      r0,#0
        0x000009ee:    d1f4        ..      BNE      0x9da ; _dsub1 + 368
        0x000009f0:    2100        .!      MOVS     r1,#0
        0x000009f2:    e79a        ..      B        0x92a ; _dsub1 + 192
        0x000009f4:    4d26        &M      LDR      r5,[pc,#152] ; [0xa90] = 0xffe00000
        0x000009f6:    0066        f.      LSLS     r6,r4,#1
        0x000009f8:    2800        .(      CMP      r0,#0
        0x000009fa:    d001        ..      BEQ      0xa00 ; _dsub1 + 406
        0x000009fc:    2101        .!      MOVS     r1,#1
        0x000009fe:    e000        ..      B        0xa02 ; _dsub1 + 408
        0x00000a00:    2100        .!      MOVS     r1,#0
        0x00000a02:    1871        q.      ADDS     r1,r6,r1
        0x00000a04:    005f        _.      LSLS     r7,r3,#1
        0x00000a06:    2a00        .*      CMP      r2,#0
        0x00000a08:    d001        ..      BEQ      0xa0e ; _dsub1 + 420
        0x00000a0a:    2601        .&      MOVS     r6,#1
        0x00000a0c:    e000        ..      B        0xa10 ; _dsub1 + 422
        0x00000a0e:    2600        .&      MOVS     r6,#0
        0x00000a10:    19be        ..      ADDS     r6,r7,r6
        0x00000a12:    4f20         O      LDR      r7,[pc,#128] ; [0xa94] = 0x7ff80000
        0x00000a14:    42a9        .B      CMP      r1,r5
        0x00000a16:    d810        ..      BHI      0xa3a ; _dsub1 + 464
        0x00000a18:    42ae        .B      CMP      r6,r5
        0x00000a1a:    d80e        ..      BHI      0xa3a ; _dsub1 + 464
        0x00000a1c:    42b1        .B      CMP      r1,r6
        0x00000a1e:    d008        ..      BEQ      0xa32 ; _dsub1 + 456
        0x00000a20:    2501        .%      MOVS     r5,#1
        0x00000a22:    056d        m.      LSLS     r5,r5,#21
        0x00000a24:    42e9        .B      CMN      r1,r5
        0x00000a26:    d006        ..      BEQ      0xa36 ; _dsub1 + 460
        0x00000a28:    4619        .F      MOV      r1,r3
        0x00000a2a:    02a8        ..      LSLS     r0,r5,#10
        0x00000a2c:    4041        A@      EORS     r1,r1,r0
        0x00000a2e:    4610        .F      MOV      r0,r2
        0x00000a30:    e77b        {.      B        0x92a ; _dsub1 + 192
        0x00000a32:    429c        .B      CMP      r4,r3
        0x00000a34:    d001        ..      BEQ      0xa3a ; _dsub1 + 464
        0x00000a36:    4621        !F      MOV      r1,r4
        0x00000a38:    e777        w.      B        0x92a ; _dsub1 + 192
        0x00000a3a:    2000        .       MOVS     r0,#0
        0x00000a3c:    4639        9F      MOV      r1,r7
        0x00000a3e:    e774        t.      B        0x92a ; _dsub1 + 192
    __aeabi_dadd
    _dadd
        0x00000a40:    b430        0.      PUSH     {r4,r5}
        0x00000a42:    460c        .F      MOV      r4,r1
        0x00000a44:    405c        \@      EORS     r4,r4,r3
        0x00000a46:    d504        ..      BPL      0xa52 ; __aeabi_dadd + 18
        0x00000a48:    2401        .$      MOVS     r4,#1
        0x00000a4a:    07e4        ..      LSLS     r4,r4,#31
        0x00000a4c:    4063        c@      EORS     r3,r3,r4
        0x00000a4e:    bc30        0.      POP      {r4,r5}
        0x00000a50:    e70b        ..      B        _dsub1 ; 0x86a
        0x00000a52:    bc30        0.      POP      {r4,r5}
        0x00000a54:    e678        x.      B        _dadd1 ; 0x748
    __aeabi_dsub
    _dsub
        0x00000a56:    b430        0.      PUSH     {r4,r5}
        0x00000a58:    460c        .F      MOV      r4,r1
        0x00000a5a:    405c        \@      EORS     r4,r4,r3
        0x00000a5c:    d504        ..      BPL      0xa68 ; __aeabi_dsub + 18
        0x00000a5e:    2401        .$      MOVS     r4,#1
        0x00000a60:    07e4        ..      LSLS     r4,r4,#31
        0x00000a62:    4063        c@      EORS     r3,r3,r4
        0x00000a64:    bc30        0.      POP      {r4,r5}
        0x00000a66:    e66f        o.      B        _dadd1 ; 0x748
        0x00000a68:    bc30        0.      POP      {r4,r5}
        0x00000a6a:    e6fe        ..      B        _dsub1 ; 0x86a
    __aeabi_drsub
    _drsb
        0x00000a6c:    b430        0.      PUSH     {r4,r5}
        0x00000a6e:    2401        .$      MOVS     r4,#1
        0x00000a70:    07e4        ..      LSLS     r4,r4,#31
        0x00000a72:    4061        a@      EORS     r1,r1,r4
        0x00000a74:    460d        .F      MOV      r5,r1
        0x00000a76:    405d        ]@      EORS     r5,r5,r3
        0x00000a78:    d401        ..      BMI      0xa7e ; __aeabi_drsub + 18
        0x00000a7a:    bc30        0.      POP      {r4,r5}
        0x00000a7c:    e664        d.      B        _dadd1 ; 0x748
        0x00000a7e:    4063        c@      EORS     r3,r3,r4
        0x00000a80:    bc30        0.      POP      {r4,r5}
        0x00000a82:    e6f2        ..      B        _dsub1 ; 0x86a
    $d
        0x00000a84:    000007ff    ....    DCD    2047
        0x00000a88:    fff00000    ....    DCD    4293918720
        0x00000a8c:    7ff00000    ....    DCD    2146435072
        0x00000a90:    ffe00000    ....    DCD    4292870144
        0x00000a94:    7ff80000    ....    DCD    2146959360
    $t
    .text
    __aeabi_ddiv
    _ddiv
        0x00000a98:    b5f0        ..      PUSH     {r4-r7,lr}
        0x00000a9a:    b41f        ..      PUSH     {r0-r4}
        0x00000a9c:    4ff8        .O      LDR      r7,[pc,#992] ; [0xe80] = 0x7ff0000
        0x00000a9e:    090e        ..      LSRS     r6,r1,#4
        0x00000aa0:    091d        ..      LSRS     r5,r3,#4
        0x00000aa2:    46bc        .F      MOV      r12,r7
        0x00000aa4:    403e        >@      ANDS     r6,r6,r7
        0x00000aa6:    403d        =@      ANDS     r5,r5,r7
        0x00000aa8:    460c        .F      MOV      r4,r1
        0x00000aaa:    43b7        .C      BICS     r7,r7,r6
        0x00000aac:    405c        \@      EORS     r4,r4,r3
        0x00000aae:    b08c        ..      SUB      sp,sp,#0x30
        0x00000ab0:    2f00        ./      CMP      r7,#0
        0x00000ab2:    d07d        }.      BEQ      0xbb0 ; __aeabi_ddiv + 280
        0x00000ab4:    4667        gF      MOV      r7,r12
        0x00000ab6:    43af        .C      BICS     r7,r7,r5
        0x00000ab8:    d0fb        ..      BEQ      0xab2 ; __aeabi_ddiv + 26
        0x00000aba:    2d00        .-      CMP      r5,#0
        0x00000abc:    d079        y.      BEQ      0xbb2 ; __aeabi_ddiv + 282
        0x00000abe:    2e00        ..      CMP      r6,#0
        0x00000ac0:    d0fc        ..      BEQ      0xabc ; __aeabi_ddiv + 36
        0x00000ac2:    0fe2        ..      LSRS     r2,r4,#31
        0x00000ac4:    4332        2C      ORRS     r2,r2,r6
        0x00000ac6:    1b52        R.      SUBS     r2,r2,r5
        0x00000ac8:    24ff        .$      MOVS     r4,#0xff
        0x00000aca:    04a4        ..      LSLS     r4,r4,#18
        0x00000acc:    1912        ..      ADDS     r2,r2,r4
        0x00000ace:    9208        ..      STR      r2,[sp,#0x20]
        0x00000ad0:    0d42        B.      LSRS     r2,r0,#21
        0x00000ad2:    02cd        ..      LSLS     r5,r1,#11
        0x00000ad4:    02c7        ..      LSLS     r7,r0,#11
        0x00000ad6:    980e        ..      LDR      r0,[sp,#0x38]
        0x00000ad8:    4315        .C      ORRS     r5,r5,r2
        0x00000ada:    0d42        B.      LSRS     r2,r0,#21
        0x00000adc:    02d9        ..      LSLS     r1,r3,#11
        0x00000ade:    4311        .C      ORRS     r1,r1,r2
        0x00000ae0:    02c2        ..      LSLS     r2,r0,#11
        0x00000ae2:    0360        `.      LSLS     r0,r4,#13
        0x00000ae4:    4305        .C      ORRS     r5,r5,r0
        0x00000ae6:    4301        .C      ORRS     r1,r1,r0
        0x00000ae8:    0c08        ..      LSRS     r0,r1,#16
        0x00000aea:    9501        ..      STR      r5,[sp,#4]
        0x00000aec:    0c15        ..      LSRS     r5,r2,#16
        0x00000aee:    46ac        .F      MOV      r12,r5
        0x00000af0:    0405        ..      LSLS     r5,r0,#16
        0x00000af2:    460b        .F      MOV      r3,r1
        0x00000af4:    43ab        .C      BICS     r3,r3,r5
        0x00000af6:    950a        ..      STR      r5,[sp,#0x28]
        0x00000af8:    4665        eF      MOV      r5,r12
        0x00000afa:    042d        -.      LSLS     r5,r5,#16
        0x00000afc:    43aa        .C      BICS     r2,r2,r5
        0x00000afe:    9509        ..      STR      r5,[sp,#0x24]
        0x00000b00:    4de0        .M      LDR      r5,[pc,#896] ; [0xe84] = 0x6370
        0x00000b02:    0a04        ..      LSRS     r4,r0,#8
        0x00000b04:    447d        }D      ADD      r5,r5,pc
        0x00000b06:    1964        d.      ADDS     r4,r4,r5
        0x00000b08:    3c80        .<      SUBS     r4,r4,#0x80
        0x00000b0a:    7825        %x      LDRB     r5,[r4,#0]
        0x00000b0c:    4606        .F      MOV      r6,r0
        0x00000b0e:    436e        nC      MULS     r6,r5,r6
        0x00000b10:    2401        .$      MOVS     r4,#1
        0x00000b12:    1976        v.      ADDS     r6,r6,r5
        0x00000b14:    05e4        ..      LSLS     r4,r4,#23
        0x00000b16:    1ba6        ..      SUBS     r6,r4,r6
        0x00000b18:    4375        uC      MULS     r5,r6,r5
        0x00000b1a:    0ced        ..      LSRS     r5,r5,#19
        0x00000b1c:    0b49        I.      LSRS     r1,r1,#13
        0x00000b1e:    1cad        ..      ADDS     r5,r5,#2
        0x00000b20:    4369        iC      MULS     r1,r5,r1
        0x00000b22:    1949        I.      ADDS     r1,r1,r5
        0x00000b24:    01a4        ..      LSLS     r4,r4,#6
        0x00000b26:    1a61        a.      SUBS     r1,r4,r1
        0x00000b28:    0c0e        ..      LSRS     r6,r1,#16
        0x00000b2a:    46b6        .F      MOV      lr,r6
        0x00000b2c:    0436        6.      LSLS     r6,r6,#16
        0x00000b2e:    43b1        .C      BICS     r1,r1,r6
        0x00000b30:    4369        iC      MULS     r1,r5,r1
        0x00000b32:    4676        vF      MOV      r6,lr
        0x00000b34:    436e        nC      MULS     r6,r5,r6
        0x00000b36:    0c09        ..      LSRS     r1,r1,#16
        0x00000b38:    1871        q.      ADDS     r1,r6,r1
        0x00000b3a:    0989        ..      LSRS     r1,r1,#6
        0x00000b3c:    9105        ..      STR      r1,[sp,#0x14]
        0x00000b3e:    07f9        ..      LSLS     r1,r7,#31
        0x00000b40:    d000        ..      BEQ      0xb44 ; __aeabi_ddiv + 172
        0x00000b42:    00a1        ..      LSLS     r1,r4,#2
        0x00000b44:    9104        ..      STR      r1,[sp,#0x10]
        0x00000b46:    9901        ..      LDR      r1,[sp,#4]
        0x00000b48:    087f        ..      LSRS     r7,r7,#1
        0x00000b4a:    07cc        ..      LSLS     r4,r1,#31
        0x00000b4c:    4327        'C      ORRS     r7,r7,r4
        0x00000b4e:    084c        L.      LSRS     r4,r1,#1
        0x00000b50:    9d05        ..      LDR      r5,[sp,#0x14]
        0x00000b52:    0be1        ..      LSRS     r1,r4,#15
        0x00000b54:    434d        MC      MULS     r5,r1,r5
        0x00000b56:    0c2d        -.      LSRS     r5,r5,#16
        0x00000b58:    4629        )F      MOV      r1,r5
        0x00000b5a:    4666        fF      MOV      r6,r12
        0x00000b5c:    4375        uC      MULS     r5,r6,r5
        0x00000b5e:    9502        ..      STR      r5,[sp,#8]
        0x00000b60:    460d        .F      MOV      r5,r1
        0x00000b62:    4345        EC      MULS     r5,r0,r5
        0x00000b64:    462e        .F      MOV      r6,r5
        0x00000b66:    9d02        ..      LDR      r5,[sp,#8]
        0x00000b68:    1b7d        }.      SUBS     r5,r7,r5
        0x00000b6a:    41b4        .A      SBCS     r4,r4,r6
        0x00000b6c:    9500        ..      STR      r5,[sp,#0]
        0x00000b6e:    460d        .F      MOV      r5,r1
        0x00000b70:    435d        ]C      MULS     r5,r3,r5
        0x00000b72:    9401        ..      STR      r4,[sp,#4]
        0x00000b74:    0c2c        ,.      LSRS     r4,r5,#16
        0x00000b76:    042f        /.      LSLS     r7,r5,#16
        0x00000b78:    460d        .F      MOV      r5,r1
        0x00000b7a:    4355        UC      MULS     r5,r2,r5
        0x00000b7c:    46ae        .F      MOV      lr,r5
        0x00000b7e:    0c2d        -.      LSRS     r5,r5,#16
        0x00000b80:    433d        =C      ORRS     r5,r5,r7
        0x00000b82:    9502        ..      STR      r5,[sp,#8]
        0x00000b84:    9403        ..      STR      r4,[sp,#0xc]
        0x00000b86:    4675        uF      MOV      r5,lr
        0x00000b88:    9c04        ..      LDR      r4,[sp,#0x10]
        0x00000b8a:    042d        -.      LSLS     r5,r5,#16
        0x00000b8c:    1b64        d.      SUBS     r4,r4,r5
        0x00000b8e:    9404        ..      STR      r4,[sp,#0x10]
        0x00000b90:    d206        ..      BCS      0xba0 ; __aeabi_ddiv + 264
        0x00000b92:    9c02        ..      LDR      r4,[sp,#8]
        0x00000b94:    9d03        ..      LDR      r5,[sp,#0xc]
        0x00000b96:    1c64        d.      ADDS     r4,r4,#1
        0x00000b98:    2600        .&      MOVS     r6,#0
        0x00000b9a:    4175        uA      ADCS     r5,r5,r6
        0x00000b9c:    9503        ..      STR      r5,[sp,#0xc]
        0x00000b9e:    9402        ..      STR      r4,[sp,#8]
        0x00000ba0:    ac01        ..      ADD      r4,sp,#4
        0x00000ba2:    cc70        p.      LDM      r4,{r4-r6}
        0x00000ba4:    9f00        ..      LDR      r7,[sp,#0]
        0x00000ba6:    1b7d        }.      SUBS     r5,r7,r5
        0x00000ba8:    41b4        .A      SBCS     r4,r4,r6
        0x00000baa:    0409        ..      LSLS     r1,r1,#16
        0x00000bac:    9500        ..      STR      r5,[sp,#0]
        0x00000bae:    e001        ..      B        0xbb4 ; __aeabi_ddiv + 284
        0x00000bb0:    e13a        :.      B        0xe28 ; __aeabi_ddiv + 912
        0x00000bb2:    e15e        ^.      B        0xe72 ; __aeabi_ddiv + 986
        0x00000bb4:    9107        ..      STR      r1,[sp,#0x1c]
        0x00000bb6:    9401        ..      STR      r4,[sp,#4]
        0x00000bb8:    9905        ..      LDR      r1,[sp,#0x14]
        0x00000bba:    08a4        ..      LSRS     r4,r4,#2
        0x00000bbc:    4361        aC      MULS     r1,r4,r1
        0x00000bbe:    0c09        ..      LSRS     r1,r1,#16
        0x00000bc0:    460c        .F      MOV      r4,r1
        0x00000bc2:    4344        DC      MULS     r4,r0,r4
        0x00000bc4:    0b65        e.      LSRS     r5,r4,#13
        0x00000bc6:    04e7        ..      LSLS     r7,r4,#19
        0x00000bc8:    4664        dF      MOV      r4,r12
        0x00000bca:    434c        LC      MULS     r4,r1,r4
        0x00000bcc:    46a6        .F      MOV      lr,r4
        0x00000bce:    0b64        d.      LSRS     r4,r4,#13
        0x00000bd0:    433c        <C      ORRS     r4,r4,r7
        0x00000bd2:    9503        ..      STR      r5,[sp,#0xc]
        0x00000bd4:    9402        ..      STR      r4,[sp,#8]
        0x00000bd6:    4674        tF      MOV      r4,lr
        0x00000bd8:    9d04        ..      LDR      r5,[sp,#0x10]
        0x00000bda:    04e4        ..      LSLS     r4,r4,#19
        0x00000bdc:    1b2c        ,.      SUBS     r4,r5,r4
        0x00000bde:    9404        ..      STR      r4,[sp,#0x10]
        0x00000be0:    d206        ..      BCS      0xbf0 ; __aeabi_ddiv + 344
        0x00000be2:    9c02        ..      LDR      r4,[sp,#8]
        0x00000be4:    9d03        ..      LDR      r5,[sp,#0xc]
        0x00000be6:    1c64        d.      ADDS     r4,r4,#1
        0x00000be8:    2600        .&      MOVS     r6,#0
        0x00000bea:    4175        uA      ADCS     r5,r5,r6
        0x00000bec:    9503        ..      STR      r5,[sp,#0xc]
        0x00000bee:    9402        ..      STR      r4,[sp,#8]
        0x00000bf0:    ac01        ..      ADD      r4,sp,#4
        0x00000bf2:    cc70        p.      LDM      r4,{r4-r6}
        0x00000bf4:    9f00        ..      LDR      r7,[sp,#0]
        0x00000bf6:    1b7d        }.      SUBS     r5,r7,r5
        0x00000bf8:    41b4        .A      SBCS     r4,r4,r6
        0x00000bfa:    9401        ..      STR      r4,[sp,#4]
        0x00000bfc:    460c        .F      MOV      r4,r1
        0x00000bfe:    435c        \C      MULS     r4,r3,r4
        0x00000c00:    9500        ..      STR      r5,[sp,#0]
        0x00000c02:    0f65        e.      LSRS     r5,r4,#29
        0x00000c04:    00e7        ..      LSLS     r7,r4,#3
        0x00000c06:    460c        .F      MOV      r4,r1
        0x00000c08:    4354        TC      MULS     r4,r2,r4
        0x00000c0a:    46a6        .F      MOV      lr,r4
        0x00000c0c:    0f64        d.      LSRS     r4,r4,#29
        0x00000c0e:    433c        <C      ORRS     r4,r4,r7
        0x00000c10:    9503        ..      STR      r5,[sp,#0xc]
        0x00000c12:    9402        ..      STR      r4,[sp,#8]
        0x00000c14:    4674        tF      MOV      r4,lr
        0x00000c16:    9d04        ..      LDR      r5,[sp,#0x10]
        0x00000c18:    00e4        ..      LSLS     r4,r4,#3
        0x00000c1a:    1b2c        ,.      SUBS     r4,r5,r4
        0x00000c1c:    9404        ..      STR      r4,[sp,#0x10]
        0x00000c1e:    d206        ..      BCS      0xc2e ; __aeabi_ddiv + 406
        0x00000c20:    9c02        ..      LDR      r4,[sp,#8]
        0x00000c22:    9d03        ..      LDR      r5,[sp,#0xc]
        0x00000c24:    1c64        d.      ADDS     r4,r4,#1
        0x00000c26:    2600        .&      MOVS     r6,#0
        0x00000c28:    4175        uA      ADCS     r5,r5,r6
        0x00000c2a:    9503        ..      STR      r5,[sp,#0xc]
        0x00000c2c:    9402        ..      STR      r4,[sp,#8]
        0x00000c2e:    ac01        ..      ADD      r4,sp,#4
        0x00000c30:    cc70        p.      LDM      r4,{r4-r6}
        0x00000c32:    9f00        ..      LDR      r7,[sp,#0]
        0x00000c34:    1b7d        }.      SUBS     r5,r7,r5
        0x00000c36:    41b4        .A      SBCS     r4,r4,r6
        0x00000c38:    09ae        ..      LSRS     r6,r5,#6
        0x00000c3a:    06af        ..      LSLS     r7,r5,#26
        0x00000c3c:    9d04        ..      LDR      r5,[sp,#0x10]
        0x00000c3e:    00c9        ..      LSLS     r1,r1,#3
        0x00000c40:    09ad        ..      LSRS     r5,r5,#6
        0x00000c42:    432f        /C      ORRS     r7,r7,r5
        0x00000c44:    9d04        ..      LDR      r5,[sp,#0x10]
        0x00000c46:    06a4        ..      LSLS     r4,r4,#26
        0x00000c48:    06ad        ..      LSLS     r5,r5,#26
        0x00000c4a:    9504        ..      STR      r5,[sp,#0x10]
        0x00000c4c:    9d07        ..      LDR      r5,[sp,#0x1c]
        0x00000c4e:    4334        4C      ORRS     r4,r4,r6
        0x00000c50:    1869        i.      ADDS     r1,r5,r1
        0x00000c52:    9107        ..      STR      r1,[sp,#0x1c]
        0x00000c54:    9d05        ..      LDR      r5,[sp,#0x14]
        0x00000c56:    0be1        ..      LSRS     r1,r4,#15
        0x00000c58:    434d        MC      MULS     r5,r1,r5
        0x00000c5a:    0c2d        -.      LSRS     r5,r5,#16
        0x00000c5c:    4629        )F      MOV      r1,r5
        0x00000c5e:    4666        fF      MOV      r6,r12
        0x00000c60:    4375        uC      MULS     r5,r6,r5
        0x00000c62:    9502        ..      STR      r5,[sp,#8]
        0x00000c64:    460d        .F      MOV      r5,r1
        0x00000c66:    4345        EC      MULS     r5,r0,r5
        0x00000c68:    462e        .F      MOV      r6,r5
        0x00000c6a:    9d02        ..      LDR      r5,[sp,#8]
        0x00000c6c:    1b7d        }.      SUBS     r5,r7,r5
        0x00000c6e:    41b4        .A      SBCS     r4,r4,r6
        0x00000c70:    9500        ..      STR      r5,[sp,#0]
        0x00000c72:    460d        .F      MOV      r5,r1
        0x00000c74:    435d        ]C      MULS     r5,r3,r5
        0x00000c76:    9401        ..      STR      r4,[sp,#4]
        0x00000c78:    0c2c        ,.      LSRS     r4,r5,#16
        0x00000c7a:    042f        /.      LSLS     r7,r5,#16
        0x00000c7c:    460d        .F      MOV      r5,r1
        0x00000c7e:    4355        UC      MULS     r5,r2,r5
        0x00000c80:    46ae        .F      MOV      lr,r5
        0x00000c82:    0c2d        -.      LSRS     r5,r5,#16
        0x00000c84:    433d        =C      ORRS     r5,r5,r7
        0x00000c86:    9502        ..      STR      r5,[sp,#8]
        0x00000c88:    9403        ..      STR      r4,[sp,#0xc]
        0x00000c8a:    4675        uF      MOV      r5,lr
        0x00000c8c:    9c04        ..      LDR      r4,[sp,#0x10]
        0x00000c8e:    042d        -.      LSLS     r5,r5,#16
        0x00000c90:    1b64        d.      SUBS     r4,r4,r5
        0x00000c92:    9404        ..      STR      r4,[sp,#0x10]
        0x00000c94:    d206        ..      BCS      0xca4 ; __aeabi_ddiv + 524
        0x00000c96:    9c02        ..      LDR      r4,[sp,#8]
        0x00000c98:    9d03        ..      LDR      r5,[sp,#0xc]
        0x00000c9a:    1c64        d.      ADDS     r4,r4,#1
        0x00000c9c:    2600        .&      MOVS     r6,#0
        0x00000c9e:    4175        uA      ADCS     r5,r5,r6
        0x00000ca0:    9503        ..      STR      r5,[sp,#0xc]
        0x00000ca2:    9402        ..      STR      r4,[sp,#8]
        0x00000ca4:    ac01        ..      ADD      r4,sp,#4
        0x00000ca6:    cc70        p.      LDM      r4,{r4-r6}
        0x00000ca8:    9f00        ..      LDR      r7,[sp,#0]
        0x00000caa:    1b7d        }.      SUBS     r5,r7,r5
        0x00000cac:    41b4        .A      SBCS     r4,r4,r6
        0x00000cae:    9401        ..      STR      r4,[sp,#4]
        0x00000cb0:    058c        ..      LSLS     r4,r1,#22
        0x00000cb2:    9406        ..      STR      r4,[sp,#0x18]
        0x00000cb4:    9c07        ..      LDR      r4,[sp,#0x1c]
        0x00000cb6:    0a89        ..      LSRS     r1,r1,#10
        0x00000cb8:    1861        a.      ADDS     r1,r4,r1
        0x00000cba:    9500        ..      STR      r5,[sp,#0]
        0x00000cbc:    9107        ..      STR      r1,[sp,#0x1c]
        0x00000cbe:    9c01        ..      LDR      r4,[sp,#4]
        0x00000cc0:    9905        ..      LDR      r1,[sp,#0x14]
        0x00000cc2:    08a4        ..      LSRS     r4,r4,#2
        0x00000cc4:    4361        aC      MULS     r1,r4,r1
        0x00000cc6:    0c09        ..      LSRS     r1,r1,#16
        0x00000cc8:    460d        .F      MOV      r5,r1
        0x00000cca:    4345        EC      MULS     r5,r0,r5
        0x00000ccc:    0b68        h.      LSRS     r0,r5,#13
        0x00000cce:    04ef        ..      LSLS     r7,r5,#19
        0x00000cd0:    460d        .F      MOV      r5,r1
        0x00000cd2:    4664        dF      MOV      r4,r12
        0x00000cd4:    4365        eC      MULS     r5,r4,r5
        0x00000cd6:    0b6c        l.      LSRS     r4,r5,#13
        0x00000cd8:    433c        <C      ORRS     r4,r4,r7
        0x00000cda:    9f04        ..      LDR      r7,[sp,#0x10]
        0x00000cdc:    04ed        ..      LSLS     r5,r5,#19
        0x00000cde:    1b7d        }.      SUBS     r5,r7,r5
        0x00000ce0:    46ac        .F      MOV      r12,r5
        0x00000ce2:    d202        ..      BCS      0xcea ; __aeabi_ddiv + 594
        0x00000ce4:    2500        .%      MOVS     r5,#0
        0x00000ce6:    1c64        d.      ADDS     r4,r4,#1
        0x00000ce8:    4168        hA      ADCS     r0,r0,r5
        0x00000cea:    9e00        ..      LDR      r6,[sp,#0]
        0x00000cec:    9d01        ..      LDR      r5,[sp,#4]
        0x00000cee:    1b37        7.      SUBS     r7,r6,r4
        0x00000cf0:    4185        .A      SBCS     r5,r5,r0
        0x00000cf2:    4608        .F      MOV      r0,r1
        0x00000cf4:    4358        XC      MULS     r0,r3,r0
        0x00000cf6:    9501        ..      STR      r5,[sp,#4]
        0x00000cf8:    460c        .F      MOV      r4,r1
        0x00000cfa:    0f46        F.      LSRS     r6,r0,#29
        0x00000cfc:    00c5        ..      LSLS     r5,r0,#3
        0x00000cfe:    4354        TC      MULS     r4,r2,r4
        0x00000d00:    0f60        `.      LSRS     r0,r4,#29
        0x00000d02:    4328        (C      ORRS     r0,r0,r5
        0x00000d04:    4665        eF      MOV      r5,r12
        0x00000d06:    00e4        ..      LSLS     r4,r4,#3
        0x00000d08:    1b2c        ,.      SUBS     r4,r5,r4
        0x00000d0a:    d202        ..      BCS      0xd12 ; __aeabi_ddiv + 634
        0x00000d0c:    2500        .%      MOVS     r5,#0
        0x00000d0e:    1c40        @.      ADDS     r0,r0,#1
        0x00000d10:    416e        nA      ADCS     r6,r6,r5
        0x00000d12:    9d01        ..      LDR      r5,[sp,#4]
        0x00000d14:    1a3f        ?.      SUBS     r7,r7,r0
        0x00000d16:    41b5        .A      SBCS     r5,r5,r6
        0x00000d18:    4628        (F      MOV      r0,r5
        0x00000d1a:    09bd        ..      LSRS     r5,r7,#6
        0x00000d1c:    0680        ..      LSLS     r0,r0,#26
        0x00000d1e:    4328        (C      ORRS     r0,r0,r5
        0x00000d20:    4684        .F      MOV      r12,r0
        0x00000d22:    09a0        ..      LSRS     r0,r4,#6
        0x00000d24:    06bf        ..      LSLS     r7,r7,#26
        0x00000d26:    024e        N.      LSLS     r6,r1,#9
        0x00000d28:    9906        ..      LDR      r1,[sp,#0x18]
        0x00000d2a:    06a4        ..      LSLS     r4,r4,#26
        0x00000d2c:    1876        v.      ADDS     r6,r6,r1
        0x00000d2e:    4307        .C      ORRS     r7,r7,r0
        0x00000d30:    9d07        ..      LDR      r5,[sp,#0x1c]
        0x00000d32:    2000        .       MOVS     r0,#0
        0x00000d34:    4168        hA      ADCS     r0,r0,r5
        0x00000d36:    990a        ..      LDR      r1,[sp,#0x28]
        0x00000d38:    9007        ..      STR      r0,[sp,#0x1c]
        0x00000d3a:    4319        .C      ORRS     r1,r1,r3
        0x00000d3c:    2000        .       MOVS     r0,#0
        0x00000d3e:    9b09        ..      LDR      r3,[sp,#0x24]
        0x00000d40:    9000        ..      STR      r0,[sp,#0]
        0x00000d42:    4660        `F      MOV      r0,r12
        0x00000d44:    19ff        ..      ADDS     r7,r7,r7
        0x00000d46:    4313        .C      ORRS     r3,r3,r2
        0x00000d48:    4140        @A      ADCS     r0,r0,r0
        0x00000d4a:    0fe2        ..      LSRS     r2,r4,#31
        0x00000d4c:    0064        d.      LSLS     r4,r4,#1
        0x00000d4e:    433a        :C      ORRS     r2,r2,r7
        0x00000d50:    46a4        .F      MOV      r12,r4
        0x00000d52:    4604        .F      MOV      r4,r0
        0x00000d54:    1ad7        ..      SUBS     r7,r2,r3
        0x00000d56:    418c        .A      SBCS     r4,r4,r1
        0x00000d58:    42a0        .B      CMP      r0,r4
        0x00000d5a:    d903        ..      BLS      0xd64 ; __aeabi_ddiv + 716
        0x00000d5c:    2001        .       MOVS     r0,#1
        0x00000d5e:    9000        ..      STR      r0,[sp,#0]
        0x00000d60:    4620         F      MOV      r0,r4
        0x00000d62:    463a        :F      MOV      r2,r7
        0x00000d64:    0fc7        ..      LSRS     r7,r0,#31
        0x00000d66:    1894        ..      ADDS     r4,r2,r2
        0x00000d68:    4140        @A      ADCS     r0,r0,r0
        0x00000d6a:    4662        bF      MOV      r2,r12
        0x00000d6c:    0fd2        ..      LSRS     r2,r2,#31
        0x00000d6e:    4322        "C      ORRS     r2,r2,r4
        0x00000d70:    4664        dF      MOV      r4,r12
        0x00000d72:    0064        d.      LSLS     r4,r4,#1
        0x00000d74:    9404        ..      STR      r4,[sp,#0x10]
        0x00000d76:    9c00        ..      LDR      r4,[sp,#0]
        0x00000d78:    46be        .F      MOV      lr,r7
        0x00000d7a:    0064        d.      LSLS     r4,r4,#1
        0x00000d7c:    1ad7        ..      SUBS     r7,r2,r3
        0x00000d7e:    46a4        .F      MOV      r12,r4
        0x00000d80:    4604        .F      MOV      r4,r0
        0x00000d82:    9702        ..      STR      r7,[sp,#8]
        0x00000d84:    418c        .A      SBCS     r4,r4,r1
        0x00000d86:    4677        wF      MOV      r7,lr
        0x00000d88:    2f00        ./      CMP      r7,#0
        0x00000d8a:    d101        ..      BNE      0xd90 ; __aeabi_ddiv + 760
        0x00000d8c:    42a0        .B      CMP      r0,r4
        0x00000d8e:    d904        ..      BLS      0xd9a ; __aeabi_ddiv + 770
        0x00000d90:    4660        `F      MOV      r0,r12
        0x00000d92:    1c40        @.      ADDS     r0,r0,#1
        0x00000d94:    4684        .F      MOV      r12,r0
        0x00000d96:    9a02        ..      LDR      r2,[sp,#8]
        0x00000d98:    4620         F      MOV      r0,r4
        0x00000d9a:    0fc4        ..      LSRS     r4,r0,#31
        0x00000d9c:    46a6        .F      MOV      lr,r4
        0x00000d9e:    1894        ..      ADDS     r4,r2,r2
        0x00000da0:    4140        @A      ADCS     r0,r0,r0
        0x00000da2:    9a04        ..      LDR      r2,[sp,#0x10]
        0x00000da4:    4605        .F      MOV      r5,r0
        0x00000da6:    0fd2        ..      LSRS     r2,r2,#31
        0x00000da8:    4322        "C      ORRS     r2,r2,r4
        0x00000daa:    4664        dF      MOV      r4,r12
        0x00000dac:    0064        d.      LSLS     r4,r4,#1
        0x00000dae:    1ad3        ..      SUBS     r3,r2,r3
        0x00000db0:    418d        .A      SBCS     r5,r5,r1
        0x00000db2:    4671        qF      MOV      r1,lr
        0x00000db4:    2900        .)      CMP      r1,#0
        0x00000db6:    d101        ..      BNE      0xdbc ; __aeabi_ddiv + 804
        0x00000db8:    42a8        .B      CMP      r0,r5
        0x00000dba:    d902        ..      BLS      0xdc2 ; __aeabi_ddiv + 810
        0x00000dbc:    4628        (F      MOV      r0,r5
        0x00000dbe:    461a        .F      MOV      r2,r3
        0x00000dc0:    1c64        d.      ADDS     r4,r4,#1
        0x00000dc2:    4310        .C      ORRS     r0,r0,r2
        0x00000dc4:    2201        ."      MOVS     r2,#1
        0x00000dc6:    2800        .(      CMP      r0,#0
        0x00000dc8:    d000        ..      BEQ      0xdcc ; __aeabi_ddiv + 820
        0x00000dca:    4316        .C      ORRS     r6,r6,r2
        0x00000dcc:    0261        a.      LSLS     r1,r4,#9
        0x00000dce:    2000        .       MOVS     r0,#0
        0x00000dd0:    9b07        ..      LDR      r3,[sp,#0x1c]
        0x00000dd2:    4604        .F      MOV      r4,r0
        0x00000dd4:    1989        ..      ADDS     r1,r1,r6
        0x00000dd6:    415c        \A      ADCS     r4,r4,r3
        0x00000dd8:    2302        .#      MOVS     r3,#2
        0x00000dda:    2c00        .,      CMP      r4,#0
        0x00000ddc:    db02        ..      BLT      0xde4 ; __aeabi_ddiv + 844
        0x00000dde:    1849        I.      ADDS     r1,r1,r1
        0x00000de0:    4613        .F      MOV      r3,r2
        0x00000de2:    4164        dA      ADCS     r4,r4,r4
        0x00000de4:    9d08        ..      LDR      r5,[sp,#0x20]
        0x00000de6:    0ace        ..      LSRS     r6,r1,#11
        0x00000de8:    142d        -.      ASRS     r5,r5,#16
        0x00000dea:    195d        ].      ADDS     r5,r3,r5
        0x00000dec:    054b        K.      LSLS     r3,r1,#21
        0x00000dee:    0567        g.      LSLS     r7,r4,#21
        0x00000df0:    0ae1        ..      LSRS     r1,r4,#11
        0x00000df2:    052c        ,.      LSLS     r4,r5,#20
        0x00000df4:    190d        ..      ADDS     r5,r1,r4
        0x00000df6:    9908        ..      LDR      r1,[sp,#0x20]
        0x00000df8:    433e        >C      ORRS     r6,r6,r7
        0x00000dfa:    07c9        ..      LSLS     r1,r1,#31
        0x00000dfc:    4069        i@      EORS     r1,r1,r5
        0x00000dfe:    2b00        .+      CMP      r3,#0
        0x00000e00:    d008        ..      BEQ      0xe14 ; __aeabi_ddiv + 892
        0x00000e02:    4093        .@      LSLS     r3,r3,r2
        0x00000e04:    d306        ..      BCC      0xe14 ; __aeabi_ddiv + 892
        0x00000e06:    2200        ."      MOVS     r2,#0
        0x00000e08:    1c76        v.      ADDS     r6,r6,#1
        0x00000e0a:    4151        QA      ADCS     r1,r1,r2
        0x00000e0c:    2b00        .+      CMP      r3,#0
        0x00000e0e:    d101        ..      BNE      0xe14 ; __aeabi_ddiv + 892
        0x00000e10:    0876        v.      LSRS     r6,r6,#1
        0x00000e12:    0076        v.      LSLS     r6,r6,#1
        0x00000e14:    4a1c        .J      LDR      r2,[pc,#112] ; [0xe88] = 0x7ff00000
        0x00000e16:    2d00        .-      CMP      r5,#0
        0x00000e18:    db43        C.      BLT      0xea2 ; __aeabi_ddiv + 1034
        0x00000e1a:    4215        .B      TST      r5,r2
        0x00000e1c:    d041        A.      BEQ      0xea2 ; __aeabi_ddiv + 1034
        0x00000e1e:    43aa        .C      BICS     r2,r2,r5
        0x00000e20:    d03f        ?.      BEQ      0xea2 ; __aeabi_ddiv + 1034
        0x00000e22:    4630        0F      MOV      r0,r6
        0x00000e24:    b011        ..      ADD      sp,sp,#0x44
        0x00000e26:    bdf0        ..      POP      {r4-r7,pc}
        0x00000e28:    460e        .F      MOV      r6,r1
        0x00000e2a:    1807        ..      ADDS     r7,r0,r0
        0x00000e2c:    414e        NA      ADCS     r6,r6,r1
        0x00000e2e:    4d17        .M      LDR      r5,[pc,#92] ; [0xe8c] = 0xffe00000
        0x00000e30:    427a        zB      RSBS     r2,r7,#0
        0x00000e32:    41b5        .A      SBCS     r5,r5,r6
        0x00000e34:    d31a        ..      BCC      0xe6c ; __aeabi_ddiv + 980
        0x00000e36:    9a0e        ..      LDR      r2,[sp,#0x38]
        0x00000e38:    461d        .F      MOV      r5,r3
        0x00000e3a:    1896        ..      ADDS     r6,r2,r2
        0x00000e3c:    415d        ]A      ADCS     r5,r5,r3
        0x00000e3e:    4a13        .J      LDR      r2,[pc,#76] ; [0xe8c] = 0xffe00000
        0x00000e40:    4276        vB      RSBS     r6,r6,#0
        0x00000e42:    41aa        .A      SBCS     r2,r2,r5
        0x00000e44:    d312        ..      BCC      0xe6c ; __aeabi_ddiv + 980
        0x00000e46:    2201        ."      MOVS     r2,#1
        0x00000e48:    0552        R.      LSLS     r2,r2,#21
        0x00000e4a:    004d        M.      LSLS     r5,r1,#1
        0x00000e4c:    42d5        .B      CMN      r5,r2
        0x00000e4e:    d10a        ..      BNE      0xe66 ; __aeabi_ddiv + 974
        0x00000e50:    005c        \.      LSLS     r4,r3,#1
        0x00000e52:    42d4        .B      CMN      r4,r2
        0x00000e54:    d00a        ..      BEQ      0xe6c ; __aeabi_ddiv + 980
        0x00000e56:    404b        K@      EORS     r3,r3,r1
        0x00000e58:    d502        ..      BPL      0xe60 ; __aeabi_ddiv + 968
        0x00000e5a:    0292        ..      LSLS     r2,r2,#10
        0x00000e5c:    4311        .C      ORRS     r1,r1,r2
        0x00000e5e:    e7e1        ..      B        0xe24 ; __aeabi_ddiv + 908
        0x00000e60:    0049        I.      LSLS     r1,r1,#1
        0x00000e62:    0849        I.      LSRS     r1,r1,#1
        0x00000e64:    e7de        ..      B        0xe24 ; __aeabi_ddiv + 908
        0x00000e66:    0fe1        ..      LSRS     r1,r4,#31
        0x00000e68:    07c9        ..      LSLS     r1,r1,#31
        0x00000e6a:    e018        ..      B        0xe9e ; __aeabi_ddiv + 1030
        0x00000e6c:    2000        .       MOVS     r0,#0
        0x00000e6e:    4908        .I      LDR      r1,[pc,#32] ; [0xe90] = 0x7ff80000
        0x00000e70:    e7d8        ..      B        0xe24 ; __aeabi_ddiv + 908
        0x00000e72:    4805        .H      LDR      r0,[pc,#20] ; [0xe88] = 0x7ff00000
        0x00000e74:    4201        .B      TST      r1,r0
        0x00000e76:    d10d        ..      BNE      0xe94 ; __aeabi_ddiv + 1020
        0x00000e78:    4203        .B      TST      r3,r0
        0x00000e7a:    d0f7        ..      BEQ      0xe6c ; __aeabi_ddiv + 980
        0x00000e7c:    e7f3        ..      B        0xe66 ; __aeabi_ddiv + 974
    $d
        0x00000e7e:    0000        ..      DCW    0
        0x00000e80:    07ff0000    ....    DCD    134152192
        0x00000e84:    00006370    pc..    DCD    25456
        0x00000e88:    7ff00000    ....    DCD    2146435072
        0x00000e8c:    ffe00000    ....    DCD    4292870144
        0x00000e90:    7ff80000    ....    DCD    2146959360
    $t
        0x00000e94:    4811        .H      LDR      r0,[pc,#68] ; [0xedc] = 0x7fffffff
        0x00000e96:    4621        !F      MOV      r1,r4
        0x00000e98:    4301        .C      ORRS     r1,r1,r0
        0x00000e9a:    12c0        ..      ASRS     r0,r0,#11
        0x00000e9c:    4041        A@      EORS     r1,r1,r0
        0x00000e9e:    2000        .       MOVS     r0,#0
        0x00000ea0:    e7c0        ..      B        0xe24 ; __aeabi_ddiv + 908
        0x00000ea2:    2301        .#      MOVS     r3,#1
        0x00000ea4:    9a08        ..      LDR      r2,[sp,#0x20]
        0x00000ea6:    069b        ..      LSLS     r3,r3,#26
        0x00000ea8:    429a        .B      CMP      r2,r3
        0x00000eaa:    dc05        ..      BGT      0xeb8 ; __aeabi_ddiv + 1056
        0x00000eac:    2203        ."      MOVS     r2,#3
        0x00000eae:    0752        R.      LSLS     r2,r2,#29
        0x00000eb0:    1889        ..      ADDS     r1,r1,r2
        0x00000eb2:    0fc9        ..      LSRS     r1,r1,#31
        0x00000eb4:    07c9        ..      LSLS     r1,r1,#31
        0x00000eb6:    e7b5        ..      B        0xe24 ; __aeabi_ddiv + 908
        0x00000eb8:    2205        ."      MOVS     r2,#5
        0x00000eba:    0752        R.      LSLS     r2,r2,#29
        0x00000ebc:    1889        ..      ADDS     r1,r1,r2
        0x00000ebe:    4a07        .J      LDR      r2,[pc,#28] ; [0xedc] = 0x7fffffff
        0x00000ec0:    4311        .C      ORRS     r1,r1,r2
        0x00000ec2:    12d2        ..      ASRS     r2,r2,#11
        0x00000ec4:    4051        Q@      EORS     r1,r1,r2
        0x00000ec6:    e7ad        ..      B        0xe24 ; __aeabi_ddiv + 908
    _drdiv
        0x00000ec8:    4059        Y@      EORS     r1,r1,r3
        0x00000eca:    4050        P@      EORS     r0,r0,r2
        0x00000ecc:    b510        ..      PUSH     {r4,lr}
        0x00000ece:    404b        K@      EORS     r3,r3,r1
        0x00000ed0:    4042        B@      EORS     r2,r2,r0
        0x00000ed2:    4059        Y@      EORS     r1,r1,r3
        0x00000ed4:    4050        P@      EORS     r0,r0,r2
        0x00000ed6:    f7fffddf    ....    BL       __aeabi_ddiv ; 0xa98
        0x00000eda:    bd10        ..      POP      {r4,pc}
    $d
        0x00000edc:    7fffffff    ....    DCD    2147483647
    $t
    .text
    __aeabi_d2iz
    _dfix
        0x00000ee0:    b530        0.      PUSH     {r4,r5,lr}
        0x00000ee2:    4603        .F      MOV      r3,r0
        0x00000ee4:    02ca        ..      LSLS     r2,r1,#11
        0x00000ee6:    0d40        @.      LSRS     r0,r0,#21
        0x00000ee8:    4310        .C      ORRS     r0,r0,r2
        0x00000eea:    4d16        .M      LDR      r5,[pc,#88] ; [0xf44] = 0x41e
        0x00000eec:    4c16        .L      LDR      r4,[pc,#88] ; [0xf48] = 0x80000000
        0x00000eee:    150a        ..      ASRS     r2,r1,#20
        0x00000ef0:    d002        ..      BEQ      0xef8 ; __aeabi_d2iz + 24
        0x00000ef2:    4320         C      ORRS     r0,r0,r4
        0x00000ef4:    2a00        .*      CMP      r2,#0
        0x00000ef6:    db06        ..      BLT      0xf06 ; __aeabi_d2iz + 38
        0x00000ef8:    1aaa        ..      SUBS     r2,r5,r2
        0x00000efa:    2a00        .*      CMP      r2,#0
        0x00000efc:    dd12        ..      BLE      0xf24 ; __aeabi_d2iz + 68
        0x00000efe:    40d0        .@      LSRS     r0,r0,r2
        0x00000f00:    2aff        .*      CMP      r2,#0xff
        0x00000f02:    dc0b        ..      BGT      0xf1c ; __aeabi_d2iz + 60
        0x00000f04:    bd30        0.      POP      {r4,r5,pc}
        0x00000f06:    0552        R.      LSLS     r2,r2,#21
        0x00000f08:    0d52        R.      LSRS     r2,r2,#21
        0x00000f0a:    d101        ..      BNE      0xf10 ; __aeabi_d2iz + 48
        0x00000f0c:    0040        @.      LSLS     r0,r0,#1
        0x00000f0e:    0840        @.      LSRS     r0,r0,#1
        0x00000f10:    1aaa        ..      SUBS     r2,r5,r2
        0x00000f12:    d407        ..      BMI      0xf24 ; __aeabi_d2iz + 68
        0x00000f14:    40d0        .@      LSRS     r0,r0,r2
        0x00000f16:    4240        @B      RSBS     r0,r0,#0
        0x00000f18:    2aff        .*      CMP      r2,#0xff
        0x00000f1a:    dd01        ..      BLE      0xf20 ; __aeabi_d2iz + 64
        0x00000f1c:    2000        .       MOVS     r0,#0
        0x00000f1e:    bd30        0.      POP      {r4,r5,pc}
        0x00000f20:    2800        .(      CMP      r0,#0
        0x00000f22:    ddfc        ..      BLE      0xf1e ; __aeabi_d2iz + 62
        0x00000f24:    004a        J.      LSLS     r2,r1,#1
        0x00000f26:    2b00        .+      CMP      r3,#0
        0x00000f28:    d001        ..      BEQ      0xf2e ; __aeabi_d2iz + 78
        0x00000f2a:    2001        .       MOVS     r0,#1
        0x00000f2c:    e000        ..      B        0xf30 ; __aeabi_d2iz + 80
        0x00000f2e:    2000        .       MOVS     r0,#0
        0x00000f30:    1810        ..      ADDS     r0,r2,r0
        0x00000f32:    2201        ."      MOVS     r2,#1
        0x00000f34:    0552        R.      LSLS     r2,r2,#21
        0x00000f36:    42d0        .B      CMN      r0,r2
        0x00000f38:    d8f0        ..      BHI      0xf1c ; __aeabi_d2iz + 60
        0x00000f3a:    17c8        ..      ASRS     r0,r1,#31
        0x00000f3c:    43c0        .C      MVNS     r0,r0
        0x00000f3e:    4060        `@      EORS     r0,r0,r4
        0x00000f40:    bd30        0.      POP      {r4,r5,pc}
    $d
        0x00000f42:    0000        ..      DCW    0
        0x00000f44:    0000041e    ....    DCD    1054
        0x00000f48:    80000000    ....    DCD    2147483648
    $t
    .text
    __aeabi_i2d_normalise
        0x00000f4c:    221f        ."      MOVS     r2,#0x1f
        0x00000f4e:    0c03        ..      LSRS     r3,r0,#16
        0x00000f50:    d102        ..      BNE      0xf58 ; __aeabi_i2d_normalise + 12
        0x00000f52:    220f        ."      MOVS     r2,#0xf
        0x00000f54:    0400        ..      LSLS     r0,r0,#16
        0x00000f56:    d002        ..      BEQ      0xf5e ; __aeabi_i2d_normalise + 18
        0x00000f58:    0e03        ..      LSRS     r3,r0,#24
        0x00000f5a:    d003        ..      BEQ      0xf64 ; __aeabi_i2d_normalise + 24
        0x00000f5c:    e004        ..      B        0xf68 ; __aeabi_i2d_normalise + 28
        0x00000f5e:    2000        .       MOVS     r0,#0
        0x00000f60:    4601        .F      MOV      r1,r0
        0x00000f62:    4770        pG      BX       lr
        0x00000f64:    0200        ..      LSLS     r0,r0,#8
        0x00000f66:    3a08        .:      SUBS     r2,r2,#8
        0x00000f68:    0f03        ..      LSRS     r3,r0,#28
        0x00000f6a:    d101        ..      BNE      0xf70 ; __aeabi_i2d_normalise + 36
        0x00000f6c:    0100        ..      LSLS     r0,r0,#4
        0x00000f6e:    1f12        ..      SUBS     r2,r2,#4
        0x00000f70:    0f83        ..      LSRS     r3,r0,#30
        0x00000f72:    d101        ..      BNE      0xf78 ; __aeabi_i2d_normalise + 44
        0x00000f74:    0080        ..      LSLS     r0,r0,#2
        0x00000f76:    1e92        ..      SUBS     r2,r2,#2
        0x00000f78:    2800        .(      CMP      r0,#0
        0x00000f7a:    db01        ..      BLT      0xf80 ; __aeabi_i2d_normalise + 52
        0x00000f7c:    0040        @.      LSLS     r0,r0,#1
        0x00000f7e:    1e52        R.      SUBS     r2,r2,#1
        0x00000f80:    0512        ..      LSLS     r2,r2,#20
        0x00000f82:    1851        Q.      ADDS     r1,r2,r1
        0x00000f84:    0542        B.      LSLS     r2,r0,#21
        0x00000f86:    12c0        ..      ASRS     r0,r0,#11
        0x00000f88:    1841        A.      ADDS     r1,r0,r1
        0x00000f8a:    4610        .F      MOV      r0,r2
        0x00000f8c:    4770        pG      BX       lr
    __aeabi_i2d
    _dflt
        0x00000f8e:    0fc1        ..      LSRS     r1,r0,#31
        0x00000f90:    07c9        ..      LSLS     r1,r1,#31
        0x00000f92:    d000        ..      BEQ      0xf96 ; __aeabi_i2d + 8
        0x00000f94:    4240        @B      RSBS     r0,r0,#0
        0x00000f96:    2201        ."      MOVS     r2,#1
        0x00000f98:    0792        ..      LSLS     r2,r2,#30
        0x00000f9a:    4311        .C      ORRS     r1,r1,r2
        0x00000f9c:    e7d6        ..      B        __aeabi_i2d_normalise ; 0xf4c
    __aeabi_ui2d
    _dfltu
        0x00000f9e:    2101        .!      MOVS     r1,#1
        0x00000fa0:    0789        ..      LSLS     r1,r1,#30
        0x00000fa2:    e7d3        ..      B        __aeabi_i2d_normalise ; 0xf4c
    .text
    __aeabi_dmul
    _dmul
        0x00000fa4:    b5f0        ..      PUSH     {r4-r7,lr}
        0x00000fa6:    4c93        .L      LDR      r4,[pc,#588] ; [0x11f4] = 0x7ff0000
        0x00000fa8:    090d        ..      LSRS     r5,r1,#4
        0x00000faa:    4626        &F      MOV      r6,r4
        0x00000fac:    46ac        .F      MOV      r12,r5
        0x00000fae:    43ae        .C      BICS     r6,r6,r5
        0x00000fb0:    460d        .F      MOV      r5,r1
        0x00000fb2:    405d        ]@      EORS     r5,r5,r3
        0x00000fb4:    b087        ..      SUB      sp,sp,#0x1c
        0x00000fb6:    2e00        ..      CMP      r6,#0
        0x00000fb8:    d07e        ~.      BEQ      0x10b8 ; __aeabi_dmul + 276
        0x00000fba:    091e        ..      LSRS     r6,r3,#4
        0x00000fbc:    4627        'F      MOV      r7,r4
        0x00000fbe:    43b7        .C      BICS     r7,r7,r6
        0x00000fc0:    d0fa        ..      BEQ      0xfb8 ; __aeabi_dmul + 20
        0x00000fc2:    4667        gF      MOV      r7,r12
        0x00000fc4:    4027        '@      ANDS     r7,r7,r4
        0x00000fc6:    0fed        ..      LSRS     r5,r5,#31
        0x00000fc8:    433d        =C      ORRS     r5,r5,r7
        0x00000fca:    4026        &@      ANDS     r6,r6,r4
        0x00000fcc:    d075        u.      BEQ      0x10ba ; __aeabi_dmul + 278
        0x00000fce:    0124        $.      LSLS     r4,r4,#4
        0x00000fd0:    4221        !B      TST      r1,r4
        0x00000fd2:    d0fb        ..      BEQ      0xfcc ; __aeabi_dmul + 40
        0x00000fd4:    1974        t.      ADDS     r4,r6,r5
        0x00000fd6:    25ff        .%      MOVS     r5,#0xff
        0x00000fd8:    04ad        ..      LSLS     r5,r5,#18
        0x00000fda:    1b64        d.      SUBS     r4,r4,r5
        0x00000fdc:    9404        ..      STR      r4,[sp,#0x10]
        0x00000fde:    02cc        ..      LSLS     r4,r1,#11
        0x00000fe0:    02d9        ..      LSLS     r1,r3,#11
        0x00000fe2:    2301        .#      MOVS     r3,#1
        0x00000fe4:    051b        ..      LSLS     r3,r3,#20
        0x00000fe6:    0ac9        ..      LSRS     r1,r1,#11
        0x00000fe8:    4319        .C      ORRS     r1,r1,r3
        0x00000fea:    0ae4        ..      LSRS     r4,r4,#11
        0x00000fec:    431c        .C      ORRS     r4,r4,r3
        0x00000fee:    010f        ..      LSLS     r7,r1,#4
        0x00000ff0:    0f11        ..      LSRS     r1,r2,#28
        0x00000ff2:    0124        $.      LSLS     r4,r4,#4
        0x00000ff4:    0f03        ..      LSRS     r3,r0,#28
        0x00000ff6:    431c        .C      ORRS     r4,r4,r3
        0x00000ff8:    0105        ..      LSLS     r5,r0,#4
        0x00000ffa:    0116        ..      LSLS     r6,r2,#4
        0x00000ffc:    430f        .C      ORRS     r7,r7,r1
        0x00000ffe:    0ba2        ..      LSRS     r2,r4,#14
        0x00001000:    092d        -.      LSRS     r5,r5,#4
        0x00001002:    0390        ..      LSLS     r0,r2,#14
        0x00001004:    4384        .C      BICS     r4,r4,r0
        0x00001006:    0ba9        ..      LSRS     r1,r5,#14
        0x00001008:    0388        ..      LSLS     r0,r1,#14
        0x0000100a:    4385        .C      BICS     r5,r5,r0
        0x0000100c:    0bbb        ..      LSRS     r3,r7,#14
        0x0000100e:    0398        ..      LSLS     r0,r3,#14
        0x00001010:    4387        .C      BICS     r7,r7,r0
        0x00001012:    0936        6.      LSRS     r6,r6,#4
        0x00001014:    46bc        .F      MOV      r12,r7
        0x00001016:    0bb0        ..      LSRS     r0,r6,#14
        0x00001018:    0387        ..      LSLS     r7,r0,#14
        0x0000101a:    43be        .C      BICS     r6,r6,r7
        0x0000101c:    460f        .F      MOV      r7,r1
        0x0000101e:    4347        GC      MULS     r7,r0,r7
        0x00001020:    9703        ..      STR      r7,[sp,#0xc]
        0x00001022:    462f        /F      MOV      r7,r5
        0x00001024:    4377        wC      MULS     r7,r6,r7
        0x00001026:    9602        ..      STR      r6,[sp,#8]
        0x00001028:    46be        .F      MOV      lr,r7
        0x0000102a:    9f02        ..      LDR      r7,[sp,#8]
        0x0000102c:    194e        N.      ADDS     r6,r1,r5
        0x0000102e:    19c7        ..      ADDS     r7,r0,r7
        0x00001030:    9606        ..      STR      r6,[sp,#0x18]
        0x00001032:    437e        ~C      MULS     r6,r7,r6
        0x00001034:    9705        ..      STR      r7,[sp,#0x14]
        0x00001036:    9f03        ..      LDR      r7,[sp,#0xc]
        0x00001038:    1bf7        ..      SUBS     r7,r6,r7
        0x0000103a:    4676        vF      MOV      r6,lr
        0x0000103c:    1bbe        ..      SUBS     r6,r7,r6
        0x0000103e:    4677        wF      MOV      r7,lr
        0x00001040:    013f        ?.      LSLS     r7,r7,#4
        0x00001042:    9700        ..      STR      r7,[sp,#0]
        0x00001044:    9601        ..      STR      r6,[sp,#4]
        0x00001046:    9f03        ..      LDR      r7,[sp,#0xc]
        0x00001048:    0bb6        ..      LSRS     r6,r6,#14
        0x0000104a:    19f6        ..      ADDS     r6,r6,r7
        0x0000104c:    46b6        .F      MOV      lr,r6
        0x0000104e:    9e01        ..      LDR      r6,[sp,#4]
        0x00001050:    9f00        ..      LDR      r7,[sp,#0]
        0x00001052:    04b6        ..      LSLS     r6,r6,#18
        0x00001054:    19bf        ..      ADDS     r7,r7,r6
        0x00001056:    d302        ..      BCC      0x105e ; __aeabi_dmul + 186
        0x00001058:    4676        vF      MOV      r6,lr
        0x0000105a:    1c76        v.      ADDS     r6,r6,#1
        0x0000105c:    46b6        .F      MOV      lr,r6
        0x0000105e:    4676        vF      MOV      r6,lr
        0x00001060:    0076        v.      LSLS     r6,r6,#1
        0x00001062:    2f00        ./      CMP      r7,#0
        0x00001064:    d001        ..      BEQ      0x106a ; __aeabi_dmul + 198
        0x00001066:    2701        .'      MOVS     r7,#1
        0x00001068:    433e        >C      ORRS     r6,r6,r7
        0x0000106a:    4667        gF      MOV      r7,r12
        0x0000106c:    437d        }C      MULS     r5,r7,r5
        0x0000106e:    46ae        .F      MOV      lr,r5
        0x00001070:    9f02        ..      LDR      r7,[sp,#8]
        0x00001072:    4625        %F      MOV      r5,r4
        0x00001074:    437d        }C      MULS     r5,r7,r5
        0x00001076:    9500        ..      STR      r5,[sp,#0]
        0x00001078:    006d        m.      LSLS     r5,r5,#1
        0x0000107a:    19ae        ..      ADDS     r6,r5,r6
        0x0000107c:    4675        uF      MOV      r5,lr
        0x0000107e:    006d        m.      LSLS     r5,r5,#1
        0x00001080:    19af        ..      ADDS     r7,r5,r6
        0x00001082:    4665        eF      MOV      r5,r12
        0x00001084:    195d        ].      ADDS     r5,r3,r5
        0x00001086:    9e06        ..      LDR      r6,[sp,#0x18]
        0x00001088:    9503        ..      STR      r5,[sp,#0xc]
        0x0000108a:    436e        nC      MULS     r6,r5,r6
        0x0000108c:    4675        uF      MOV      r5,lr
        0x0000108e:    1b75        u.      SUBS     r5,r6,r5
        0x00001090:    46ae        .F      MOV      lr,r5
        0x00001092:    1915        ..      ADDS     r5,r2,r4
        0x00001094:    9e05        ..      LDR      r6,[sp,#0x14]
        0x00001096:    9502        ..      STR      r5,[sp,#8]
        0x00001098:    436e        nC      MULS     r6,r5,r6
        0x0000109a:    9d00        ..      LDR      r5,[sp,#0]
        0x0000109c:    4359        YC      MULS     r1,r3,r1
        0x0000109e:    1b76        v.      SUBS     r6,r6,r5
        0x000010a0:    4675        uF      MOV      r5,lr
        0x000010a2:    1a6d        m.      SUBS     r5,r5,r1
        0x000010a4:    4350        PC      MULS     r0,r2,r0
        0x000010a6:    4686        .F      MOV      lr,r0
        0x000010a8:    1a30        0.      SUBS     r0,r6,r0
        0x000010aa:    9005        ..      STR      r0,[sp,#0x14]
        0x000010ac:    9501        ..      STR      r5,[sp,#4]
        0x000010ae:    06f8        ..      LSLS     r0,r7,#27
        0x000010b0:    d006        ..      BEQ      0x10c0 ; __aeabi_dmul + 284
        0x000010b2:    097d        }.      LSRS     r5,r7,#5
        0x000010b4:    2001        .       MOVS     r0,#1
        0x000010b6:    e001        ..      B        0x10bc ; __aeabi_dmul + 280
        0x000010b8:    e07d        }.      B        0x11b6 ; __aeabi_dmul + 530
        0x000010ba:    e079        y.      B        0x11b0 ; __aeabi_dmul + 524
        0x000010bc:    4305        .C      ORRS     r5,r5,r0
        0x000010be:    e000        ..      B        0x10c2 ; __aeabi_dmul + 286
        0x000010c0:    097d        }.      LSRS     r5,r7,#5
        0x000010c2:    0a0e        ..      LSRS     r6,r1,#8
        0x000010c4:    0609        ..      LSLS     r1,r1,#24
        0x000010c6:    2000        .       MOVS     r0,#0
        0x000010c8:    194d        M.      ADDS     r5,r1,r5
        0x000010ca:    4146        FA      ADCS     r6,r6,r0
        0x000010cc:    9600        ..      STR      r6,[sp,#0]
        0x000010ce:    4676        vF      MOV      r6,lr
        0x000010d0:    0a31        1.      LSRS     r1,r6,#8
        0x000010d2:    0637        7.      LSLS     r7,r6,#24
        0x000010d4:    9e00        ..      LDR      r6,[sp,#0]
        0x000010d6:    197f        ..      ADDS     r7,r7,r5
        0x000010d8:    4171        qA      ADCS     r1,r1,r6
        0x000010da:    468e        .F      MOV      lr,r1
        0x000010dc:    9901        ..      LDR      r1,[sp,#4]
        0x000010de:    0d8d        ..      LSRS     r5,r1,#22
        0x000010e0:    028e        ..      LSLS     r6,r1,#10
        0x000010e2:    4671        qF      MOV      r1,lr
        0x000010e4:    19f6        ..      ADDS     r6,r6,r7
        0x000010e6:    414d        MA      ADCS     r5,r5,r1
        0x000010e8:    46ae        .F      MOV      lr,r5
        0x000010ea:    9d05        ..      LDR      r5,[sp,#0x14]
        0x000010ec:    0da9        ..      LSRS     r1,r5,#22
        0x000010ee:    02af        ..      LSLS     r7,r5,#10
        0x000010f0:    4675        uF      MOV      r5,lr
        0x000010f2:    19be        ..      ADDS     r6,r7,r6
        0x000010f4:    4169        iA      ADCS     r1,r1,r5
        0x000010f6:    435a        ZC      MULS     r2,r3,r2
        0x000010f8:    4663        cF      MOV      r3,r12
        0x000010fa:    435c        \C      MULS     r4,r3,r4
        0x000010fc:    9d03        ..      LDR      r5,[sp,#0xc]
        0x000010fe:    9b02        ..      LDR      r3,[sp,#8]
        0x00001100:    436b        kC      MULS     r3,r5,r3
        0x00001102:    1a9b        ..      SUBS     r3,r3,r2
        0x00001104:    1b1d        ..      SUBS     r5,r3,r4
        0x00001106:    0eab        ..      LSRS     r3,r5,#26
        0x00001108:    01ad        ..      LSLS     r5,r5,#6
        0x0000110a:    186d        m.      ADDS     r5,r5,r1
        0x0000110c:    4143        CA      ADCS     r3,r3,r0
        0x0000110e:    0b11        ..      LSRS     r1,r2,#12
        0x00001110:    0512        ..      LSLS     r2,r2,#20
        0x00001112:    1952        R.      ADDS     r2,r2,r5
        0x00001114:    4159        YA      ADCS     r1,r1,r3
        0x00001116:    0a23        #.      LSRS     r3,r4,#8
        0x00001118:    0624        $.      LSLS     r4,r4,#24
        0x0000111a:    19a5        ..      ADDS     r5,r4,r6
        0x0000111c:    4153        SA      ADCS     r3,r3,r2
        0x0000111e:    4293        .B      CMP      r3,r2
        0x00001120:    d200        ..      BCS      0x1124 ; __aeabi_dmul + 384
        0x00001122:    1c49        I.      ADDS     r1,r1,#1
        0x00001124:    2201        ."      MOVS     r2,#1
        0x00001126:    0252        R.      LSLS     r2,r2,#9
        0x00001128:    4291        .B      CMP      r1,r2
        0x0000112a:    d303        ..      BCC      0x1134 ; __aeabi_dmul + 400
        0x0000112c:    2215        ."      MOVS     r2,#0x15
        0x0000112e:    2602        .&      MOVS     r6,#2
        0x00001130:    43f6        .C      MVNS     r6,r6
        0x00001132:    e002        ..      B        0x113a ; __aeabi_dmul + 406
        0x00001134:    2214        ."      MOVS     r2,#0x14
        0x00001136:    2603        .&      MOVS     r6,#3
        0x00001138:    43f6        .C      MVNS     r6,r6
        0x0000113a:    2420         $      MOVS     r4,#0x20
        0x0000113c:    1aa4        ..      SUBS     r4,r4,r2
        0x0000113e:    40a1        .@      LSLS     r1,r1,r4
        0x00001140:    461f        .F      MOV      r7,r3
        0x00001142:    40a7        .@      LSLS     r7,r7,r4
        0x00001144:    46bc        .F      MOV      r12,r7
        0x00001146:    461f        .F      MOV      r7,r3
        0x00001148:    40d7        .@      LSRS     r7,r7,r2
        0x0000114a:    430f        .C      ORRS     r7,r7,r1
        0x0000114c:    4629        )F      MOV      r1,r5
        0x0000114e:    40d1        .@      LSRS     r1,r1,r2
        0x00001150:    4662        bF      MOV      r2,r12
        0x00001152:    4311        .C      ORRS     r1,r1,r2
        0x00001154:    9a04        ..      LDR      r2,[sp,#0x10]
        0x00001156:    1412        ..      ASRS     r2,r2,#16
        0x00001158:    18b2        ..      ADDS     r2,r6,r2
        0x0000115a:    0513        ..      LSLS     r3,r2,#20
        0x0000115c:    9e04        ..      LDR      r6,[sp,#0x10]
        0x0000115e:    18fb        ..      ADDS     r3,r7,r3
        0x00001160:    07f6        ..      LSLS     r6,r6,#31
        0x00001162:    4073        s@      EORS     r3,r3,r6
        0x00001164:    40a5        .@      LSLS     r5,r5,r4
        0x00001166:    d009        ..      BEQ      0x117c ; __aeabi_dmul + 472
        0x00001168:    2401        .$      MOVS     r4,#1
        0x0000116a:    40a5        .@      LSLS     r5,r5,r4
        0x0000116c:    d306        ..      BCC      0x117c ; __aeabi_dmul + 472
        0x0000116e:    2400        .$      MOVS     r4,#0
        0x00001170:    1c49        I.      ADDS     r1,r1,#1
        0x00001172:    4163        cA      ADCS     r3,r3,r4
        0x00001174:    2d00        .-      CMP      r5,#0
        0x00001176:    d101        ..      BNE      0x117c ; __aeabi_dmul + 472
        0x00001178:    0849        I.      LSRS     r1,r1,#1
        0x0000117a:    0049        I.      LSLS     r1,r1,#1
        0x0000117c:    4c1e        .L      LDR      r4,[pc,#120] ; [0x11f8] = 0x7fe
        0x0000117e:    42a2        .B      CMP      r2,r4
        0x00001180:    d203        ..      BCS      0x118a ; __aeabi_dmul + 486
        0x00001182:    4608        .F      MOV      r0,r1
        0x00001184:    4619        .F      MOV      r1,r3
        0x00001186:    b007        ..      ADD      sp,sp,#0x1c
        0x00001188:    bdf0        ..      POP      {r4-r7,pc}
        0x0000118a:    2201        ."      MOVS     r2,#1
        0x0000118c:    9904        ..      LDR      r1,[sp,#0x10]
        0x0000118e:    0692        ..      LSLS     r2,r2,#26
        0x00001190:    4291        .B      CMP      r1,r2
        0x00001192:    db07        ..      BLT      0x11a4 ; __aeabi_dmul + 512
        0x00001194:    2105        .!      MOVS     r1,#5
        0x00001196:    0749        I.      LSLS     r1,r1,#29
        0x00001198:    4a18        .J      LDR      r2,[pc,#96] ; [0x11fc] = 0x7fffffff
        0x0000119a:    1859        Y.      ADDS     r1,r3,r1
        0x0000119c:    4311        .C      ORRS     r1,r1,r2
        0x0000119e:    12d2        ..      ASRS     r2,r2,#11
        0x000011a0:    4051        Q@      EORS     r1,r1,r2
        0x000011a2:    e7f0        ..      B        0x1186 ; __aeabi_dmul + 482
        0x000011a4:    2103        .!      MOVS     r1,#3
        0x000011a6:    0749        I.      LSLS     r1,r1,#29
        0x000011a8:    1859        Y.      ADDS     r1,r3,r1
        0x000011aa:    0fc9        ..      LSRS     r1,r1,#31
        0x000011ac:    07c9        ..      LSLS     r1,r1,#31
        0x000011ae:    e7ea        ..      B        0x1186 ; __aeabi_dmul + 482
        0x000011b0:    2000        .       MOVS     r0,#0
        0x000011b2:    07e9        ..      LSLS     r1,r5,#31
        0x000011b4:    e7e7        ..      B        0x1186 ; __aeabi_dmul + 482
        0x000011b6:    1806        ..      ADDS     r6,r0,r0
        0x000011b8:    460c        .F      MOV      r4,r1
        0x000011ba:    414c        LA      ADCS     r4,r4,r1
        0x000011bc:    4810        .H      LDR      r0,[pc,#64] ; [0x1200] = 0xffe00000
        0x000011be:    4276        vB      RSBS     r6,r6,#0
        0x000011c0:    41a0        .A      SBCS     r0,r0,r4
        0x000011c2:    d314        ..      BCC      0x11ee ; __aeabi_dmul + 586
        0x000011c4:    1894        ..      ADDS     r4,r2,r2
        0x000011c6:    461a        .F      MOV      r2,r3
        0x000011c8:    415a        ZA      ADCS     r2,r2,r3
        0x000011ca:    480d        .H      LDR      r0,[pc,#52] ; [0x1200] = 0xffe00000
        0x000011cc:    4264        dB      RSBS     r4,r4,#0
        0x000011ce:    4190        .A      SBCS     r0,r0,r2
        0x000011d0:    d30d        ..      BCC      0x11ee ; __aeabi_dmul + 586
        0x000011d2:    2001        .       MOVS     r0,#1
        0x000011d4:    0049        I.      LSLS     r1,r1,#1
        0x000011d6:    0540        @.      LSLS     r0,r0,#21
        0x000011d8:    4281        .B      CMP      r1,r0
        0x000011da:    d308        ..      BCC      0x11ee ; __aeabi_dmul + 586
        0x000011dc:    0059        Y.      LSLS     r1,r3,#1
        0x000011de:    4281        .B      CMP      r1,r0
        0x000011e0:    d305        ..      BCC      0x11ee ; __aeabi_dmul + 586
        0x000011e2:    0fe9        ..      LSRS     r1,r5,#31
        0x000011e4:    4a07        .J      LDR      r2,[pc,#28] ; [0x1204] = 0x7ff00000
        0x000011e6:    07c9        ..      LSLS     r1,r1,#31
        0x000011e8:    2000        .       MOVS     r0,#0
        0x000011ea:    4311        .C      ORRS     r1,r1,r2
        0x000011ec:    e7cb        ..      B        0x1186 ; __aeabi_dmul + 482
        0x000011ee:    2000        .       MOVS     r0,#0
        0x000011f0:    4905        .I      LDR      r1,[pc,#20] ; [0x1208] = 0x7ff80000
        0x000011f2:    e7c8        ..      B        0x1186 ; __aeabi_dmul + 482
    $d
        0x000011f4:    07ff0000    ....    DCD    134152192
        0x000011f8:    000007fe    ....    DCD    2046
        0x000011fc:    7fffffff    ....    DCD    2147483647
        0x00001200:    ffe00000    ....    DCD    4292870144
        0x00001204:    7ff00000    ....    DCD    2146435072
        0x00001208:    7ff80000    ....    DCD    2146959360
    $t
    .text
    __aeabi_f2d
    _f2d
        0x0000120c:    2101        .!      MOVS     r1,#1
        0x0000120e:    05c9        ..      LSLS     r1,r1,#23
        0x00001210:    2301        .#      MOVS     r3,#1
        0x00001212:    1841        A.      ADDS     r1,r0,r1
        0x00001214:    0042        B.      LSLS     r2,r0,#1
        0x00001216:    061b        ..      LSLS     r3,r3,#24
        0x00001218:    18d3        ..      ADDS     r3,r2,r3
        0x0000121a:    0e5b        [.      LSRS     r3,r3,#25
        0x0000121c:    d00a        ..      BEQ      0x1234 ; __aeabi_f2d + 40
        0x0000121e:    10c1        ..      ASRS     r1,r0,#3
        0x00001220:    2207        ."      MOVS     r2,#7
        0x00001222:    06d2        ..      LSLS     r2,r2,#27
        0x00001224:    1889        ..      ADDS     r1,r1,r2
        0x00001226:    0740        @.      LSLS     r0,r0,#29
        0x00001228:    4252        RB      RSBS     r2,r2,#0
        0x0000122a:    42d1        .B      CMN      r1,r2
        0x0000122c:    d501        ..      BPL      0x1232 ; __aeabi_f2d + 38
        0x0000122e:    0052        R.      LSLS     r2,r2,#1
        0x00001230:    1889        ..      ADDS     r1,r1,r2
        0x00001232:    4770        pG      BX       lr
        0x00001234:    0209        ..      LSLS     r1,r1,#8
        0x00001236:    d508        ..      BPL      0x124a ; __aeabi_f2d + 62
        0x00001238:    4601        .F      MOV      r1,r0
        0x0000123a:    2a00        .*      CMP      r2,#0
        0x0000123c:    d003        ..      BEQ      0x1246 ; __aeabi_f2d + 58
        0x0000123e:    0fc1        ..      LSRS     r1,r0,#31
        0x00001240:    07c9        ..      LSLS     r1,r1,#31
        0x00001242:    2000        .       MOVS     r0,#0
        0x00001244:    4770        pG      BX       lr
        0x00001246:    4610        .F      MOV      r0,r2
        0x00001248:    4770        pG      BX       lr
        0x0000124a:    0242        B.      LSLS     r2,r0,#9
        0x0000124c:    d002        ..      BEQ      0x1254 ; __aeabi_f2d + 72
        0x0000124e:    2000        .       MOVS     r0,#0
        0x00001250:    4902        .I      LDR      r1,[pc,#8] ; [0x125c] = 0x7ff80000
        0x00001252:    4770        pG      BX       lr
        0x00001254:    2107        .!      MOVS     r1,#7
        0x00001256:    0509        ..      LSLS     r1,r1,#20
        0x00001258:    4301        .C      ORRS     r1,r1,r0
        0x0000125a:    e7f4        ..      B        0x1246 ; __aeabi_f2d + 58
    $d
        0x0000125c:    7ff80000    ....    DCD    2146959360
    $t
    .text
    __aeabi_fdiv
    _fdiv
        0x00001260:    b570        p.      PUSH     {r4-r6,lr}
        0x00001262:    24ff        .$      MOVS     r4,#0xff
        0x00001264:    0424        $.      LSLS     r4,r4,#16
        0x00001266:    09c6        ..      LSRS     r6,r0,#7
        0x00001268:    25ff        .%      MOVS     r5,#0xff
        0x0000126a:    4026        &@      ANDS     r6,r6,r4
        0x0000126c:    3501        .5      ADDS     r5,#1
        0x0000126e:    432e        .C      ORRS     r6,r6,r5
        0x00001270:    09c2        ..      LSRS     r2,r0,#7
        0x00001272:    09cb        ..      LSRS     r3,r1,#7
        0x00001274:    4605        .F      MOV      r5,r0
        0x00001276:    4022        "@      ANDS     r2,r2,r4
        0x00001278:    4023        #@      ANDS     r3,r3,r4
        0x0000127a:    404d        M@      EORS     r5,r5,r1
        0x0000127c:    2a00        .*      CMP      r2,#0
        0x0000127e:    d06b        k.      BEQ      0x1358 ; __aeabi_fdiv + 248
        0x00001280:    2b00        .+      CMP      r3,#0
        0x00001282:    d069        i.      BEQ      0x1358 ; __aeabi_fdiv + 248
        0x00001284:    42a2        .B      CMP      r2,r4
        0x00001286:    d067        g.      BEQ      0x1358 ; __aeabi_fdiv + 248
        0x00001288:    42a3        .B      CMP      r3,r4
        0x0000128a:    d065        e.      BEQ      0x1358 ; __aeabi_fdiv + 248
        0x0000128c:    2d00        .-      CMP      r5,#0
        0x0000128e:    da00        ..      BGE      0x1292 ; __aeabi_fdiv + 50
        0x00001290:    4632        2F      MOV      r2,r6
        0x00001292:    2401        .$      MOVS     r4,#1
        0x00001294:    05e4        ..      LSLS     r4,r4,#23
        0x00001296:    4321        !C      ORRS     r1,r1,r4
        0x00001298:    4320         C      ORRS     r0,r0,r4
        0x0000129a:    0209        ..      LSLS     r1,r1,#8
        0x0000129c:    0200        ..      LSLS     r0,r0,#8
        0x0000129e:    0a09        ..      LSRS     r1,r1,#8
        0x000012a0:    1ad2        ..      SUBS     r2,r2,r3
        0x000012a2:    0a00        ..      LSRS     r0,r0,#8
        0x000012a4:    0c4b        K.      LSRS     r3,r1,#17
        0x000012a6:    247f        .$      MOVS     r4,#0x7f
        0x000012a8:    1ae3        ..      SUBS     r3,r4,r3
        0x000012aa:    4c43        CL      LDR      r4,[pc,#268] ; [0x13b8] = 0x5c48
        0x000012ac:    447c        |D      ADD      r4,r4,pc
        0x000012ae:    5ce3        .\      LDRB     r3,[r4,r3]
        0x000012b0:    247d        }$      MOVS     r4,#0x7d
        0x000012b2:    0424        $.      LSLS     r4,r4,#16
        0x000012b4:    1912        ..      ADDS     r2,r2,r4
        0x000012b6:    1414        ..      ASRS     r4,r2,#16
        0x000012b8:    005b        [.      LSLS     r3,r3,#1
        0x000012ba:    18a2        ..      ADDS     r2,r4,r2
        0x000012bc:    4288        .B      CMP      r0,r1
        0x000012be:    d301        ..      BCC      0x12c4 ; __aeabi_fdiv + 100
        0x000012c0:    1c52        R.      ADDS     r2,r2,#1
        0x000012c2:    e000        ..      B        0x12c6 ; __aeabi_fdiv + 102
        0x000012c4:    0040        @.      LSLS     r0,r0,#1
        0x000012c6:    4249        IB      RSBS     r1,r1,#0
        0x000012c8:    460c        .F      MOV      r4,r1
        0x000012ca:    435c        \C      MULS     r4,r3,r4
        0x000012cc:    1124        $.      ASRS     r4,r4,#4
        0x000012ce:    435c        \C      MULS     r4,r3,r4
        0x000012d0:    01db        ..      LSLS     r3,r3,#7
        0x000012d2:    1564        d.      ASRS     r4,r4,#21
        0x000012d4:    18e3        ..      ADDS     r3,r4,r3
        0x000012d6:    0a04        ..      LSRS     r4,r0,#8
        0x000012d8:    435c        \C      MULS     r4,r3,r4
        0x000012da:    02c5        ..      LSLS     r5,r0,#11
        0x000012dc:    0d20         .      LSRS     r0,r4,#20
        0x000012de:    460c        .F      MOV      r4,r1
        0x000012e0:    4344        DC      MULS     r4,r0,r4
        0x000012e2:    1964        d.      ADDS     r4,r4,r5
        0x000012e4:    0a25        %.      LSRS     r5,r4,#8
        0x000012e6:    435d        ]C      MULS     r5,r3,r5
        0x000012e8:    0323        #.      LSLS     r3,r4,#12
        0x000012ea:    0cec        ..      LSRS     r4,r5,#19
        0x000012ec:    460d        .F      MOV      r5,r1
        0x000012ee:    4365        eC      MULS     r5,r4,r5
        0x000012f0:    0300        ..      LSLS     r0,r0,#12
        0x000012f2:    1900        ..      ADDS     r0,r0,r4
        0x000012f4:    18eb        ..      ADDS     r3,r5,r3
        0x000012f6:    424c        LB      RSBS     r4,r1,#0
        0x000012f8:    42a3        .B      CMP      r3,r4
        0x000012fa:    d301        ..      BCC      0x1300 ; __aeabi_fdiv + 160
        0x000012fc:    185b        [.      ADDS     r3,r3,r1
        0x000012fe:    1c40        @.      ADDS     r0,r0,#1
        0x00001300:    05d4        ..      LSLS     r4,r2,#23
        0x00001302:    1820         .      ADDS     r0,r4,r0
        0x00001304:    2b00        .+      CMP      r3,#0
        0x00001306:    d007        ..      BEQ      0x1318 ; __aeabi_fdiv + 184
        0x00001308:    005b        [.      LSLS     r3,r3,#1
        0x0000130a:    18c9        ..      ADDS     r1,r1,r3
        0x0000130c:    d304        ..      BCC      0x1318 ; __aeabi_fdiv + 184
        0x0000130e:    1c40        @.      ADDS     r0,r0,#1
        0x00001310:    2900        .)      CMP      r1,#0
        0x00001312:    d101        ..      BNE      0x1318 ; __aeabi_fdiv + 184
        0x00001314:    0840        @.      LSRS     r0,r0,#1
        0x00001316:    0040        @.      LSLS     r0,r0,#1
        0x00001318:    213f        ?!      MOVS     r1,#0x3f
        0x0000131a:    0489        ..      LSLS     r1,r1,#18
        0x0000131c:    428a        .B      CMP      r2,r1
        0x0000131e:    d309        ..      BCC      0x1334 ; __aeabi_fdiv + 212
        0x00001320:    2a00        .*      CMP      r2,#0
        0x00001322:    dc08        ..      BGT      0x1336 ; __aeabi_fdiv + 214
        0x00001324:    0611        ..      LSLS     r1,r2,#24
        0x00001326:    0f09        ..      LSRS     r1,r1,#28
        0x00001328:    d004        ..      BEQ      0x1334 ; __aeabi_fdiv + 212
        0x0000132a:    2103        .!      MOVS     r1,#3
        0x0000132c:    0749        I.      LSLS     r1,r1,#29
        0x0000132e:    1840        @.      ADDS     r0,r0,r1
        0x00001330:    0fc0        ..      LSRS     r0,r0,#31
        0x00001332:    07c0        ..      LSLS     r0,r0,#31
        0x00001334:    bd70        p.      POP      {r4-r6,pc}
        0x00001336:    2201        ."      MOVS     r2,#1
        0x00001338:    0041        A.      LSLS     r1,r0,#1
        0x0000133a:    0612        ..      LSLS     r2,r2,#24
        0x0000133c:    1889        ..      ADDS     r1,r1,r2
        0x0000133e:    227f        ."      MOVS     r2,#0x7f
        0x00001340:    0652        R.      LSLS     r2,r2,#25
        0x00001342:    4291        .B      CMP      r1,r2
        0x00001344:    d2f6        ..      BCS      0x1334 ; __aeabi_fdiv + 212
        0x00001346:    2105        .!      MOVS     r1,#5
        0x00001348:    0749        I.      LSLS     r1,r1,#29
        0x0000134a:    42c8        .B      CMN      r0,r1
        0x0000134c:    d501        ..      BPL      0x1352 ; __aeabi_fdiv + 242
        0x0000134e:    1090        ..      ASRS     r0,r2,#2
        0x00001350:    bd70        p.      POP      {r4-r6,pc}
        0x00001352:    20ff        .       MOVS     r0,#0xff
        0x00001354:    05c0        ..      LSLS     r0,r0,#23
        0x00001356:    bd70        p.      POP      {r4-r6,pc}
        0x00001358:    2d00        .-      CMP      r5,#0
        0x0000135a:    da00        ..      BGE      0x135e ; __aeabi_fdiv + 254
        0x0000135c:    4632        2F      MOV      r2,r6
        0x0000135e:    4e17        .N      LDR      r6,[pc,#92] ; [0x13bc] = 0x7fc00000
        0x00001360:    42a2        .B      CMP      r2,r4
        0x00001362:    d207        ..      BCS      0x1374 ; __aeabi_fdiv + 276
        0x00001364:    42a3        .B      CMP      r3,r4
        0x00001366:    d205        ..      BCS      0x1374 ; __aeabi_fdiv + 276
        0x00001368:    0218        ..      LSLS     r0,r3,#8
        0x0000136a:    0e00        ..      LSRS     r0,r0,#24
        0x0000136c:    d017        ..      BEQ      0x139e ; __aeabi_fdiv + 318
        0x0000136e:    0fe8        ..      LSRS     r0,r5,#31
        0x00001370:    07c0        ..      LSLS     r0,r0,#31
        0x00001372:    bd70        p.      POP      {r4-r6,pc}
        0x00001374:    24ff        .$      MOVS     r4,#0xff
        0x00001376:    0043        C.      LSLS     r3,r0,#1
        0x00001378:    0624        $.      LSLS     r4,r4,#24
        0x0000137a:    42a3        .B      CMP      r3,r4
        0x0000137c:    d816        ..      BHI      0x13ac ; __aeabi_fdiv + 332
        0x0000137e:    0049        I.      LSLS     r1,r1,#1
        0x00001380:    42a1        .B      CMP      r1,r4
        0x00001382:    d813        ..      BHI      0x13ac ; __aeabi_fdiv + 332
        0x00001384:    42a3        .B      CMP      r3,r4
        0x00001386:    d101        ..      BNE      0x138c ; __aeabi_fdiv + 300
        0x00001388:    42a1        .B      CMP      r1,r4
        0x0000138a:    d00f        ..      BEQ      0x13ac ; __aeabi_fdiv + 332
        0x0000138c:    42a1        .B      CMP      r1,r4
        0x0000138e:    d101        ..      BNE      0x1394 ; __aeabi_fdiv + 308
        0x00001390:    2100        .!      MOVS     r1,#0
        0x00001392:    e001        ..      B        0x1398 ; __aeabi_fdiv + 312
        0x00001394:    0041        A.      LSLS     r1,r0,#1
        0x00001396:    0849        I.      LSRS     r1,r1,#1
        0x00001398:    05d0        ..      LSLS     r0,r2,#23
        0x0000139a:    4308        .C      ORRS     r0,r0,r1
        0x0000139c:    bd70        p.      POP      {r4-r6,pc}
        0x0000139e:    0210        ..      LSLS     r0,r2,#8
        0x000013a0:    0e00        ..      LSRS     r0,r0,#24
        0x000013a2:    d003        ..      BEQ      0x13ac ; __aeabi_fdiv + 332
        0x000013a4:    20ff        .       MOVS     r0,#0xff
        0x000013a6:    4302        .C      ORRS     r2,r2,r0
        0x000013a8:    05d0        ..      LSLS     r0,r2,#23
        0x000013aa:    bd70        p.      POP      {r4-r6,pc}
        0x000013ac:    4630        0F      MOV      r0,r6
        0x000013ae:    bd70        p.      POP      {r4-r6,pc}
    _frdiv
        0x000013b0:    4048        H@      EORS     r0,r0,r1
        0x000013b2:    4041        A@      EORS     r1,r1,r0
        0x000013b4:    4048        H@      EORS     r0,r0,r1
        0x000013b6:    e753        S.      B        __aeabi_fdiv ; 0x1260
    $d
        0x000013b8:    00005c48    H\..    DCD    23624
        0x000013bc:    7fc00000    ....    DCD    2143289344
    $t
    .text
    __aeabi_f2iz
    _ffix
        0x000013c0:    b510        ..      PUSH     {r4,lr}
        0x000013c2:    4602        .F      MOV      r2,r0
        0x000013c4:    249e        .$      MOVS     r4,#0x9e
        0x000013c6:    0200        ..      LSLS     r0,r0,#8
        0x000013c8:    15d1        ..      ASRS     r1,r2,#23
        0x000013ca:    07a3        ..      LSLS     r3,r4,#30
        0x000013cc:    2900        .)      CMP      r1,#0
        0x000013ce:    d002        ..      BEQ      0x13d6 ; __aeabi_f2iz + 22
        0x000013d0:    4318        .C      ORRS     r0,r0,r3
        0x000013d2:    2900        .)      CMP      r1,#0
        0x000013d4:    db04        ..      BLT      0x13e0 ; __aeabi_f2iz + 32
        0x000013d6:    1a61        a.      SUBS     r1,r4,r1
        0x000013d8:    2900        .)      CMP      r1,#0
        0x000013da:    dd0c        ..      BLE      0x13f6 ; __aeabi_f2iz + 54
        0x000013dc:    40c8        .@      LSRS     r0,r0,r1
        0x000013de:    bd10        ..      POP      {r4,pc}
        0x000013e0:    0609        ..      LSLS     r1,r1,#24
        0x000013e2:    0e09        ..      LSRS     r1,r1,#24
        0x000013e4:    d101        ..      BNE      0x13ea ; __aeabi_f2iz + 42
        0x000013e6:    0040        @.      LSLS     r0,r0,#1
        0x000013e8:    0840        @.      LSRS     r0,r0,#1
        0x000013ea:    1a61        a.      SUBS     r1,r4,r1
        0x000013ec:    d403        ..      BMI      0x13f6 ; __aeabi_f2iz + 54
        0x000013ee:    40c8        .@      LSRS     r0,r0,r1
        0x000013f0:    4240        @B      RSBS     r0,r0,#0
        0x000013f2:    2800        .(      CMP      r0,#0
        0x000013f4:    ddf3        ..      BLE      0x13de ; __aeabi_f2iz + 30
        0x000013f6:    21ff        .!      MOVS     r1,#0xff
        0x000013f8:    0050        P.      LSLS     r0,r2,#1
        0x000013fa:    0609        ..      LSLS     r1,r1,#24
        0x000013fc:    4288        .B      CMP      r0,r1
        0x000013fe:    d901        ..      BLS      0x1404 ; __aeabi_f2iz + 68
        0x00001400:    2000        .       MOVS     r0,#0
        0x00001402:    bd10        ..      POP      {r4,pc}
        0x00001404:    17d0        ..      ASRS     r0,r2,#31
        0x00001406:    43c0        .C      MVNS     r0,r0
        0x00001408:    4058        X@      EORS     r0,r0,r3
        0x0000140a:    bd10        ..      POP      {r4,pc}
    .text
    __aeabi_f2uiz
    _ffixu
        0x0000140c:    4601        .F      MOV      r1,r0
        0x0000140e:    0200        ..      LSLS     r0,r0,#8
        0x00001410:    15ca        ..      ASRS     r2,r1,#23
        0x00001412:    d004        ..      BEQ      0x141e ; __aeabi_f2uiz + 18
        0x00001414:    2301        .#      MOVS     r3,#1
        0x00001416:    07db        ..      LSLS     r3,r3,#31
        0x00001418:    4318        .C      ORRS     r0,r0,r3
        0x0000141a:    2a00        .*      CMP      r2,#0
        0x0000141c:    db09        ..      BLT      0x1432 ; __aeabi_f2uiz + 38
        0x0000141e:    239e        .#      MOVS     r3,#0x9e
        0x00001420:    1a9a        ..      SUBS     r2,r3,r2
        0x00001422:    d401        ..      BMI      0x1428 ; __aeabi_f2uiz + 28
        0x00001424:    40d0        .@      LSRS     r0,r0,r2
        0x00001426:    4770        pG      BX       lr
        0x00001428:    22ff        ."      MOVS     r2,#0xff
        0x0000142a:    0048        H.      LSLS     r0,r1,#1
        0x0000142c:    0612        ..      LSLS     r2,r2,#24
        0x0000142e:    4290        .B      CMP      r0,r2
        0x00001430:    d901        ..      BLS      0x1436 ; __aeabi_f2uiz + 42
        0x00001432:    2000        .       MOVS     r0,#0
        0x00001434:    4770        pG      BX       lr
        0x00001436:    17c8        ..      ASRS     r0,r1,#31
        0x00001438:    43c0        .C      MVNS     r0,r0
        0x0000143a:    4770        pG      BX       lr
    .text
    __aeabi_i2f_normalise
        0x0000143c:    221f        ."      MOVS     r2,#0x1f
        0x0000143e:    0c03        ..      LSRS     r3,r0,#16
        0x00001440:    d102        ..      BNE      0x1448 ; __aeabi_i2f_normalise + 12
        0x00001442:    220f        ."      MOVS     r2,#0xf
        0x00001444:    0400        ..      LSLS     r0,r0,#16
        0x00001446:    d01c        ..      BEQ      0x1482 ; __aeabi_i2f_normalise + 70
        0x00001448:    0e03        ..      LSRS     r3,r0,#24
        0x0000144a:    d101        ..      BNE      0x1450 ; __aeabi_i2f_normalise + 20
        0x0000144c:    0200        ..      LSLS     r0,r0,#8
        0x0000144e:    3a08        .:      SUBS     r2,r2,#8
        0x00001450:    0f03        ..      LSRS     r3,r0,#28
        0x00001452:    d101        ..      BNE      0x1458 ; __aeabi_i2f_normalise + 28
        0x00001454:    0100        ..      LSLS     r0,r0,#4
        0x00001456:    1f12        ..      SUBS     r2,r2,#4
        0x00001458:    0f83        ..      LSRS     r3,r0,#30
        0x0000145a:    d101        ..      BNE      0x1460 ; __aeabi_i2f_normalise + 36
        0x0000145c:    0080        ..      LSLS     r0,r0,#2
        0x0000145e:    1e92        ..      SUBS     r2,r2,#2
        0x00001460:    2800        .(      CMP      r0,#0
        0x00001462:    db01        ..      BLT      0x1468 ; __aeabi_i2f_normalise + 44
        0x00001464:    0040        @.      LSLS     r0,r0,#1
        0x00001466:    1e52        R.      SUBS     r2,r2,#1
        0x00001468:    05d2        ..      LSLS     r2,r2,#23
        0x0000146a:    1851        Q.      ADDS     r1,r2,r1
        0x0000146c:    1202        ..      ASRS     r2,r0,#8
        0x0000146e:    1851        Q.      ADDS     r1,r2,r1
        0x00001470:    2219        ."      MOVS     r2,#0x19
        0x00001472:    4090        .@      LSLS     r0,r0,r2
        0x00001474:    d304        ..      BCC      0x1480 ; __aeabi_i2f_normalise + 68
        0x00001476:    1c49        I.      ADDS     r1,r1,#1
        0x00001478:    2800        .(      CMP      r0,#0
        0x0000147a:    d101        ..      BNE      0x1480 ; __aeabi_i2f_normalise + 68
        0x0000147c:    0849        I.      LSRS     r1,r1,#1
        0x0000147e:    0049        I.      LSLS     r1,r1,#1
        0x00001480:    4608        .F      MOV      r0,r1
        0x00001482:    4770        pG      BX       lr
    __aeabi_i2f
    _fflt
        0x00001484:    0fc1        ..      LSRS     r1,r0,#31
        0x00001486:    07c9        ..      LSLS     r1,r1,#31
        0x00001488:    d000        ..      BEQ      0x148c ; __aeabi_i2f + 8
        0x0000148a:    4240        @B      RSBS     r0,r0,#0
        0x0000148c:    2201        ."      MOVS     r2,#1
        0x0000148e:    0792        ..      LSLS     r2,r2,#30
        0x00001490:    4311        .C      ORRS     r1,r1,r2
        0x00001492:    e7d3        ..      B        __aeabi_i2f_normalise ; 0x143c
    __aeabi_ui2f
    _ffltu
        0x00001494:    2101        .!      MOVS     r1,#1
        0x00001496:    0789        ..      LSLS     r1,r1,#30
        0x00001498:    e7d0        ..      B        __aeabi_i2f_normalise ; 0x143c
        0x0000149a:    0000        ..      MOVS     r0,r0
    .text
    __ARM_scalbnf
        0x0000149c:    b510        ..      PUSH     {r4,lr}
        0x0000149e:    22ff        ."      MOVS     r2,#0xff
        0x000014a0:    0dc3        ..      LSRS     r3,r0,#23
        0x000014a2:    4013        .@      ANDS     r3,r3,r2
        0x000014a4:    d009        ..      BEQ      0x14ba ; __ARM_scalbnf + 30
        0x000014a6:    405a        Z@      EORS     r2,r2,r3
        0x000014a8:    d007        ..      BEQ      0x14ba ; __ARM_scalbnf + 30
        0x000014aa:    4291        .B      CMP      r1,r2
        0x000014ac:    da05        ..      BGE      0x14ba ; __ARM_scalbnf + 30
        0x000014ae:    425c        \B      RSBS     r4,r3,#0
        0x000014b0:    42a1        .B      CMP      r1,r4
        0x000014b2:    dd02        ..      BLE      0x14ba ; __ARM_scalbnf + 30
        0x000014b4:    05c9        ..      LSLS     r1,r1,#23
        0x000014b6:    1808        ..      ADDS     r0,r1,r0
        0x000014b8:    bd10        ..      POP      {r4,pc}
        0x000014ba:    0fc4        ..      LSRS     r4,r0,#31
        0x000014bc:    07e4        ..      LSLS     r4,r4,#31
        0x000014be:    2b00        .+      CMP      r3,#0
        0x000014c0:    d006        ..      BEQ      0x14d0 ; __ARM_scalbnf + 52
        0x000014c2:    2a00        .*      CMP      r2,#0
        0x000014c4:    d006        ..      BEQ      0x14d4 ; __ARM_scalbnf + 56
        0x000014c6:    2900        .)      CMP      r1,#0
        0x000014c8:    db02        ..      BLT      0x14d0 ; __ARM_scalbnf + 52
        0x000014ca:    20ff        .       MOVS     r0,#0xff
        0x000014cc:    05c0        ..      LSLS     r0,r0,#23
        0x000014ce:    4304        .C      ORRS     r4,r4,r0
        0x000014d0:    4620         F      MOV      r0,r4
        0x000014d2:    bd10        ..      POP      {r4,pc}
        0x000014d4:    0241        A.      LSLS     r1,r0,#9
        0x000014d6:    d0fc        ..      BEQ      0x14d2 ; __ARM_scalbnf + 54
        0x000014d8:    4800        .H      LDR      r0,[pc,#0] ; [0x14dc] = 0x7fc00000
        0x000014da:    bd10        ..      POP      {r4,pc}
    $d
        0x000014dc:    7fc00000    ....    DCD    2143289344
    $t
    .text
    __read_errno
        0x000014e0:    b510        ..      PUSH     {r4,lr}
        0x000014e2:    f000f9d1    ....    BL       __aeabi_errno_addr ; 0x1888
        0x000014e6:    6800        .h      LDR      r0,[r0,#0]
        0x000014e8:    bd10        ..      POP      {r4,pc}
    __set_errno
        0x000014ea:    b510        ..      PUSH     {r4,lr}
        0x000014ec:    4604        .F      MOV      r4,r0
        0x000014ee:    f000f9cb    ....    BL       __aeabi_errno_addr ; 0x1888
        0x000014f2:    6004        .`      STR      r4,[r0,#0]
        0x000014f4:    bd10        ..      POP      {r4,pc}
    .text
    _printf_int_common
        0x000014f6:    b5ff        ..      PUSH     {r0-r7,lr}
        0x000014f8:    4604        .F      MOV      r4,r0
        0x000014fa:    460d        .F      MOV      r5,r1
        0x000014fc:    b081        ..      SUB      sp,sp,#4
        0x000014fe:    3024        $0      ADDS     r0,r0,#0x24
        0x00001500:    9000        ..      STR      r0,[sp,#0]
        0x00001502:    6821        !h      LDR      r1,[r4,#0]
        0x00001504:    0688        ..      LSLS     r0,r1,#26
        0x00001506:    d504        ..      BPL      0x1512 ; _printf_int_common + 28
        0x00001508:    2210        ."      MOVS     r2,#0x10
        0x0000150a:    69e0        .i      LDR      r0,[r4,#0x1c]
        0x0000150c:    4391        .C      BICS     r1,r1,r2
        0x0000150e:    6021        !`      STR      r1,[r4,#0]
        0x00001510:    e000        ..      B        0x1514 ; _printf_int_common + 30
        0x00001512:    2001        .       MOVS     r0,#1
        0x00001514:    42a8        .B      CMP      r0,r5
        0x00001516:    dd01        ..      BLE      0x151c ; _printf_int_common + 38
        0x00001518:    1b47        G.      SUBS     r7,r0,r5
        0x0000151a:    e000        ..      B        0x151e ; _printf_int_common + 40
        0x0000151c:    2700        .'      MOVS     r7,#0
        0x0000151e:    9804        ..      LDR      r0,[sp,#0x10]
        0x00001520:    69a1        .i      LDR      r1,[r4,#0x18]
        0x00001522:    197a        z.      ADDS     r2,r7,r5
        0x00001524:    1810        ..      ADDS     r0,r2,r0
        0x00001526:    1a08        ..      SUBS     r0,r1,r0
        0x00001528:    61a0        .a      STR      r0,[r4,#0x18]
        0x0000152a:    7820         x      LDRB     r0,[r4,#0]
        0x0000152c:    06c0        ..      LSLS     r0,r0,#27
        0x0000152e:    d402        ..      BMI      0x1536 ; _printf_int_common + 64
        0x00001530:    4620         F      MOV      r0,r4
        0x00001532:    46c0        .F      MOV      r8,r8
        0x00001534:    46c0        .F      MOV      r8,r8
        0x00001536:    2600        .&      MOVS     r6,#0
        0x00001538:    e008        ..      B        0x154c ; _printf_int_common + 86
        0x0000153a:    9803        ..      LDR      r0,[sp,#0xc]
        0x0000153c:    6862        bh      LDR      r2,[r4,#4]
        0x0000153e:    68a1        .h      LDR      r1,[r4,#8]
        0x00001540:    5d80        .]      LDRB     r0,[r0,r6]
        0x00001542:    4790        .G      BLX      r2
        0x00001544:    6a20         j      LDR      r0,[r4,#0x20]
        0x00001546:    1c40        @.      ADDS     r0,r0,#1
        0x00001548:    1c76        v.      ADDS     r6,r6,#1
        0x0000154a:    6220         b      STR      r0,[r4,#0x20]
        0x0000154c:    9804        ..      LDR      r0,[sp,#0x10]
        0x0000154e:    4286        .B      CMP      r6,r0
        0x00001550:    dbf3        ..      BLT      0x153a ; _printf_int_common + 68
        0x00001552:    7820         x      LDRB     r0,[r4,#0]
        0x00001554:    06c0        ..      LSLS     r0,r0,#27
        0x00001556:    d50a        ..      BPL      0x156e ; _printf_int_common + 120
        0x00001558:    4620         F      MOV      r0,r4
        0x0000155a:    46c0        .F      MOV      r8,r8
        0x0000155c:    46c0        .F      MOV      r8,r8
        0x0000155e:    e006        ..      B        0x156e ; _printf_int_common + 120
        0x00001560:    6862        bh      LDR      r2,[r4,#4]
        0x00001562:    68a1        .h      LDR      r1,[r4,#8]
        0x00001564:    2030        0       MOVS     r0,#0x30
        0x00001566:    4790        .G      BLX      r2
        0x00001568:    6a20         j      LDR      r0,[r4,#0x20]
        0x0000156a:    1c40        @.      ADDS     r0,r0,#1
        0x0000156c:    6220         b      STR      r0,[r4,#0x20]
        0x0000156e:    4638        8F      MOV      r0,r7
        0x00001570:    1e7f        ..      SUBS     r7,r7,#1
        0x00001572:    2800        .(      CMP      r0,#0
        0x00001574:    dcf4        ..      BGT      0x1560 ; _printf_int_common + 106
        0x00001576:    e007        ..      B        0x1588 ; _printf_int_common + 146
        0x00001578:    9800        ..      LDR      r0,[sp,#0]
        0x0000157a:    6862        bh      LDR      r2,[r4,#4]
        0x0000157c:    68a1        .h      LDR      r1,[r4,#8]
        0x0000157e:    5d40        @]      LDRB     r0,[r0,r5]
        0x00001580:    4790        .G      BLX      r2
        0x00001582:    6a20         j      LDR      r0,[r4,#0x20]
        0x00001584:    1c40        @.      ADDS     r0,r0,#1
        0x00001586:    6220         b      STR      r0,[r4,#0x20]
        0x00001588:    4628        (F      MOV      r0,r5
        0x0000158a:    1e6d        m.      SUBS     r5,r5,#1
        0x0000158c:    2800        .(      CMP      r0,#0
        0x0000158e:    dcf3        ..      BGT      0x1578 ; _printf_int_common + 130
        0x00001590:    4620         F      MOV      r0,r4
        0x00001592:    46c0        .F      MOV      r8,r8
        0x00001594:    46c0        .F      MOV      r8,r8
        0x00001596:    7820         x      LDRB     r0,[r4,#0]
        0x00001598:    0600        ..      LSLS     r0,r0,#24
        0x0000159a:    d502        ..      BPL      0x15a2 ; _printf_int_common + 172
        0x0000159c:    2002        .       MOVS     r0,#2
        0x0000159e:    b005        ..      ADD      sp,sp,#0x14
        0x000015a0:    bdf0        ..      POP      {r4-r7,pc}
        0x000015a2:    2001        .       MOVS     r0,#1
        0x000015a4:    e7fb        ..      B        0x159e ; _printf_int_common + 168
        0x000015a6:    0000        ..      MOVS     r0,r0
    .text
    _printf_input_char
        0x000015a8:    6901        .i      LDR      r1,[r0,#0x10]
        0x000015aa:    1c4a        J.      ADDS     r2,r1,#1
        0x000015ac:    6102        .a      STR      r2,[r0,#0x10]
        0x000015ae:    7808        .x      LDRB     r0,[r1,#0]
        0x000015b0:    4770        pG      BX       lr
    _printf_char_common
        0x000015b2:    b500        ..      PUSH     {lr}
        0x000015b4:    b08f        ..      SUB      sp,sp,#0x3c
        0x000015b6:    9102        ..      STR      r1,[sp,#8]
        0x000015b8:    2100        .!      MOVS     r1,#0
        0x000015ba:    9105        ..      STR      r1,[sp,#0x14]
        0x000015bc:    4905        .I      LDR      r1,[pc,#20] ; [0x15d4] = 0xffffffe5
        0x000015be:    9301        ..      STR      r3,[sp,#4]
        0x000015c0:    4479        yD      ADD      r1,r1,pc
        0x000015c2:    9103        ..      STR      r1,[sp,#0xc]
        0x000015c4:    4611        .F      MOV      r1,r2
        0x000015c6:    9004        ..      STR      r0,[sp,#0x10]
        0x000015c8:    4668        hF      MOV      r0,sp
        0x000015ca:    f7fefe8d    ....    BL       __printf ; 0x2e8
        0x000015ce:    b00f        ..      ADD      sp,sp,#0x3c
        0x000015d0:    bd00        ..      POP      {pc}
    $d
        0x000015d2:    0000        ..      DCW    0
        0x000015d4:    ffffffe5    ....    DCD    4294967269
    $t
    .text
    _sputc
        0x000015d8:    680a        .h      LDR      r2,[r1,#0]
        0x000015da:    7010        .p      STRB     r0,[r2,#0]
        0x000015dc:    1c52        R.      ADDS     r2,r2,#1
        0x000015de:    600a        .`      STR      r2,[r1,#0]
        0x000015e0:    4770        pG      BX       lr
        0x000015e2:    0000        ..      MOVS     r0,r0
    .text
    _printf_char_file
        0x000015e4:    4b08        .K      LDR      r3,[pc,#32] ; [0x1608] = 0x3b5f
        0x000015e6:    b570        p.      PUSH     {r4-r6,lr}
        0x000015e8:    460d        .F      MOV      r5,r1
        0x000015ea:    447b        {D      ADD      r3,r3,pc
        0x000015ec:    f7ffffe1    ....    BL       _printf_char_common ; 0x15b2
        0x000015f0:    4604        .F      MOV      r4,r0
        0x000015f2:    4628        (F      MOV      r0,r5
        0x000015f4:    f003fd1a    ....    BL       ferror ; 0x502c
        0x000015f8:    2800        .(      CMP      r0,#0
        0x000015fa:    d002        ..      BEQ      0x1602 ; _printf_char_file + 30
        0x000015fc:    2000        .       MOVS     r0,#0
        0x000015fe:    43c0        .C      MVNS     r0,r0
        0x00001600:    bd70        p.      POP      {r4-r6,pc}
        0x00001602:    4620         F      MOV      r0,r4
        0x00001604:    bd70        p.      POP      {r4-r6,pc}
    $d
        0x00001606:    0000        ..      DCW    0
        0x00001608:    00003b5f    _;..    DCD    15199
    $t
    .text
    __rt_udiv10
        0x0000160c:    4601        .F      MOV      r1,r0
        0x0000160e:    0880        ..      LSRS     r0,r0,#2
        0x00001610:    1a08        ..      SUBS     r0,r1,r0
        0x00001612:    0902        ..      LSRS     r2,r0,#4
        0x00001614:    1810        ..      ADDS     r0,r2,r0
        0x00001616:    0a02        ..      LSRS     r2,r0,#8
        0x00001618:    1810        ..      ADDS     r0,r2,r0
        0x0000161a:    0c02        ..      LSRS     r2,r0,#16
        0x0000161c:    1810        ..      ADDS     r0,r2,r0
        0x0000161e:    08c0        ..      LSRS     r0,r0,#3
        0x00001620:    0082        ..      LSLS     r2,r0,#2
        0x00001622:    1812        ..      ADDS     r2,r2,r0
        0x00001624:    0052        R.      LSLS     r2,r2,#1
        0x00001626:    1a89        ..      SUBS     r1,r1,r2
        0x00001628:    e001        ..      B        0x162e ; __rt_udiv10 + 34
        0x0000162a:    1c40        @.      ADDS     r0,r0,#1
        0x0000162c:    390a        .9      SUBS     r1,r1,#0xa
        0x0000162e:    290a        .)      CMP      r1,#0xa
        0x00001630:    d2fb        ..      BCS      0x162a ; __rt_udiv10 + 30
        0x00001632:    4770        pG      BX       lr
    .text
    __fpl_dcmp_InfNaN
        0x00001634:    b5f8        ..      PUSH     {r3-r7,lr}
        0x00001636:    4c22        "L      LDR      r4,[pc,#136] ; [0x16c0] = 0xffe00000
        0x00001638:    004e        N.      LSLS     r6,r1,#1
        0x0000163a:    9d06        ..      LDR      r5,[sp,#0x18]
        0x0000163c:    42a6        .B      CMP      r6,r4
        0x0000163e:    d80a        ..      BHI      0x1656 ; __fpl_dcmp_InfNaN + 34
        0x00001640:    42a6        .B      CMP      r6,r4
        0x00001642:    d101        ..      BNE      0x1648 ; __fpl_dcmp_InfNaN + 20
        0x00001644:    2800        .(      CMP      r0,#0
        0x00001646:    d106        ..      BNE      0x1656 ; __fpl_dcmp_InfNaN + 34
        0x00001648:    005e        ^.      LSLS     r6,r3,#1
        0x0000164a:    42a6        .B      CMP      r6,r4
        0x0000164c:    d803        ..      BHI      0x1656 ; __fpl_dcmp_InfNaN + 34
        0x0000164e:    42a6        .B      CMP      r6,r4
        0x00001650:    d10a        ..      BNE      0x1668 ; __fpl_dcmp_InfNaN + 52
        0x00001652:    2a00        .*      CMP      r2,#0
        0x00001654:    d008        ..      BEQ      0x1668 ; __fpl_dcmp_InfNaN + 52
        0x00001656:    240d        .$      MOVS     r4,#0xd
        0x00001658:    0424        $.      LSLS     r4,r4,#16
        0x0000165a:    4225        %B      TST      r5,r4
        0x0000165c:    d02c        ,.      BEQ      0x16b8 ; __fpl_dcmp_InfNaN + 132
        0x0000165e:    4629        )F      MOV      r1,r5
        0x00001660:    2000        .       MOVS     r0,#0
        0x00001662:    f000f915    ....    BL       __fpl_cmpreturn ; 0x1890
        0x00001666:    bdf8        ..      POP      {r3-r7,pc}
        0x00001668:    460c        .F      MOV      r4,r1
        0x0000166a:    431c        .C      ORRS     r4,r4,r3
        0x0000166c:    d40c        ..      BMI      0x1688 ; __fpl_dcmp_InfNaN + 84
        0x0000166e:    4299        .B      CMP      r1,r3
        0x00001670:    d002        ..      BEQ      0x1678 ; __fpl_dcmp_InfNaN + 68
        0x00001672:    f3ef8000    ....    MRS      r0,APSR ; formerly CPSR
        0x00001676:    bdf8        ..      POP      {r3-r7,pc}
        0x00001678:    4290        .B      CMP      r0,r2
        0x0000167a:    d002        ..      BEQ      0x1682 ; __fpl_dcmp_InfNaN + 78
        0x0000167c:    f3ef8000    ....    MRS      r0,APSR ; formerly CPSR
        0x00001680:    bdf8        ..      POP      {r3-r7,pc}
        0x00001682:    f3ef8000    ....    MRS      r0,APSR ; formerly CPSR
        0x00001686:    bdf8        ..      POP      {r3-r7,pc}
        0x00001688:    2409        .$      MOVS     r4,#9
        0x0000168a:    0724        $.      LSLS     r4,r4,#28
        0x0000168c:    00e5        ..      LSLS     r5,r4,#3
        0x0000168e:    428b        .B      CMP      r3,r1
        0x00001690:    d006        ..      BEQ      0x16a0 ; __fpl_dcmp_InfNaN + 108
        0x00001692:    f3ef8000    ....    MRS      r0,APSR ; formerly CPSR
        0x00001696:    43a0        .C      BICS     r0,r0,r4
        0x00001698:    1a59        Y.      SUBS     r1,r3,r1
        0x0000169a:    d206        ..      BCS      0x16aa ; __fpl_dcmp_InfNaN + 118
        0x0000169c:    4328        (C      ORRS     r0,r0,r5
        0x0000169e:    e004        ..      B        0x16aa ; __fpl_dcmp_InfNaN + 118
        0x000016a0:    1a10        ..      SUBS     r0,r2,r0
        0x000016a2:    d305        ..      BCC      0x16b0 ; __fpl_dcmp_InfNaN + 124
        0x000016a4:    f3ef8000    ....    MRS      r0,APSR ; formerly CPSR
        0x000016a8:    43a0        .C      BICS     r0,r0,r4
        0x000016aa:    f3808800    ....    MSR      APSR_nzcvq,r0 ; formerly CPSR_f
        0x000016ae:    bdf8        ..      POP      {r3-r7,pc}
        0x000016b0:    f3ef8000    ....    MRS      r0,APSR ; formerly CPSR
        0x000016b4:    43a0        .C      BICS     r0,r0,r4
        0x000016b6:    e7f1        ..      B        0x169c ; __fpl_dcmp_InfNaN + 104
        0x000016b8:    9500        ..      STR      r5,[sp,#0]
        0x000016ba:    f000f901    ....    BL       __fpl_dcheck_NaN2 ; 0x18c0
        0x000016be:    bdf8        ..      POP      {r3-r7,pc}
    $d
        0x000016c0:    ffe00000    ....    DCD    4292870144
    $t
    .text
    __ARM_scalbn
        0x000016c4:    b570        p.      PUSH     {r4-r6,lr}
        0x000016c6:    4606        .F      MOV      r6,r0
        0x000016c8:    0048        H.      LSLS     r0,r1,#1
        0x000016ca:    0d44        D.      LSRS     r4,r0,#21
        0x000016cc:    4b11        .K      LDR      r3,[pc,#68] ; [0x1714] = 0x7ff
        0x000016ce:    2000        .       MOVS     r0,#0
        0x000016d0:    2c00        .,      CMP      r4,#0
        0x000016d2:    d00a        ..      BEQ      0x16ea ; __ARM_scalbn + 38
        0x000016d4:    4063        c@      EORS     r3,r3,r4
        0x000016d6:    d008        ..      BEQ      0x16ea ; __ARM_scalbn + 38
        0x000016d8:    429a        .B      CMP      r2,r3
        0x000016da:    da06        ..      BGE      0x16ea ; __ARM_scalbn + 38
        0x000016dc:    4265        eB      RSBS     r5,r4,#0
        0x000016de:    42aa        .B      CMP      r2,r5
        0x000016e0:    dd03        ..      BLE      0x16ea ; __ARM_scalbn + 38
        0x000016e2:    0512        ..      LSLS     r2,r2,#20
        0x000016e4:    1980        ..      ADDS     r0,r0,r6
        0x000016e6:    4151        QA      ADCS     r1,r1,r2
        0x000016e8:    bd70        p.      POP      {r4-r6,pc}
        0x000016ea:    0fcd        ..      LSRS     r5,r1,#31
        0x000016ec:    07ed        ..      LSLS     r5,r5,#31
        0x000016ee:    2c00        .,      CMP      r4,#0
        0x000016f0:    d005        ..      BEQ      0x16fe ; __ARM_scalbn + 58
        0x000016f2:    2b00        .+      CMP      r3,#0
        0x000016f4:    d005        ..      BEQ      0x1702 ; __ARM_scalbn + 62
        0x000016f6:    2a00        .*      CMP      r2,#0
        0x000016f8:    db01        ..      BLT      0x16fe ; __ARM_scalbn + 58
        0x000016fa:    4907        .I      LDR      r1,[pc,#28] ; [0x1718] = 0x7ff00000
        0x000016fc:    430d        .C      ORRS     r5,r5,r1
        0x000016fe:    4629        )F      MOV      r1,r5
        0x00001700:    bd70        p.      POP      {r4-r6,pc}
        0x00001702:    4630        0F      MOV      r0,r6
        0x00001704:    030a        ..      LSLS     r2,r1,#12
        0x00001706:    4310        .C      ORRS     r0,r0,r2
        0x00001708:    d002        ..      BEQ      0x1710 ; __ARM_scalbn + 76
        0x0000170a:    2000        .       MOVS     r0,#0
        0x0000170c:    4903        .I      LDR      r1,[pc,#12] ; [0x171c] = 0x7ff80000
        0x0000170e:    bd70        p.      POP      {r4-r6,pc}
        0x00001710:    4630        0F      MOV      r0,r6
        0x00001712:    bd70        p.      POP      {r4-r6,pc}
    $d
        0x00001714:    000007ff    ....    DCD    2047
        0x00001718:    7ff00000    ....    DCD    2146435072
        0x0000171c:    7ff80000    ....    DCD    2146959360
    $t
    .text
    _dsqrt
        0x00001720:    b5f0        ..      PUSH     {r4-r7,lr}
        0x00001722:    4602        .F      MOV      r2,r0
        0x00001724:    4c3d        =L      LDR      r4,[pc,#244] ; [0x181c] = 0x7ff00000
        0x00001726:    0308        ..      LSLS     r0,r1,#12
        0x00001728:    4613        .F      MOV      r3,r2
        0x0000172a:    460d        .F      MOV      r5,r1
        0x0000172c:    4303        .C      ORRS     r3,r3,r0
        0x0000172e:    4025        %@      ANDS     r5,r5,r4
        0x00001730:    2000        .       MOVS     r0,#0
        0x00001732:    2d00        .-      CMP      r5,#0
        0x00001734:    d063        c.      BEQ      0x17fe ; _dsqrt + 222
        0x00001736:    4d3a        :M      LDR      r5,[pc,#232] ; [0x1820] = 0x7ff80000
        0x00001738:    438c        .C      BICS     r4,r4,r1
        0x0000173a:    d065        e.      BEQ      0x1808 ; _dsqrt + 232
        0x0000173c:    2900        .)      CMP      r1,#0
        0x0000173e:    db69        i.      BLT      0x1814 ; _dsqrt + 244
        0x00001740:    0d0b        ..      LSRS     r3,r1,#20
        0x00001742:    051d        ..      LSLS     r5,r3,#20
        0x00001744:    43a9        .C      BICS     r1,r1,r5
        0x00001746:    2501        .%      MOVS     r5,#1
        0x00001748:    052d        -.      LSLS     r5,r5,#20
        0x0000174a:    4329        )C      ORRS     r1,r1,r5
        0x0000174c:    2401        .$      MOVS     r4,#1
        0x0000174e:    33fd        .3      ADDS     r3,r3,#0xfd
        0x00001750:    40e3        .@      LSRS     r3,r3,r4
        0x00001752:    d301        ..      BCC      0x1758 ; _dsqrt + 56
        0x00001754:    1892        ..      ADDS     r2,r2,r2
        0x00001756:    4149        IA      ADCS     r1,r1,r1
        0x00001758:    33ff        .3      ADDS     r3,r3,#0xff
        0x0000175a:    3381        .3      ADDS     r3,r3,#0x81
        0x0000175c:    469c        .F      MOV      r12,r3
        0x0000175e:    028b        ..      LSLS     r3,r1,#10
        0x00001760:    0d94        ..      LSRS     r4,r2,#22
        0x00001762:    2101        .!      MOVS     r1,#1
        0x00001764:    4323        #C      ORRS     r3,r3,r4
        0x00001766:    0789        ..      LSLS     r1,r1,#30
        0x00001768:    424c        LB      RSBS     r4,r1,#0
        0x0000176a:    0292        ..      LSLS     r2,r2,#10
        0x0000176c:    2700        .'      MOVS     r7,#0
        0x0000176e:    191b        ..      ADDS     r3,r3,r4
        0x00001770:    108c        ..      ASRS     r4,r1,#2
        0x00001772:    1a5d        ].      SUBS     r5,r3,r1
        0x00001774:    d404        ..      BMI      0x1780 ; _dsqrt + 96
        0x00001776:    1b2d        -.      SUBS     r5,r5,r4
        0x00001778:    d402        ..      BMI      0x1780 ; _dsqrt + 96
        0x0000177a:    462b        +F      MOV      r3,r5
        0x0000177c:    0065        e.      LSLS     r5,r4,#1
        0x0000177e:    1949        I.      ADDS     r1,r1,r5
        0x00001780:    1892        ..      ADDS     r2,r2,r2
        0x00001782:    415b        [A      ADCS     r3,r3,r3
        0x00001784:    0864        d.      LSRS     r4,r4,#1
        0x00001786:    d1f4        ..      BNE      0x1772 ; _dsqrt + 82
        0x00001788:    1a5c        \.      SUBS     r4,r3,r1
        0x0000178a:    d408        ..      BMI      0x179e ; _dsqrt + 126
        0x0000178c:    2501        .%      MOVS     r5,#1
        0x0000178e:    07ed        ..      LSLS     r5,r5,#31
        0x00001790:    17ee        ..      ASRS     r6,r5,#31
        0x00001792:    1955        U.      ADDS     r5,r2,r5
        0x00001794:    4174        tA      ADCS     r4,r4,r6
        0x00001796:    d402        ..      BMI      0x179e ; _dsqrt + 126
        0x00001798:    462a        *F      MOV      r2,r5
        0x0000179a:    4623        #F      MOV      r3,r4
        0x0000179c:    1c49        I.      ADDS     r1,r1,#1
        0x0000179e:    1894        ..      ADDS     r4,r2,r2
        0x000017a0:    415b        [A      ADCS     r3,r3,r3
        0x000017a2:    2201        ."      MOVS     r2,#1
        0x000017a4:    0792        ..      LSLS     r2,r2,#30
        0x000017a6:    461d        .F      MOV      r5,r3
        0x000017a8:    1be6        ..      SUBS     r6,r4,r7
        0x000017aa:    418d        .A      SBCS     r5,r5,r1
        0x000017ac:    d406        ..      BMI      0x17bc ; _dsqrt + 156
        0x000017ae:    1ab6        ..      SUBS     r6,r6,r2
        0x000017b0:    4185        .A      SBCS     r5,r5,r0
        0x000017b2:    d403        ..      BMI      0x17bc ; _dsqrt + 156
        0x000017b4:    462b        +F      MOV      r3,r5
        0x000017b6:    0055        U.      LSLS     r5,r2,#1
        0x000017b8:    4634        4F      MOV      r4,r6
        0x000017ba:    197f        ..      ADDS     r7,r7,r5
        0x000017bc:    1924        $.      ADDS     r4,r4,r4
        0x000017be:    415b        [A      ADCS     r3,r3,r3
        0x000017c0:    0852        R.      LSRS     r2,r2,#1
        0x000017c2:    2a80        .*      CMP      r2,#0x80
        0x000017c4:    d1ef        ..      BNE      0x17a6 ; _dsqrt + 134
        0x000017c6:    4323        #C      ORRS     r3,r3,r4
        0x000017c8:    d000        ..      BEQ      0x17cc ; _dsqrt + 172
        0x000017ca:    2302        .#      MOVS     r3,#2
        0x000017cc:    4638        8F      MOV      r0,r7
        0x000017ce:    220a        ."      MOVS     r2,#0xa
        0x000017d0:    40d0        .@      LSRS     r0,r0,r2
        0x000017d2:    d301        ..      BCC      0x17d8 ; _dsqrt + 184
        0x000017d4:    2201        ."      MOVS     r2,#1
        0x000017d6:    4313        .C      ORRS     r3,r3,r2
        0x000017d8:    058a        ..      LSLS     r2,r1,#22
        0x000017da:    4310        .C      ORRS     r0,r0,r2
        0x000017dc:    4662        bF      MOV      r2,r12
        0x000017de:    0a89        ..      LSRS     r1,r1,#10
        0x000017e0:    0512        ..      LSLS     r2,r2,#20
        0x000017e2:    1889        ..      ADDS     r1,r1,r2
        0x000017e4:    2b00        .+      CMP      r3,#0
        0x000017e6:    d009        ..      BEQ      0x17fc ; _dsqrt + 220
        0x000017e8:    2201        ."      MOVS     r2,#1
        0x000017ea:    40d3        .@      LSRS     r3,r3,r2
        0x000017ec:    d302        ..      BCC      0x17f4 ; _dsqrt + 212
        0x000017ee:    2200        ."      MOVS     r2,#0
        0x000017f0:    1c40        @.      ADDS     r0,r0,#1
        0x000017f2:    4151        QA      ADCS     r1,r1,r2
        0x000017f4:    2b00        .+      CMP      r3,#0
        0x000017f6:    d101        ..      BNE      0x17fc ; _dsqrt + 220
        0x000017f8:    0840        @.      LSRS     r0,r0,#1
        0x000017fa:    0040        @.      LSLS     r0,r0,#1
        0x000017fc:    bdf0        ..      POP      {r4-r7,pc}
        0x000017fe:    2b00        .+      CMP      r3,#0
        0x00001800:    d006        ..      BEQ      0x1810 ; _dsqrt + 240
        0x00001802:    0fc9        ..      LSRS     r1,r1,#31
        0x00001804:    07c9        ..      LSLS     r1,r1,#31
        0x00001806:    bdf0        ..      POP      {r4-r7,pc}
        0x00001808:    2b00        .+      CMP      r3,#0
        0x0000180a:    d103        ..      BNE      0x1814 ; _dsqrt + 244
        0x0000180c:    2900        .)      CMP      r1,#0
        0x0000180e:    db01        ..      BLT      0x1814 ; _dsqrt + 244
        0x00001810:    4610        .F      MOV      r0,r2
        0x00001812:    bdf0        ..      POP      {r4-r7,pc}
        0x00001814:    2000        .       MOVS     r0,#0
        0x00001816:    4629        )F      MOV      r1,r5
        0x00001818:    bdf0        ..      POP      {r4-r7,pc}
    $d
        0x0000181a:    0000        ..      DCW    0
        0x0000181c:    7ff00000    ....    DCD    2146435072
        0x00001820:    7ff80000    ....    DCD    2146959360
    $t
    .text
    __fpl_fcmp_InfNaN
        0x00001824:    b510        ..      PUSH     {r4,lr}
        0x00001826:    23ff        .#      MOVS     r3,#0xff
        0x00001828:    061b        ..      LSLS     r3,r3,#24
        0x0000182a:    0044        D.      LSLS     r4,r0,#1
        0x0000182c:    429c        .B      CMP      r4,r3
        0x0000182e:    d81d        ..      BHI      0x186c ; __fpl_fcmp_InfNaN + 72
        0x00001830:    004c        L.      LSLS     r4,r1,#1
        0x00001832:    429c        .B      CMP      r4,r3
        0x00001834:    d81a        ..      BHI      0x186c ; __fpl_fcmp_InfNaN + 72
        0x00001836:    4603        .F      MOV      r3,r0
        0x00001838:    4a12        .J      LDR      r2,[pc,#72] ; [0x1884] = 0x90000000
        0x0000183a:    430b        .C      ORRS     r3,r3,r1
        0x0000183c:    d407        ..      BMI      0x184e ; __fpl_fcmp_InfNaN + 42
        0x0000183e:    1a40        @.      SUBS     r0,r0,r1
        0x00001840:    d302        ..      BCC      0x1848 ; __fpl_fcmp_InfNaN + 36
        0x00001842:    f3ef8000    ....    MRS      r0,APSR ; formerly CPSR
        0x00001846:    bd10        ..      POP      {r4,pc}
        0x00001848:    f3ef8000    ....    MRS      r0,APSR ; formerly CPSR
        0x0000184c:    bd10        ..      POP      {r4,pc}
        0x0000184e:    1a08        ..      SUBS     r0,r1,r0
        0x00001850:    d206        ..      BCS      0x1860 ; __fpl_fcmp_InfNaN + 60
        0x00001852:    f3ef8000    ....    MRS      r0,APSR ; formerly CPSR
        0x00001856:    2101        .!      MOVS     r1,#1
        0x00001858:    4390        .C      BICS     r0,r0,r2
        0x0000185a:    07c9        ..      LSLS     r1,r1,#31
        0x0000185c:    4308        .C      ORRS     r0,r0,r1
        0x0000185e:    e002        ..      B        0x1866 ; __fpl_fcmp_InfNaN + 66
        0x00001860:    f3ef8000    ....    MRS      r0,APSR ; formerly CPSR
        0x00001864:    4390        .C      BICS     r0,r0,r2
        0x00001866:    f3808800    ....    MSR      APSR_nzcvq,r0 ; formerly CPSR_f
        0x0000186a:    bd10        ..      POP      {r4,pc}
        0x0000186c:    230d        .#      MOVS     r3,#0xd
        0x0000186e:    041b        ..      LSLS     r3,r3,#16
        0x00001870:    421a        .B      TST      r2,r3
        0x00001872:    d004        ..      BEQ      0x187e ; __fpl_fcmp_InfNaN + 90
        0x00001874:    4611        .F      MOV      r1,r2
        0x00001876:    2000        .       MOVS     r0,#0
        0x00001878:    f000f80a    ....    BL       __fpl_cmpreturn ; 0x1890
        0x0000187c:    bd10        ..      POP      {r4,pc}
        0x0000187e:    f000f829    ..).    BL       __fpl_fcheck_NaN2 ; 0x18d4
        0x00001882:    bd10        ..      POP      {r4,pc}
    $d
        0x00001884:    90000000    ....    DCD    2415919104
    $t
    .text
    __aeabi_errno_addr
    __errno$intlibspace
    __rt_errno_addr$intlibspace
        0x00001888:    4800        .H      LDR      r0,[pc,#0] ; [0x188c] = 0x20001a40
        0x0000188a:    4770        pG      BX       lr
    $d
        0x0000188c:    20001a40    @..     DCD    536877632
    $t
    .text
    __fpl_cmpreturn
        0x00001890:    02ca        ..      LSLS     r2,r1,#11
        0x00001892:    d511        ..      BPL      0x18b8 ; __fpl_cmpreturn + 40
        0x00001894:    034a        J.      LSLS     r2,r1,#13
        0x00001896:    0f52        R.      LSRS     r2,r2,#29
        0x00001898:    2a00        .*      CMP      r2,#0
        0x0000189a:    d004        ..      BEQ      0x18a6 ; __fpl_cmpreturn + 22
        0x0000189c:    03c8        ..      LSLS     r0,r1,#15
        0x0000189e:    43c0        .C      MVNS     r0,r0
        0x000018a0:    2101        .!      MOVS     r1,#1
        0x000018a2:    4088        .@      LSLS     r0,r0,r1
        0x000018a4:    4770        pG      BX       lr
        0x000018a6:    4a05        .J      LDR      r2,[pc,#20] ; [0x18bc] = 0x30000000
        0x000018a8:    f3ef8100    ....    MRS      r1,APSR ; formerly CPSR
        0x000018ac:    0108        ..      LSLS     r0,r1,#4
        0x000018ae:    0900        ..      LSRS     r0,r0,#4
        0x000018b0:    4310        .C      ORRS     r0,r0,r2
        0x000018b2:    f3808800    ....    MSR      APSR_nzcvq,r0 ; formerly CPSR_f
        0x000018b6:    4770        pG      BX       lr
        0x000018b8:    2000        .       MOVS     r0,#0
        0x000018ba:    4770        pG      BX       lr
    $d
        0x000018bc:    30000000    ...0    DCD    805306368
    $t
    .text
    __fpl_dcheck_NaN2
        0x000018c0:    b510        ..      PUSH     {r4,lr}
        0x000018c2:    2000        .       MOVS     r0,#0
        0x000018c4:    4902        .I      LDR      r1,[pc,#8] ; [0x18d0] = 0x7ff80000
        0x000018c6:    9a02        ..      LDR      r2,[sp,#8]
        0x000018c8:    f000f835    ..5.    BL       __fpl_return_NaN ; 0x1936
        0x000018cc:    bd10        ..      POP      {r4,pc}
    $d
        0x000018ce:    0000        ..      DCW    0
        0x000018d0:    7ff80000    ....    DCD    2146959360
    $t
    .text
    __fpl_fcheck_NaN2
        0x000018d4:    b510        ..      PUSH     {r4,lr}
        0x000018d6:    4802        .H      LDR      r0,[pc,#8] ; [0x18e0] = 0x7fc00000
        0x000018d8:    f000f82d    ..-.    BL       __fpl_return_NaN ; 0x1936
        0x000018dc:    bd10        ..      POP      {r4,pc}
    $d
        0x000018de:    0000        ..      DCW    0
        0x000018e0:    7fc00000    ....    DCD    2143289344
    $t
    .text
    __user_libspace
    __user_perproc_libspace
    __user_perthread_libspace
        0x000018e4:    4800        .H      LDR      r0,[pc,#0] ; [0x18e8] = 0x20001a40
        0x000018e6:    4770        pG      BX       lr
    $d
        0x000018e8:    20001a40    @..     DCD    536877632
    $t
    .text
    __user_setup_stackheap
        0x000018ec:    4675        uF      MOV      r5,lr
        0x000018ee:    f7fffff9    ....    BL       __user_libspace ; 0x18e4
        0x000018f2:    46ae        .F      MOV      lr,r5
        0x000018f4:    0005        ..      MOVS     r5,r0
        0x000018f6:    4669        iF      MOV      r1,sp
        0x000018f8:    4653        SF      MOV      r3,r10
        0x000018fa:    08c0        ..      LSRS     r0,r0,#3
        0x000018fc:    00c0        ..      LSLS     r0,r0,#3
        0x000018fe:    4685        .F      MOV      sp,r0
        0x00001900:    b018        ..      ADD      sp,sp,#0x60
        0x00001902:    b520         .      PUSH     {r5,lr}
        0x00001904:    f7fefc50    ..P.    BL       __user_initial_stackheap ; 0x1a8
        0x00001908:    bc60        `.      POP      {r5,r6}
        0x0000190a:    2700        .'      MOVS     r7,#0
        0x0000190c:    0849        I.      LSRS     r1,r1,#1
        0x0000190e:    46b6        .F      MOV      lr,r6
        0x00001910:    2600        .&      MOVS     r6,#0
        0x00001912:    c5c0        ..      STM      r5!,{r6,r7}
        0x00001914:    c5c0        ..      STM      r5!,{r6,r7}
        0x00001916:    c5c0        ..      STM      r5!,{r6,r7}
        0x00001918:    c5c0        ..      STM      r5!,{r6,r7}
        0x0000191a:    c5c0        ..      STM      r5!,{r6,r7}
        0x0000191c:    c5c0        ..      STM      r5!,{r6,r7}
        0x0000191e:    c5c0        ..      STM      r5!,{r6,r7}
        0x00001920:    c5c0        ..      STM      r5!,{r6,r7}
        0x00001922:    3d40        @=      SUBS     r5,r5,#0x40
        0x00001924:    0049        I.      LSLS     r1,r1,#1
        0x00001926:    468d        .F      MOV      sp,r1
        0x00001928:    4770        pG      BX       lr
    .text
    exit
        0x0000192a:    4604        .F      MOV      r4,r0
        0x0000192c:    46c0        .F      MOV      r8,r8
        0x0000192e:    46c0        .F      MOV      r8,r8
        0x00001930:    4620         F      MOV      r0,r4
        0x00001932:    f7fefc1f    ....    BL       __rt_exit ; 0x174
    .text
    __fpl_return_NaN
        0x00001936:    b510        ..      PUSH     {r4,lr}
        0x00001938:    460c        .F      MOV      r4,r1
        0x0000193a:    0711        ..      LSLS     r1,r2,#28
        0x0000193c:    0f09        ..      LSRS     r1,r1,#28
        0x0000193e:    2909        .)      CMP      r1,#9
        0x00001940:    d004        ..      BEQ      0x194c ; __fpl_return_NaN + 22
        0x00001942:    290a        .)      CMP      r1,#0xa
        0x00001944:    d00a        ..      BEQ      0x195c ; __fpl_return_NaN + 38
        0x00001946:    2908        .)      CMP      r1,#8
        0x00001948:    d10c        ..      BNE      0x1964 ; __fpl_return_NaN + 46
        0x0000194a:    e004        ..      B        0x1956 ; __fpl_return_NaN + 32
        0x0000194c:    4611        .F      MOV      r1,r2
        0x0000194e:    2008        .       MOVS     r0,#8
        0x00001950:    f7ffff9e    ....    BL       __fpl_cmpreturn ; 0x1890
        0x00001954:    e006        ..      B        0x1964 ; __fpl_return_NaN + 46
        0x00001956:    0651        Q.      LSLS     r1,r2,#25
        0x00001958:    d506        ..      BPL      0x1968 ; __fpl_return_NaN + 50
        0x0000195a:    e001        ..      B        0x1960 ; __fpl_return_NaN + 42
        0x0000195c:    0651        Q.      LSLS     r1,r2,#25
        0x0000195e:    d501        ..      BPL      0x1964 ; __fpl_return_NaN + 46
        0x00001960:    2001        .       MOVS     r0,#1
        0x00001962:    07c0        ..      LSLS     r0,r0,#31
        0x00001964:    4621        !F      MOV      r1,r4
        0x00001966:    bd10        ..      POP      {r4,pc}
        0x00001968:    06d1        ..      LSLS     r1,r2,#27
        0x0000196a:    d507        ..      BPL      0x197c ; __fpl_return_NaN + 70
        0x0000196c:    0101        ..      LSLS     r1,r0,#4
        0x0000196e:    0909        ..      LSRS     r1,r1,#4
        0x00001970:    08cc        ..      LSRS     r4,r1,#3
        0x00001972:    0749        I.      LSLS     r1,r1,#29
        0x00001974:    0e00        ..      LSRS     r0,r0,#24
        0x00001976:    0600        ..      LSLS     r0,r0,#24
        0x00001978:    4304        .C      ORRS     r4,r4,r0
        0x0000197a:    e009        ..      B        0x1990 ; __fpl_return_NaN + 90
        0x0000197c:    0f41        A.      LSRS     r1,r0,#29
        0x0000197e:    0220         .      LSLS     r0,r4,#8
        0x00001980:    0749        I.      LSLS     r1,r1,#29
        0x00001982:    0a00        ..      LSRS     r0,r0,#8
        0x00001984:    4301        .C      ORRS     r1,r1,r0
        0x00001986:    0e20         .      LSRS     r0,r4,#24
        0x00001988:    0600        ..      LSLS     r0,r0,#24
        0x0000198a:    221d        ."      MOVS     r2,#0x1d
        0x0000198c:    41d1        .A      RORS     r1,r1,r2
        0x0000198e:    4301        .C      ORRS     r1,r1,r0
        0x00001990:    4608        .F      MOV      r0,r1
        0x00001992:    e7e7        ..      B        0x1964 ; __fpl_return_NaN + 46
    .text
    _sys_exit
        0x00001994:    4901        .I      LDR      r1,[pc,#4] ; [0x199c] = 0x20026
        0x00001996:    2018        .       MOVS     r0,#0x18
        0x00001998:    beab        ..      BKPT     #0xab
        0x0000199a:    e7fe        ..      B        0x199a ; _sys_exit + 6
    $d
        0x0000199c:    00020026    &...    DCD    131110
    $t
    .text
    __I$use$semihosting
    __use_no_semihosting_swi
        0x000019a0:    4770        pG      BX       lr
    .text
    __semihosting_library_function
        0x000019a2:    0000        ..      MOVS     r0,r0
    i.ADC_DisableInt
    ADC_DisableInt
        0x000019a4:    07c1        ..      LSLS     r1,r0,#31
        0x000019a6:    0fc9        ..      LSRS     r1,r1,#31
        0x000019a8:    2900        .)      CMP      r1,#0
        0x000019aa:    d005        ..      BEQ      0x19b8 ; ADC_DisableInt + 20
        0x000019ac:    4912        .I      LDR      r1,[pc,#72] ; [0x19f8] = 0x400e0000
        0x000019ae:    6909        .i      LDR      r1,[r1,#0x10]
        0x000019b0:    0049        I.      LSLS     r1,r1,#1
        0x000019b2:    0849        I.      LSRS     r1,r1,#1
        0x000019b4:    4a10        .J      LDR      r2,[pc,#64] ; [0x19f8] = 0x400e0000
        0x000019b6:    6111        .a      STR      r1,[r2,#0x10]
        0x000019b8:    2102        .!      MOVS     r1,#2
        0x000019ba:    4001        .@      ANDS     r1,r1,r0
        0x000019bc:    2900        .)      CMP      r1,#0
        0x000019be:    d005        ..      BEQ      0x19cc ; ADC_DisableInt + 40
        0x000019c0:    490d        .I      LDR      r1,[pc,#52] ; [0x19f8] = 0x400e0000
        0x000019c2:    6989        .i      LDR      r1,[r1,#0x18]
        0x000019c4:    2202        ."      MOVS     r2,#2
        0x000019c6:    4391        .C      BICS     r1,r1,r2
        0x000019c8:    4a0b        .J      LDR      r2,[pc,#44] ; [0x19f8] = 0x400e0000
        0x000019ca:    6191        .a      STR      r1,[r2,#0x18]
        0x000019cc:    2104        .!      MOVS     r1,#4
        0x000019ce:    4001        .@      ANDS     r1,r1,r0
        0x000019d0:    2900        .)      CMP      r1,#0
        0x000019d2:    d005        ..      BEQ      0x19e0 ; ADC_DisableInt + 60
        0x000019d4:    4908        .I      LDR      r1,[pc,#32] ; [0x19f8] = 0x400e0000
        0x000019d6:    69c9        .i      LDR      r1,[r1,#0x1c]
        0x000019d8:    2202        ."      MOVS     r2,#2
        0x000019da:    4391        .C      BICS     r1,r1,r2
        0x000019dc:    4a06        .J      LDR      r2,[pc,#24] ; [0x19f8] = 0x400e0000
        0x000019de:    61d1        .a      STR      r1,[r2,#0x1c]
        0x000019e0:    2108        .!      MOVS     r1,#8
        0x000019e2:    4001        .@      ANDS     r1,r1,r0
        0x000019e4:    2900        .)      CMP      r1,#0
        0x000019e6:    d005        ..      BEQ      0x19f4 ; ADC_DisableInt + 80
        0x000019e8:    4904        .I      LDR      r1,[pc,#16] ; [0x19fc] = 0x400b0040
        0x000019ea:    6949        Ii      LDR      r1,[r1,#0x14]
        0x000019ec:    0849        I.      LSRS     r1,r1,#1
        0x000019ee:    0049        I.      LSLS     r1,r1,#1
        0x000019f0:    4a02        .J      LDR      r2,[pc,#8] ; [0x19fc] = 0x400b0040
        0x000019f2:    6151        Qa      STR      r1,[r2,#0x14]
        0x000019f4:    4770        pG      BX       lr
    $d
        0x000019f6:    0000        ..      DCW    0
        0x000019f8:    400e0000    ...@    DCD    1074659328
        0x000019fc:    400b0040    @..@    DCD    1074462784
    $t
    i.ADC_EnableInt
    ADC_EnableInt
        0x00001a00:    07c1        ..      LSLS     r1,r0,#31
        0x00001a02:    0fc9        ..      LSRS     r1,r1,#31
        0x00001a04:    2900        .)      CMP      r1,#0
        0x00001a06:    d008        ..      BEQ      0x1a1a ; ADC_EnableInt + 26
        0x00001a08:    2100        .!      MOVS     r1,#0
        0x00001a0a:    4a1c        .J      LDR      r2,[pc,#112] ; [0x1a7c] = 0x400e0000
        0x00001a0c:    6151        Qa      STR      r1,[r2,#0x14]
        0x00001a0e:    4611        .F      MOV      r1,r2
        0x00001a10:    6909        .i      LDR      r1,[r1,#0x10]
        0x00001a12:    0392        ..      LSLS     r2,r2,#14
        0x00001a14:    4311        .C      ORRS     r1,r1,r2
        0x00001a16:    4a19        .J      LDR      r2,[pc,#100] ; [0x1a7c] = 0x400e0000
        0x00001a18:    6111        .a      STR      r1,[r2,#0x10]
        0x00001a1a:    2102        .!      MOVS     r1,#2
        0x00001a1c:    4001        .@      ANDS     r1,r1,r0
        0x00001a1e:    2900        .)      CMP      r1,#0
        0x00001a20:    d00b        ..      BEQ      0x1a3a ; ADC_EnableInt + 58
        0x00001a22:    4916        .I      LDR      r1,[pc,#88] ; [0x1a7c] = 0x400e0000
        0x00001a24:    6989        .i      LDR      r1,[r1,#0x18]
        0x00001a26:    2280        ."      MOVS     r2,#0x80
        0x00001a28:    4311        .C      ORRS     r1,r1,r2
        0x00001a2a:    4a14        .J      LDR      r2,[pc,#80] ; [0x1a7c] = 0x400e0000
        0x00001a2c:    6191        .a      STR      r1,[r2,#0x18]
        0x00001a2e:    4611        .F      MOV      r1,r2
        0x00001a30:    6989        .i      LDR      r1,[r1,#0x18]
        0x00001a32:    2202        ."      MOVS     r2,#2
        0x00001a34:    4311        .C      ORRS     r1,r1,r2
        0x00001a36:    4a11        .J      LDR      r2,[pc,#68] ; [0x1a7c] = 0x400e0000
        0x00001a38:    6191        .a      STR      r1,[r2,#0x18]
        0x00001a3a:    2104        .!      MOVS     r1,#4
        0x00001a3c:    4001        .@      ANDS     r1,r1,r0
        0x00001a3e:    2900        .)      CMP      r1,#0
        0x00001a40:    d00b        ..      BEQ      0x1a5a ; ADC_EnableInt + 90
        0x00001a42:    490e        .I      LDR      r1,[pc,#56] ; [0x1a7c] = 0x400e0000
        0x00001a44:    69c9        .i      LDR      r1,[r1,#0x1c]
        0x00001a46:    2280        ."      MOVS     r2,#0x80
        0x00001a48:    4311        .C      ORRS     r1,r1,r2
        0x00001a4a:    4a0c        .J      LDR      r2,[pc,#48] ; [0x1a7c] = 0x400e0000
        0x00001a4c:    61d1        .a      STR      r1,[r2,#0x1c]
        0x00001a4e:    4611        .F      MOV      r1,r2
        0x00001a50:    69c9        .i      LDR      r1,[r1,#0x1c]
        0x00001a52:    2202        ."      MOVS     r2,#2
        0x00001a54:    4311        .C      ORRS     r1,r1,r2
        0x00001a56:    4a09        .J      LDR      r2,[pc,#36] ; [0x1a7c] = 0x400e0000
        0x00001a58:    61d1        .a      STR      r1,[r2,#0x1c]
        0x00001a5a:    2108        .!      MOVS     r1,#8
        0x00001a5c:    4001        .@      ANDS     r1,r1,r0
        0x00001a5e:    2900        .)      CMP      r1,#0
        0x00001a60:    d00b        ..      BEQ      0x1a7a ; ADC_EnableInt + 122
        0x00001a62:    4907        .I      LDR      r1,[pc,#28] ; [0x1a80] = 0x400b0040
        0x00001a64:    6909        .i      LDR      r1,[r1,#0x10]
        0x00001a66:    2201        ."      MOVS     r2,#1
        0x00001a68:    4311        .C      ORRS     r1,r1,r2
        0x00001a6a:    4a05        .J      LDR      r2,[pc,#20] ; [0x1a80] = 0x400b0040
        0x00001a6c:    6111        .a      STR      r1,[r2,#0x10]
        0x00001a6e:    4611        .F      MOV      r1,r2
        0x00001a70:    6949        Ii      LDR      r1,[r1,#0x14]
        0x00001a72:    2201        ."      MOVS     r2,#1
        0x00001a74:    4311        .C      ORRS     r1,r1,r2
        0x00001a76:    4a02        .J      LDR      r2,[pc,#8] ; [0x1a80] = 0x400b0040
        0x00001a78:    6151        Qa      STR      r1,[r2,#0x14]
        0x00001a7a:    4770        pG      BX       lr
    $d
        0x00001a7c:    400e0000    ...@    DCD    1074659328
        0x00001a80:    400b0040    @..@    DCD    1074462784
    $t
    i.ADC_EnableMICBias
    ADC_EnableMICBias
        0x00001a84:    4903        .I      LDR      r1,[pc,#12] ; [0x1a94] = 0x40080000
        0x00001a86:    6a89        .j      LDR      r1,[r1,#0x28]
        0x00001a88:    4a02        .J      LDR      r2,[pc,#8] ; [0x1a94] = 0x40080000
        0x00001a8a:    6290        .b      STR      r0,[r2,#0x28]
        0x00001a8c:    2101        .!      MOVS     r1,#1
        0x00001a8e:    62d1        .b      STR      r1,[r2,#0x2c]
        0x00001a90:    4770        pG      BX       lr
    $d
        0x00001a92:    0000        ..      DCW    0
        0x00001a94:    40080000    ...@    DCD    1074266112
    $t
    i.ADC_GetIntFlag
    ADC_GetIntFlag
        0x00001a98:    4601        .F      MOV      r1,r0
        0x00001a9a:    2002        .       MOVS     r0,#2
        0x00001a9c:    4008        .@      ANDS     r0,r0,r1
        0x00001a9e:    2800        .(      CMP      r0,#0
        0x00001aa0:    d004        ..      BEQ      0x1aac ; ADC_GetIntFlag + 20
        0x00001aa2:    480c        .H      LDR      r0,[pc,#48] ; [0x1ad4] = 0x400e0000
        0x00001aa4:    6980        .i      LDR      r0,[r0,#0x18]
        0x00001aa6:    2280        ."      MOVS     r2,#0x80
        0x00001aa8:    4010        .@      ANDS     r0,r0,r2
        0x00001aaa:    4770        pG      BX       lr
        0x00001aac:    2004        .       MOVS     r0,#4
        0x00001aae:    4008        .@      ANDS     r0,r0,r1
        0x00001ab0:    2800        .(      CMP      r0,#0
        0x00001ab2:    d004        ..      BEQ      0x1abe ; ADC_GetIntFlag + 38
        0x00001ab4:    4807        .H      LDR      r0,[pc,#28] ; [0x1ad4] = 0x400e0000
        0x00001ab6:    69c0        .i      LDR      r0,[r0,#0x1c]
        0x00001ab8:    2280        ."      MOVS     r2,#0x80
        0x00001aba:    4010        .@      ANDS     r0,r0,r2
        0x00001abc:    e7f5        ..      B        0x1aaa ; ADC_GetIntFlag + 18
        0x00001abe:    2008        .       MOVS     r0,#8
        0x00001ac0:    4008        .@      ANDS     r0,r0,r1
        0x00001ac2:    2800        .(      CMP      r0,#0
        0x00001ac4:    d004        ..      BEQ      0x1ad0 ; ADC_GetIntFlag + 56
        0x00001ac6:    4804        .H      LDR      r0,[pc,#16] ; [0x1ad8] = 0x400b0040
        0x00001ac8:    6900        .i      LDR      r0,[r0,#0x10]
        0x00001aca:    07c0        ..      LSLS     r0,r0,#31
        0x00001acc:    0fc0        ..      LSRS     r0,r0,#31
        0x00001ace:    e7ec        ..      B        0x1aaa ; ADC_GetIntFlag + 18
        0x00001ad0:    2000        .       MOVS     r0,#0
        0x00001ad2:    e7ea        ..      B        0x1aaa ; ADC_GetIntFlag + 18
    $d
        0x00001ad4:    400e0000    ...@    DCD    1074659328
        0x00001ad8:    400b0040    @..@    DCD    1074462784
    $t
    i.ADC_Init
    ADC_Init
        0x00001adc:    b570        p.      PUSH     {r4-r6,lr}
        0x00001ade:    482e        .H      LDR      r0,[pc,#184] ; [0x1b98] = 0x4003fe1c
        0x00001ae0:    f000f9a6    ....    BL       CLK_EnableModuleClock ; 0x1e30
        0x00001ae4:    482d        -H      LDR      r0,[pc,#180] ; [0x1b9c] = 0x4000001e
        0x00001ae6:    f000f9a3    ....    BL       CLK_EnableModuleClock ; 0x1e30
        0x00001aea:    482d        -H      LDR      r0,[pc,#180] ; [0x1ba0] = 0x400001c
        0x00001aec:    f001ffd4    ....    BL       SYS_ResetModule ; 0x3a98
        0x00001af0:    482b        +H      LDR      r0,[pc,#172] ; [0x1ba0] = 0x400001c
        0x00001af2:    1c80        ..      ADDS     r0,r0,#2
        0x00001af4:    f001ffd0    ....    BL       SYS_ResetModule ; 0x3a98
        0x00001af8:    482a        *H      LDR      r0,[pc,#168] ; [0x1ba4] = 0x40080040
        0x00001afa:    6a40        @j      LDR      r0,[r0,#0x24]
        0x00001afc:    0940        @.      LSRS     r0,r0,#5
        0x00001afe:    0140        @.      LSLS     r0,r0,#5
        0x00001b00:    301e        .0      ADDS     r0,r0,#0x1e
        0x00001b02:    4928        (I      LDR      r1,[pc,#160] ; [0x1ba4] = 0x40080040
        0x00001b04:    6248        Hb      STR      r0,[r1,#0x24]
        0x00001b06:    4608        .F      MOV      r0,r1
        0x00001b08:    6a40        @j      LDR      r0,[r0,#0x24]
        0x00001b0a:    2120         !      MOVS     r1,#0x20
        0x00001b0c:    4308        .C      ORRS     r0,r0,r1
        0x00001b0e:    4925        %I      LDR      r1,[pc,#148] ; [0x1ba4] = 0x40080040
        0x00001b10:    6248        Hb      STR      r0,[r1,#0x24]
        0x00001b12:    4608        .F      MOV      r0,r1
        0x00001b14:    6a40        @j      LDR      r0,[r0,#0x24]
        0x00001b16:    2140        @!      MOVS     r1,#0x40
        0x00001b18:    4388        .C      BICS     r0,r0,r1
        0x00001b1a:    4922        "I      LDR      r1,[pc,#136] ; [0x1ba4] = 0x40080040
        0x00001b1c:    6248        Hb      STR      r0,[r1,#0x24]
        0x00001b1e:    4608        .F      MOV      r0,r1
        0x00001b20:    6a00        .j      LDR      r0,[r0,#0x20]
        0x00001b22:    2109        .!      MOVS     r1,#9
        0x00001b24:    4388        .C      BICS     r0,r0,r1
        0x00001b26:    2106        .!      MOVS     r1,#6
        0x00001b28:    4308        .C      ORRS     r0,r0,r1
        0x00001b2a:    491e        .I      LDR      r1,[pc,#120] ; [0x1ba4] = 0x40080040
        0x00001b2c:    6208        .b      STR      r0,[r1,#0x20]
        0x00001b2e:    481e        .H      LDR      r0,[pc,#120] ; [0x1ba8] = 0xfffffda8
        0x00001b30:    f000f886    ....    BL       ADC_SetPGAGaindB ; 0x1c40
        0x00001b34:    2004        .       MOVS     r0,#4
        0x00001b36:    491b        .I      LDR      r1,[pc,#108] ; [0x1ba4] = 0x40080040
        0x00001b38:    3940        @9      SUBS     r1,r1,#0x40
        0x00001b3a:    6008        .`      STR      r0,[r1,#0]
        0x00001b3c:    2000        .       MOVS     r0,#0
        0x00001b3e:    f7ffffa1    ....    BL       ADC_EnableMICBias ; 0x1a84
        0x00001b42:    2200        ."      MOVS     r2,#0
        0x00001b44:    4611        .F      MOV      r1,r2
        0x00001b46:    2001        .       MOVS     r0,#1
        0x00001b48:    0340        @.      LSLS     r0,r0,#13
        0x00001b4a:    f000f833    ..3.    BL       ADC_SetAMUX ; 0x1bb4
        0x00001b4e:    f000f82f    ../.    BL       ADC_Open ; 0x1bb0
        0x00001b52:    4816        .H      LDR      r0,[pc,#88] ; [0x1bac] = 0x400e0000
        0x00001b54:    68c0        .h      LDR      r0,[r0,#0xc]
        0x00001b56:    0900        ..      LSRS     r0,r0,#4
        0x00001b58:    0100        ..      LSLS     r0,r0,#4
        0x00001b5a:    1c80        ..      ADDS     r0,r0,#2
        0x00001b5c:    4913        .I      LDR      r1,[pc,#76] ; [0x1bac] = 0x400e0000
        0x00001b5e:    60c8        .`      STR      r0,[r1,#0xc]
        0x00001b60:    f000f990    ....    BL       CLK_GetHIRCFreq ; 0x1e84
        0x00001b64:    4606        .F      MOV      r6,r0
        0x00001b66:    217d        }!      MOVS     r1,#0x7d
        0x00001b68:    01c9        ..      LSLS     r1,r1,#7
        0x00001b6a:    f7fefcb7    ....    BL       __aeabi_uidiv ; 0x4dc
        0x00001b6e:    4605        .F      MOV      r5,r0
        0x00001b70:    21c0        .!      MOVS     r1,#0xc0
        0x00001b72:    f7fefcb3    ....    BL       __aeabi_uidiv ; 0x4dc
        0x00001b76:    4604        .F      MOV      r4,r0
        0x00001b78:    b2e0        ..      UXTB     r0,r4
        0x00001b7a:    490c        .I      LDR      r1,[pc,#48] ; [0x1bac] = 0x400e0000
        0x00001b7c:    6088        .`      STR      r0,[r1,#8]
        0x00001b7e:    4608        .F      MOV      r0,r1
        0x00001b80:    6900        .i      LDR      r0,[r0,#0x10]
        0x00001b82:    08c0        ..      LSRS     r0,r0,#3
        0x00001b84:    00c0        ..      LSLS     r0,r0,#3
        0x00001b86:    1dc0        ..      ADDS     r0,r0,#7
        0x00001b88:    6108        .a      STR      r0,[r1,#0x10]
        0x00001b8a:    4806        .H      LDR      r0,[pc,#24] ; [0x1ba4] = 0x40080040
        0x00001b8c:    6a40        @j      LDR      r0,[r0,#0x24]
        0x00001b8e:    2120         !      MOVS     r1,#0x20
        0x00001b90:    4388        .C      BICS     r0,r0,r1
        0x00001b92:    4904        .I      LDR      r1,[pc,#16] ; [0x1ba4] = 0x40080040
        0x00001b94:    6248        Hb      STR      r0,[r1,#0x24]
        0x00001b96:    bd70        p.      POP      {r4-r6,pc}
    $d
        0x00001b98:    4003fe1c    ...@    DCD    1074003484
        0x00001b9c:    4000001e    ...@    DCD    1073741854
        0x00001ba0:    0400001c    ....    DCD    67108892
        0x00001ba4:    40080040    @..@    DCD    1074266176
        0x00001ba8:    fffffda8    ....    DCD    4294966696
        0x00001bac:    400e0000    ...@    DCD    1074659328
    $t
    i.ADC_Open
    ADC_Open
        0x00001bb0:    4770        pG      BX       lr
        0x00001bb2:    0000        ..      MOVS     r0,r0
    i.ADC_SetAMUX
    ADC_SetAMUX
        0x00001bb4:    b510        ..      PUSH     {r4,lr}
        0x00001bb6:    4b15        .K      LDR      r3,[pc,#84] ; [0x1c0c] = 0x40080040
        0x00001bb8:    691b        .i      LDR      r3,[r3,#0x10]
        0x00001bba:    2300        .#      MOVS     r3,#0
        0x00001bbc:    4c13        .L      LDR      r4,[pc,#76] ; [0x1c0c] = 0x40080040
        0x00001bbe:    6123        #a      STR      r3,[r4,#0x10]
        0x00001bc0:    2301        .#      MOVS     r3,#1
        0x00001bc2:    035b        [.      LSLS     r3,r3,#13
        0x00001bc4:    4298        .B      CMP      r0,r3
        0x00001bc6:    d107        ..      BNE      0x1bd8 ; ADC_SetAMUX + 36
        0x00001bc8:    4623        #F      MOV      r3,r4
        0x00001bca:    691b        .i      LDR      r3,[r3,#0x10]
        0x00001bcc:    2403        .$      MOVS     r4,#3
        0x00001bce:    0364        d.      LSLS     r4,r4,#13
        0x00001bd0:    4323        #C      ORRS     r3,r3,r4
        0x00001bd2:    4c0e        .L      LDR      r4,[pc,#56] ; [0x1c0c] = 0x40080040
        0x00001bd4:    6123        #a      STR      r3,[r4,#0x10]
        0x00001bd6:    e017        ..      B        0x1c08 ; ADC_SetAMUX + 84
        0x00001bd8:    2301        .#      MOVS     r3,#1
        0x00001bda:    031b        ..      LSLS     r3,r3,#12
        0x00001bdc:    4298        .B      CMP      r0,r3
        0x00001bde:    d107        ..      BNE      0x1bf0 ; ADC_SetAMUX + 60
        0x00001be0:    4b0a        .K      LDR      r3,[pc,#40] ; [0x1c0c] = 0x40080040
        0x00001be2:    691b        .i      LDR      r3,[r3,#0x10]
        0x00001be4:    2405        .$      MOVS     r4,#5
        0x00001be6:    0324        $.      LSLS     r4,r4,#12
        0x00001be8:    4323        #C      ORRS     r3,r3,r4
        0x00001bea:    4c08        .L      LDR      r4,[pc,#32] ; [0x1c0c] = 0x40080040
        0x00001bec:    6123        #a      STR      r3,[r4,#0x10]
        0x00001bee:    e00b        ..      B        0x1c08 ; ADC_SetAMUX + 84
        0x00001bf0:    4b07        .K      LDR      r3,[pc,#28] ; [0x1c10] = 0xfff
        0x00001bf2:    4298        .B      CMP      r0,r3
        0x00001bf4:    d108        ..      BNE      0x1c08 ; ADC_SetAMUX + 84
        0x00001bf6:    4b05        .K      LDR      r3,[pc,#20] ; [0x1c0c] = 0x40080040
        0x00001bf8:    691c        .i      LDR      r4,[r3,#0x10]
        0x00001bfa:    2301        .#      MOVS     r3,#1
        0x00001bfc:    039b        ..      LSLS     r3,r3,#14
        0x00001bfe:    430b        .C      ORRS     r3,r3,r1
        0x00001c00:    4313        .C      ORRS     r3,r3,r2
        0x00001c02:    431c        .C      ORRS     r4,r4,r3
        0x00001c04:    4b01        .K      LDR      r3,[pc,#4] ; [0x1c0c] = 0x40080040
        0x00001c06:    611c        .a      STR      r4,[r3,#0x10]
        0x00001c08:    bd10        ..      POP      {r4,pc}
    $d
        0x00001c0a:    0000        ..      DCW    0
        0x00001c0c:    40080040    @..@    DCD    1074266176
        0x00001c10:    00000fff    ....    DCD    4095
    $t
    i.ADC_SetGPIOChannel
    ADC_SetGPIOChannel
        0x00001c14:    b510        ..      PUSH     {r4,lr}
        0x00001c16:    4604        .F      MOV      r4,r0
        0x00001c18:    b2e2        ..      UXTB     r2,r4
        0x00001c1a:    200f        .       MOVS     r0,#0xf
        0x00001c1c:    0200        ..      LSLS     r0,r0,#8
        0x00001c1e:    4020         @      ANDS     r0,r0,r4
        0x00001c20:    4601        .F      MOV      r1,r0
        0x00001c22:    4805        .H      LDR      r0,[pc,#20] ; [0x1c38] = 0xfff
        0x00001c24:    f7ffffc6    ....    BL       ADC_SetAMUX ; 0x1bb4
        0x00001c28:    0b24        $.      LSRS     r4,r4,#12
        0x00001c2a:    2200        ."      MOVS     r2,#0
        0x00001c2c:    4621        !F      MOV      r1,r4
        0x00001c2e:    4803        .H      LDR      r0,[pc,#12] ; [0x1c3c] = 0x50004040
        0x00001c30:    f000fefd    ....    BL       GPIO_SetMode ; 0x2a2e
        0x00001c34:    bd10        ..      POP      {r4,pc}
    $d
        0x00001c36:    0000        ..      DCW    0
        0x00001c38:    00000fff    ....    DCD    4095
        0x00001c3c:    50004040    @@.P    DCD    1342193728
    $t
    i.ADC_SetPGAGaindB
    ADC_SetPGAGaindB
        0x00001c40:    b510        ..      PUSH     {r4,lr}
        0x00001c42:    4604        .F      MOV      r4,r0
        0x00001c44:    480b        .H      LDR      r0,[pc,#44] ; [0x1c74] = 0xfffffb50
        0x00001c46:    4284        .B      CMP      r4,r0
        0x00001c48:    da01        ..      BGE      0x1c4e ; ADC_SetPGAGaindB + 14
        0x00001c4a:    4604        .F      MOV      r4,r0
        0x00001c4c:    e003        ..      B        0x1c56 ; ADC_SetPGAGaindB + 22
        0x00001c4e:    480a        .H      LDR      r0,[pc,#40] ; [0x1c78] = 0xdc5
        0x00001c50:    4284        .B      CMP      r4,r0
        0x00001c52:    dd00        ..      BLE      0x1c56 ; ADC_SetPGAGaindB + 22
        0x00001c54:    4604        .F      MOV      r4,r0
        0x00001c56:    214b        K!      MOVS     r1,#0x4b
        0x00001c58:    0108        ..      LSLS     r0,r1,#4
        0x00001c5a:    1820         .      ADDS     r0,r4,r0
        0x00001c5c:    f7fefc4c    ..L.    BL       __aeabi_idiv ; 0x4f8
        0x00001c60:    0684        ..      LSLS     r4,r0,#26
        0x00001c62:    0ea4        ..      LSRS     r4,r4,#26
        0x00001c64:    4805        .H      LDR      r0,[pc,#20] ; [0x1c7c] = 0x40080040
        0x00001c66:    6284        .b      STR      r4,[r0,#0x28]
        0x00001c68:    204b        K       MOVS     r0,#0x4b
        0x00001c6a:    4360        `C      MULS     r0,r4,r0
        0x00001c6c:    214b        K!      MOVS     r1,#0x4b
        0x00001c6e:    0109        ..      LSLS     r1,r1,#4
        0x00001c70:    1a40        @.      SUBS     r0,r0,r1
        0x00001c72:    bd10        ..      POP      {r4,pc}
    $d
        0x00001c74:    fffffb50    P...    DCD    4294966096
        0x00001c78:    00000dc5    ....    DCD    3525
        0x00001c7c:    40080040    @..@    DCD    1074266176
    $t
    i.ADC_SingleModeTest
    ADC_SingleModeTest
        0x00001c80:    b570        p.      PUSH     {r4-r6,lr}
        0x00001c82:    2001        .       MOVS     r0,#1
        0x00001c84:    f7fffebc    ....    BL       ADC_EnableInt ; 0x1a00
        0x00001c88:    2001        .       MOVS     r0,#1
        0x00001c8a:    490e        .I      LDR      r1,[pc,#56] ; [0x1cc4] = 0x400e0000
        0x00001c8c:    6048        H`      STR      r0,[r1,#4]
        0x00001c8e:    bf00        ..      NOP      
        0x00001c90:    2001        .       MOVS     r0,#1
        0x00001c92:    f7ffff01    ....    BL       ADC_GetIntFlag ; 0x1a98
        0x00001c96:    2800        .(      CMP      r0,#0
        0x00001c98:    d1fa        ..      BNE      0x1c90 ; ADC_SingleModeTest + 16
        0x00001c9a:    2401        .$      MOVS     r4,#1
        0x00001c9c:    e007        ..      B        0x1cae ; ADC_SingleModeTest + 46
        0x00001c9e:    2001        .       MOVS     r0,#1
        0x00001ca0:    f000fdce    ....    BL       DelayMsec ; 0x2840
        0x00001ca4:    4807        .H      LDR      r0,[pc,#28] ; [0x1cc4] = 0x400e0000
        0x00001ca6:    6800        .h      LDR      r0,[r0,#0]
        0x00001ca8:    b285        ..      UXTH     r5,r0
        0x00001caa:    1c60        `.      ADDS     r0,r4,#1
        0x00001cac:    b2c4        ..      UXTB     r4,r0
        0x00001cae:    2c08        .,      CMP      r4,#8
        0x00001cb0:    ddf5        ..      BLE      0x1c9e ; ADC_SingleModeTest + 30
        0x00001cb2:    2001        .       MOVS     r0,#1
        0x00001cb4:    43c0        .C      MVNS     r0,r0
        0x00001cb6:    4903        .I      LDR      r1,[pc,#12] ; [0x1cc4] = 0x400e0000
        0x00001cb8:    6048        H`      STR      r0,[r1,#4]
        0x00001cba:    2001        .       MOVS     r0,#1
        0x00001cbc:    f7fffe72    ..r.    BL       ADC_DisableInt ; 0x19a4
        0x00001cc0:    4628        (F      MOV      r0,r5
        0x00001cc2:    bd70        p.      POP      {r4-r6,pc}
    $d
        0x00001cc4:    400e0000    ...@    DCD    1074659328
    $t
    i.AccCalibrate
    AccCalibrate
        0x00001cc8:    b570        p.      PUSH     {r4-r6,lr}
        0x00001cca:    460c        .F      MOV      r4,r1
        0x00001ccc:    4605        .F      MOV      r5,r0
        0x00001cce:    f003ff6f    ..o.    BL       reset_calibration_matrices ; 0x5bb0
        0x00001cd2:    4807        .H      LDR      r0,[pc,#28] ; [0x1cf0] = 0x20001770
        0x00001cd4:    2200        ."      MOVS     r2,#0
        0x00001cd6:    6082        .`      STR      r2,[r0,#8]
        0x00001cd8:    6042        B`      STR      r2,[r0,#4]
        0x00001cda:    6002        .`      STR      r2,[r0,#0]
        0x00001cdc:    4a05        .J      LDR      r2,[pc,#20] ; [0x1cf4] = 0x397fda40
        0x00001cde:    6142        Ba      STR      r2,[r0,#0x14]
        0x00001ce0:    6102        .a      STR      r2,[r0,#0x10]
        0x00001ce2:    60c2        .`      STR      r2,[r0,#0xc]
        0x00001ce4:    4621        !F      MOV      r1,r4
        0x00001ce6:    4628        (F      MOV      r0,r5
        0x00001ce8:    f003f830    ..0.    BL       calibrate_model_acc ; 0x4d4c
        0x00001cec:    bd70        p.      POP      {r4-r6,pc}
    $d
        0x00001cee:    0000        ..      DCW    0
        0x00001cf0:    20001770    p..     DCD    536876912
        0x00001cf4:    397fda40    @..9    DCD    964680256
    $t
    i.AccCalibrationZ
    AccCalibrationZ
        0x00001cf8:    b510        ..      PUSH     {r4,lr}
        0x00001cfa:    f003fd01    ....    BL       nvtCalACCInit ; 0x5700
        0x00001cfe:    bf00        ..      NOP      
        0x00001d00:    2001        .       MOVS     r0,#1
        0x00001d02:    f000fd9d    ....    BL       DelayMsec ; 0x2840
        0x00001d06:    f001fe11    ....    BL       Read_MPU6050_AccX ; 0x392c
        0x00001d0a:    b200        ..      SXTH     r0,r0
        0x00001d0c:    490b        .I      LDR      r1,[pc,#44] ; [0x1d3c] = 0x200006aa
        0x00001d0e:    8008        ..      STRH     r0,[r1,#0]
        0x00001d10:    f001fe18    ....    BL       Read_MPU6050_AccY ; 0x3944
        0x00001d14:    b200        ..      SXTH     r0,r0
        0x00001d16:    4909        .I      LDR      r1,[pc,#36] ; [0x1d3c] = 0x200006aa
        0x00001d18:    8048        H.      STRH     r0,[r1,#2]
        0x00001d1a:    f001fe1f    ....    BL       Read_MPU6050_AccZ ; 0x395c
        0x00001d1e:    b200        ..      SXTH     r0,r0
        0x00001d20:    4906        .I      LDR      r1,[pc,#24] ; [0x1d3c] = 0x200006aa
        0x00001d22:    8088        ..      STRH     r0,[r1,#4]
        0x00001d24:    4608        .F      MOV      r0,r1
        0x00001d26:    f003fd79    ..y.    BL       nvtInputSensorRawACC ; 0x581c
        0x00001d2a:    2000        .       MOVS     r0,#0
        0x00001d2c:    f003fca0    ....    BL       nvtCalACCBufferFill ; 0x5670
        0x00001d30:    4604        .F      MOV      r4,r0
        0x00001d32:    1c60        `.      ADDS     r0,r4,#1
        0x00001d34:    2800        .(      CMP      r0,#0
        0x00001d36:    d0e3        ..      BEQ      0x1d00 ; AccCalibrationZ + 8
        0x00001d38:    bd10        ..      POP      {r4,pc}
    $d
        0x00001d3a:    0000        ..      DCW    0
        0x00001d3c:    200006aa    ...     DCD    536872618
    $t
    i.AccFilterInit
    AccFilterInit
        0x00001d40:    b510        ..      PUSH     {r4,lr}
        0x00001d42:    f000feaf    ....    BL       GetAHRSPeriod ; 0x2aa4
        0x00001d46:    4601        .F      MOV      r1,r0
        0x00001d48:    207d        }       MOVS     r0,#0x7d
        0x00001d4a:    00c0        ..      LSLS     r0,r0,#3
        0x00001d4c:    f7fefbc6    ....    BL       __aeabi_uidiv ; 0x4dc
        0x00001d50:    f7fff925    ..%.    BL       __aeabi_ui2d ; 0xf9e
        0x00001d54:    4a09        .J      LDR      r2,[pc,#36] ; [0x1d7c] = 0x70a3d70b
        0x00001d56:    4b0a        .K      LDR      r3,[pc,#40] ; [0x1d80] = 0x404f6a3d
        0x00001d58:    f7fefe9e    ....    BL       __aeabi_ddiv ; 0xa98
        0x00001d5c:    4602        .F      MOV      r2,r0
        0x00001d5e:    460b        .F      MOV      r3,r1
        0x00001d60:    2000        .       MOVS     r0,#0
        0x00001d62:    4908        .I      LDR      r1,[pc,#32] ; [0x1d84] = 0x40700000
        0x00001d64:    f7fefe98    ....    BL       __aeabi_ddiv ; 0xa98
        0x00001d68:    2200        ."      MOVS     r2,#0
        0x00001d6a:    4b07        .K      LDR      r3,[pc,#28] ; [0x1d88] = 0x3fe00000
        0x00001d6c:    f7fefe68    ..h.    BL       __aeabi_dadd ; 0xa40
        0x00001d70:    f7fff8b6    ....    BL       __aeabi_d2iz ; 0xee0
        0x00001d74:    4905        .I      LDR      r1,[pc,#20] ; [0x1d8c] = 0x200006ec
        0x00001d76:    7008        .p      STRB     r0,[r1,#0]
        0x00001d78:    bd10        ..      POP      {r4,pc}
    $d
        0x00001d7a:    0000        ..      DCW    0
        0x00001d7c:    70a3d70b    ...p    DCD    1889785611
        0x00001d80:    404f6a3d    =jO@    DCD    1078946365
        0x00001d84:    40700000    ..p@    DCD    1081081856
        0x00001d88:    3fe00000    ...?    DCD    1071644672
        0x00001d8c:    200006ec    ...     DCD    536872684
    $t
    i.AccZCalibrate
    AccZCalibrate
        0x00001d90:    b5f3        ..      PUSH     {r0,r1,r4-r7,lr}
        0x00001d92:    2500        .%      MOVS     r5,#0
        0x00001d94:    b081        ..      SUB      sp,sp,#4
        0x00001d96:    9802        ..      LDR      r0,[sp,#8]
        0x00001d98:    462e        .F      MOV      r6,r5
        0x00001d9a:    4637        7F      MOV      r7,r6
        0x00001d9c:    462c        ,F      MOV      r4,r5
        0x00001d9e:    2800        .(      CMP      r0,#0
        0x00001da0:    dd15        ..      BLE      0x1dce ; AccZCalibrate + 62
        0x00001da2:    4620         F      MOV      r0,r4
        0x00001da4:    2106        .!      MOVS     r1,#6
        0x00001da6:    4348        HC      MULS     r0,r1,r0
        0x00001da8:    9901        ..      LDR      r1,[sp,#4]
        0x00001daa:    9a01        ..      LDR      r2,[sp,#4]
        0x00001dac:    5e09        .^      LDRSH    r1,[r1,r0]
        0x00001dae:    1880        ..      ADDS     r0,r0,r2
        0x00001db0:    2202        ."      MOVS     r2,#2
        0x00001db2:    2304        .#      MOVS     r3,#4
        0x00001db4:    5e82        .^      LDRSH    r2,[r0,r2]
        0x00001db6:    5ec3        .^      LDRSH    r3,[r0,r3]
        0x00001db8:    186d        m.      ADDS     r5,r5,r1
        0x00001dba:    18b6        ..      ADDS     r6,r6,r2
        0x00001dbc:    18ff        ..      ADDS     r7,r7,r3
        0x00001dbe:    a017        ..      ADR      r0,{pc}+0x5e ; 0x1e1c
        0x00001dc0:    f7fefa0e    ....    BL       __2printf ; 0x1e0
        0x00001dc4:    1c64        d.      ADDS     r4,r4,#1
        0x00001dc6:    9802        ..      LDR      r0,[sp,#8]
        0x00001dc8:    b2e4        ..      UXTB     r4,r4
        0x00001dca:    4284        .B      CMP      r4,r0
        0x00001dcc:    dbe9        ..      BLT      0x1da2 ; AccZCalibrate + 18
        0x00001dce:    4601        .F      MOV      r1,r0
        0x00001dd0:    4628        (F      MOV      r0,r5
        0x00001dd2:    f7fefb91    ....    BL       __aeabi_idiv ; 0x4f8
        0x00001dd6:    f7fffb55    ..U.    BL       __aeabi_i2f ; 0x1484
        0x00001dda:    4d13        .M      LDR      r5,[pc,#76] ; [0x1e28] = 0x200017e8
        0x00001ddc:    6028        (`      STR      r0,[r5,#0]
        0x00001dde:    4630        0F      MOV      r0,r6
        0x00001de0:    9902        ..      LDR      r1,[sp,#8]
        0x00001de2:    f7fefb89    ....    BL       __aeabi_idiv ; 0x4f8
        0x00001de6:    f7fffb4d    ..M.    BL       __aeabi_i2f ; 0x1484
        0x00001dea:    6068        h`      STR      r0,[r5,#4]
        0x00001dec:    480f        .H      LDR      r0,[pc,#60] ; [0x1e2c] = 0x20000808
        0x00001dee:    6d84        .m      LDR      r4,[r0,#0x58]
        0x00001df0:    207f        .       MOVS     r0,#0x7f
        0x00001df2:    4621        !F      MOV      r1,r4
        0x00001df4:    05c0        ..      LSLS     r0,r0,#23
        0x00001df6:    f7fffa33    ..3.    BL       __aeabi_fdiv ; 0x1260
        0x00001dfa:    4606        .F      MOV      r6,r0
        0x00001dfc:    4638        8F      MOV      r0,r7
        0x00001dfe:    9902        ..      LDR      r1,[sp,#8]
        0x00001e00:    f7fefb7a    ..z.    BL       __aeabi_idiv ; 0x4f8
        0x00001e04:    f7fffb3e    ..>.    BL       __aeabi_i2f ; 0x1484
        0x00001e08:    4631        1F      MOV      r1,r6
        0x00001e0a:    f004ff53    ..S.    BL       __aeabi_fsub ; 0x6cb4
        0x00001e0e:    60ec        .`      STR      r4,[r5,#0xc]
        0x00001e10:    612c        ,a      STR      r4,[r5,#0x10]
        0x00001e12:    616c        la      STR      r4,[r5,#0x14]
        0x00001e14:    60a8        .`      STR      r0,[r5,#8]
        0x00001e16:    b003        ..      ADD      sp,sp,#0xc
        0x00001e18:    bdf0        ..      POP      {r4-r7,pc}
    $d
        0x00001e1a:    0000        ..      DCW    0
        0x00001e1c:    20206425    %d      DCD    538993701
        0x00001e20:    20206425    %d      DCD    538993701
        0x00001e24:    000a6425    %d..    DCD    680997
        0x00001e28:    200017e8    ...     DCD    536877032
        0x00001e2c:    20000808    ...     DCD    536872968
    $t
    i.CLK_EnableModuleClock
    CLK_EnableModuleClock
        0x00001e30:    0f81        ..      LSRS     r1,r0,#30
        0x00001e32:    0089        ..      LSLS     r1,r1,#2
        0x00001e34:    4a06        .J      LDR      r2,[pc,#24] ; [0x1e50] = 0x50000200
        0x00001e36:    1889        ..      ADDS     r1,r1,r2
        0x00001e38:    6849        Ih      LDR      r1,[r1,#4]
        0x00001e3a:    06c3        ..      LSLS     r3,r0,#27
        0x00001e3c:    0edb        ..      LSRS     r3,r3,#27
        0x00001e3e:    2201        ."      MOVS     r2,#1
        0x00001e40:    409a        .@      LSLS     r2,r2,r3
        0x00001e42:    4311        .C      ORRS     r1,r1,r2
        0x00001e44:    0f82        ..      LSRS     r2,r0,#30
        0x00001e46:    0092        ..      LSLS     r2,r2,#2
        0x00001e48:    4b01        .K      LDR      r3,[pc,#4] ; [0x1e50] = 0x50000200
        0x00001e4a:    18d2        ..      ADDS     r2,r2,r3
        0x00001e4c:    6051        Q`      STR      r1,[r2,#4]
        0x00001e4e:    4770        pG      BX       lr
    $d
        0x00001e50:    50000200    ...P    DCD    1342177792
    $t
    i.CLK_EnableXtalRC
    CLK_EnableXtalRC
        0x00001e54:    b570        p.      PUSH     {r4-r6,lr}
        0x00001e56:    4604        .F      MOV      r4,r0
        0x00001e58:    f001fe36    ..6.    BL       SYS_Unlock ; 0x3ac8
        0x00001e5c:    4605        .F      MOV      r5,r0
        0x00001e5e:    4804        .H      LDR      r0,[pc,#16] ; [0x1e70] = 0x50000200
        0x00001e60:    6800        .h      LDR      r0,[r0,#0]
        0x00001e62:    4320         C      ORRS     r0,r0,r4
        0x00001e64:    4902        .I      LDR      r1,[pc,#8] ; [0x1e70] = 0x50000200
        0x00001e66:    6008        .`      STR      r0,[r1,#0]
        0x00001e68:    4628        (F      MOV      r0,r5
        0x00001e6a:    f001fe07    ....    BL       SYS_Lock ; 0x3a7c
        0x00001e6e:    bd70        p.      POP      {r4-r6,pc}
    $d
        0x00001e70:    50000200    ...P    DCD    1342177792
    $t
    i.CLK_GetHCLKFreq
    CLK_GetHCLKFreq
        0x00001e74:    b510        ..      PUSH     {r4,lr}
        0x00001e76:    f002f8eb    ....    BL       SystemCoreClockUpdate ; 0x4050
        0x00001e7a:    4801        .H      LDR      r0,[pc,#4] ; [0x1e80] = 0x20000000
        0x00001e7c:    6800        .h      LDR      r0,[r0,#0]
        0x00001e7e:    bd10        ..      POP      {r4,pc}
    $d
        0x00001e80:    20000000    ...     DCD    536870912
    $t
    i.CLK_GetHIRCFreq
    CLK_GetHIRCFreq
        0x00001e84:    4804        .H      LDR      r0,[pc,#16] ; [0x1e98] = 0x50000200
        0x00001e86:    6900        .i      LDR      r0,[r0,#0x10]
        0x00001e88:    2140        @!      MOVS     r1,#0x40
        0x00001e8a:    4008        .@      ANDS     r0,r0,r1
        0x00001e8c:    0980        ..      LSRS     r0,r0,#6
        0x00001e8e:    0080        ..      LSLS     r0,r0,#2
        0x00001e90:    4902        .I      LDR      r1,[pc,#8] ; [0x1e9c] = 0x20000014
        0x00001e92:    5808        .X      LDR      r0,[r1,r0]
        0x00001e94:    4770        pG      BX       lr
    $d
        0x00001e96:    0000        ..      DCW    0
        0x00001e98:    50000200    ...P    DCD    1342177792
        0x00001e9c:    20000014    ...     DCD    536870932
    $t
    i.CLK_SetHCLK
    CLK_SetHCLK
        0x00001ea0:    b5f8        ..      PUSH     {r3-r7,lr}
        0x00001ea2:    4604        .F      MOV      r4,r0
        0x00001ea4:    460d        .F      MOV      r5,r1
        0x00001ea6:    4616        .F      MOV      r6,r2
        0x00001ea8:    f001fe0e    ....    BL       SYS_Unlock ; 0x3ac8
        0x00001eac:    4607        .F      MOV      r7,r0
        0x00001eae:    480d        .H      LDR      r0,[pc,#52] ; [0x1ee4] = 0x50000200
        0x00001eb0:    6900        .i      LDR      r0,[r0,#0x10]
        0x00001eb2:    2147        G!      MOVS     r1,#0x47
        0x00001eb4:    4388        .C      BICS     r0,r0,r1
        0x00001eb6:    4320         C      ORRS     r0,r0,r4
        0x00001eb8:    4328        (C      ORRS     r0,r0,r5
        0x00001eba:    490a        .I      LDR      r1,[pc,#40] ; [0x1ee4] = 0x50000200
        0x00001ebc:    6108        .a      STR      r0,[r1,#0x10]
        0x00001ebe:    4608        .F      MOV      r0,r1
        0x00001ec0:    6900        .i      LDR      r0,[r0,#0x10]
        0x00001ec2:    08c0        ..      LSRS     r0,r0,#3
        0x00001ec4:    00c0        ..      LSLS     r0,r0,#3
        0x00001ec6:    4320         C      ORRS     r0,r0,r4
        0x00001ec8:    6108        .a      STR      r0,[r1,#0x10]
        0x00001eca:    4608        .F      MOV      r0,r1
        0x00001ecc:    6980        .i      LDR      r0,[r0,#0x18]
        0x00001ece:    0900        ..      LSRS     r0,r0,#4
        0x00001ed0:    0100        ..      LSLS     r0,r0,#4
        0x00001ed2:    4330        0C      ORRS     r0,r0,r6
        0x00001ed4:    6188        .a      STR      r0,[r1,#0x18]
        0x00001ed6:    4638        8F      MOV      r0,r7
        0x00001ed8:    f001fdd0    ....    BL       SYS_Lock ; 0x3a7c
        0x00001edc:    f002f8b8    ....    BL       SystemCoreClockUpdate ; 0x4050
        0x00001ee0:    bdf8        ..      POP      {r3-r7,pc}
    $d
        0x00001ee2:    0000        ..      DCW    0
        0x00001ee4:    50000200    ...P    DCD    1342177792
    $t
    i.CLK_SetModuleClock
    CLK_SetModuleClock
        0x00001ee8:    b5f0        ..      PUSH     {r4-r7,lr}
        0x00001eea:    460b        .F      MOV      r3,r1
        0x00001eec:    2100        .!      MOVS     r1,#0
        0x00001eee:    2400        .$      MOVS     r4,#0
        0x00001ef0:    2500        .%      MOVS     r5,#0
        0x00001ef2:    0386        ..      LSLS     r6,r0,#14
        0x00001ef4:    0e36        6.      LSRS     r6,r6,#24
        0x00001ef6:    2e00        ..      CMP      r6,#0
        0x00001ef8:    d00f        ..      BEQ      0x1f1a ; CLK_SetModuleClock + 50
        0x00001efa:    0306        ..      LSLS     r6,r0,#12
        0x00001efc:    0fb6        ..      LSRS     r6,r6,#30
        0x00001efe:    00b6        ..      LSLS     r6,r6,#2
        0x00001f00:    4f11        .O      LDR      r7,[pc,#68] ; [0x1f48] = 0x50000218
        0x00001f02:    19f5        ..      ADDS     r5,r6,r7
        0x00001f04:    6829        )h      LDR      r1,[r5,#0]
        0x00001f06:    0386        ..      LSLS     r6,r0,#14
        0x00001f08:    0e37        7.      LSRS     r7,r6,#24
        0x00001f0a:    0586        ..      LSLS     r6,r0,#22
        0x00001f0c:    0ef6        ..      LSRS     r6,r6,#27
        0x00001f0e:    40b7        .@      LSLS     r7,r7,r6
        0x00001f10:    460e        .F      MOV      r6,r1
        0x00001f12:    43be        .C      BICS     r6,r6,r7
        0x00001f14:    4316        .C      ORRS     r6,r6,r2
        0x00001f16:    4631        1F      MOV      r1,r6
        0x00001f18:    6029        )`      STR      r1,[r5,#0]
        0x00001f1a:    0106        ..      LSLS     r6,r0,#4
        0x00001f1c:    0f76        v.      LSRS     r6,r6,#29
        0x00001f1e:    2e00        ..      CMP      r6,#0
        0x00001f20:    d010        ..      BEQ      0x1f44 ; CLK_SetModuleClock + 92
        0x00001f22:    0086        ..      LSLS     r6,r0,#2
        0x00001f24:    0fb6        ..      LSRS     r6,r6,#30
        0x00001f26:    00b6        ..      LSLS     r6,r6,#2
        0x00001f28:    4f07        .O      LDR      r7,[pc,#28] ; [0x1f48] = 0x50000218
        0x00001f2a:    3f08        .?      SUBS     r7,r7,#8
        0x00001f2c:    19f4        ..      ADDS     r4,r6,r7
        0x00001f2e:    6821        !h      LDR      r1,[r4,#0]
        0x00001f30:    0106        ..      LSLS     r6,r0,#4
        0x00001f32:    0f77        w.      LSRS     r7,r6,#29
        0x00001f34:    01c6        ..      LSLS     r6,r0,#7
        0x00001f36:    0ef6        ..      LSRS     r6,r6,#27
        0x00001f38:    40b7        .@      LSLS     r7,r7,r6
        0x00001f3a:    460e        .F      MOV      r6,r1
        0x00001f3c:    43be        .C      BICS     r6,r6,r7
        0x00001f3e:    431e        .C      ORRS     r6,r6,r3
        0x00001f40:    4631        1F      MOV      r1,r6
        0x00001f42:    6021        !`      STR      r1,[r4,#0]
        0x00001f44:    bdf0        ..      POP      {r4-r7,pc}
    $d
        0x00001f46:    0000        ..      DCW    0
        0x00001f48:    50000218    ...P    DCD    1342177816
    $t
    i.CalInfoInit
    CalInfoInit
        0x00001f4c:    2100        .!      MOVS     r1,#0
        0x00001f4e:    480d        .H      LDR      r0,[pc,#52] ; [0x1f84] = 0x20000808
        0x00001f50:    227f        ."      MOVS     r2,#0x7f
        0x00001f52:    6001        .`      STR      r1,[r0,#0]
        0x00001f54:    6041        A`      STR      r1,[r0,#4]
        0x00001f56:    05d2        ..      LSLS     r2,r2,#23
        0x00001f58:    60c2        .`      STR      r2,[r0,#0xc]
        0x00001f5a:    6102        .a      STR      r2,[r0,#0x10]
        0x00001f5c:    6081        .`      STR      r1,[r0,#8]
        0x00001f5e:    6181        .a      STR      r1,[r0,#0x18]
        0x00001f60:    61c1        .a      STR      r1,[r0,#0x1c]
        0x00001f62:    6142        Ba      STR      r2,[r0,#0x14]
        0x00001f64:    6242        Bb      STR      r2,[r0,#0x24]
        0x00001f66:    6282        .b      STR      r2,[r0,#0x28]
        0x00001f68:    6201        .b      STR      r1,[r0,#0x20]
        0x00001f6a:    6301        .c      STR      r1,[r0,#0x30]
        0x00001f6c:    6341        Ac      STR      r1,[r0,#0x34]
        0x00001f6e:    4b06        .K      LDR      r3,[pc,#24] ; [0x1f88] = 0x3951b717
        0x00001f70:    63c3        .c      STR      r3,[r0,#0x3c]
        0x00001f72:    6403        .d      STR      r3,[r0,#0x40]
        0x00001f74:    6381        .c      STR      r1,[r0,#0x38]
        0x00001f76:    6481        .d      STR      r1,[r0,#0x48]
        0x00001f78:    64c1        .d      STR      r1,[r0,#0x4c]
        0x00001f7a:    62c2        .b      STR      r2,[r0,#0x2c]
        0x00001f7c:    6443        Cd      STR      r3,[r0,#0x44]
        0x00001f7e:    6542        Be      STR      r2,[r0,#0x54]
        0x00001f80:    6501        .e      STR      r1,[r0,#0x50]
        0x00001f82:    4770        pG      BX       lr
    $d
        0x00001f84:    20000808    ...     DCD    536872968
        0x00001f88:    3951b717    ..Q9    DCD    961656599
    $t
    i.CheckEmpirical
    CheckEmpirical
        0x00001f8c:    b5f0        ..      PUSH     {r4-r7,lr}
        0x00001f8e:    4606        .F      MOV      r6,r0
        0x00001f90:    4a66        fJ      LDR      r2,[pc,#408] ; [0x212c] = 0x6e44
        0x00001f92:    b085        ..      SUB      sp,sp,#0x14
        0x00001f94:    6851        Qh      LDR      r1,[r2,#4]
        0x00001f96:    6810        .h      LDR      r0,[r2,#0]
        0x00001f98:    6892        .h      LDR      r2,[r2,#8]
        0x00001f9a:    1df4        ..      ADDS     r4,r6,#7
        0x00001f9c:    2500        .%      MOVS     r5,#0
        0x00001f9e:    34ff        .4      ADDS     r4,r4,#0xff
        0x00001fa0:    34fa        .4      ADDS     r4,r4,#0xfa
        0x00001fa2:    9202        ..      STR      r2,[sp,#8]
        0x00001fa4:    9101        ..      STR      r1,[sp,#4]
        0x00001fa6:    9000        ..      STR      r0,[sp,#0]
        0x00001fa8:    4961        aI      LDR      r1,[pc,#388] ; [0x2130] = 0x40400000
        0x00001faa:    68a0        .h      LDR      r0,[r4,#8]
        0x00001fac:    f004fdf2    ....    BL       __aeabi_fmul ; 0x6b94
        0x00001fb0:    4607        .F      MOV      r7,r0
        0x00001fb2:    2004        .       MOVS     r0,#4
        0x00001fb4:    5e20         ^      LDRSH    r0,[r4,r0]
        0x00001fb6:    f7fffa65    ..e.    BL       __aeabi_i2f ; 0x1484
        0x00001fba:    4639        9F      MOV      r1,r7
        0x00001fbc:    f004fe7a    ..z.    BL       __aeabi_fsub ; 0x6cb4
        0x00001fc0:    006f        o.      LSLS     r7,r5,#1
        0x00001fc2:    9003        ..      STR      r0,[sp,#0xc]
        0x00001fc4:    5ff0        ._      LDRSH    r0,[r6,r7]
        0x00001fc6:    f7fffa5d    ..].    BL       __aeabi_i2f ; 0x1484
        0x00001fca:    9903        ..      LDR      r1,[sp,#0xc]
        0x00001fcc:    f004fdb8    ....    BL       __aeabi_cfcmple ; 0x6b40
        0x00001fd0:    d206        ..      BCS      0x1fe0 ; CheckEmpirical + 84
        0x00001fd2:    9800        ..      LDR      r0,[sp,#0]
        0x00001fd4:    b2a9        ..      UXTH     r1,r5
        0x00001fd6:    0c00        ..      LSRS     r0,r0,#16
        0x00001fd8:    0400        ..      LSLS     r0,r0,#16
        0x00001fda:    4308        .C      ORRS     r0,r0,r1
        0x00001fdc:    9000        ..      STR      r0,[sp,#0]
        0x00001fde:    e078        x.      B        0x20d2 ; CheckEmpirical + 326
        0x00001fe0:    2101        .!      MOVS     r1,#1
        0x00001fe2:    68a0        .h      LDR      r0,[r4,#8]
        0x00001fe4:    f7fffa5a    ..Z.    BL       __ARM_scalbnf ; 0x149c
        0x00001fe8:    9003        ..      STR      r0,[sp,#0xc]
        0x00001fea:    2004        .       MOVS     r0,#4
        0x00001fec:    5e20         ^      LDRSH    r0,[r4,r0]
        0x00001fee:    f7fffa49    ..I.    BL       __aeabi_i2f ; 0x1484
        0x00001ff2:    9903        ..      LDR      r1,[sp,#0xc]
        0x00001ff4:    f004fe5e    ..^.    BL       __aeabi_fsub ; 0x6cb4
        0x00001ff8:    9003        ..      STR      r0,[sp,#0xc]
        0x00001ffa:    5ff0        ._      LDRSH    r0,[r6,r7]
        0x00001ffc:    f7fffa42    ..B.    BL       __aeabi_i2f ; 0x1484
        0x00002000:    9903        ..      LDR      r1,[sp,#0xc]
        0x00002002:    f004fd9d    ....    BL       __aeabi_cfcmple ; 0x6b40
        0x00002006:    d205        ..      BCS      0x2014 ; CheckEmpirical + 136
        0x00002008:    9800        ..      LDR      r0,[sp,#0]
        0x0000200a:    0429        ).      LSLS     r1,r5,#16
        0x0000200c:    b280        ..      UXTH     r0,r0
        0x0000200e:    4308        .C      ORRS     r0,r0,r1
        0x00002010:    9000        ..      STR      r0,[sp,#0]
        0x00002012:    e05e        ^.      B        0x20d2 ; CheckEmpirical + 326
        0x00002014:    2004        .       MOVS     r0,#4
        0x00002016:    5e20         ^      LDRSH    r0,[r4,r0]
        0x00002018:    f7fffa34    ..4.    BL       __aeabi_i2f ; 0x1484
        0x0000201c:    68a1        .h      LDR      r1,[r4,#8]
        0x0000201e:    f004fe49    ..I.    BL       __aeabi_fsub ; 0x6cb4
        0x00002022:    9003        ..      STR      r0,[sp,#0xc]
        0x00002024:    5ff0        ._      LDRSH    r0,[r6,r7]
        0x00002026:    f7fffa2d    ..-.    BL       __aeabi_i2f ; 0x1484
        0x0000202a:    9903        ..      LDR      r1,[sp,#0xc]
        0x0000202c:    f004fd88    ....    BL       __aeabi_cfcmple ; 0x6b40
        0x00002030:    d206        ..      BCS      0x2040 ; CheckEmpirical + 180
        0x00002032:    9801        ..      LDR      r0,[sp,#4]
        0x00002034:    b2a9        ..      UXTH     r1,r5
        0x00002036:    0c00        ..      LSRS     r0,r0,#16
        0x00002038:    0400        ..      LSLS     r0,r0,#16
        0x0000203a:    4308        .C      ORRS     r0,r0,r1
        0x0000203c:    9001        ..      STR      r0,[sp,#4]
        0x0000203e:    e048        H.      B        0x20d2 ; CheckEmpirical + 326
        0x00002040:    2004        .       MOVS     r0,#4
        0x00002042:    5e20         ^      LDRSH    r0,[r4,r0]
        0x00002044:    f7fffa1e    ....    BL       __aeabi_i2f ; 0x1484
        0x00002048:    68a1        .h      LDR      r1,[r4,#8]
        0x0000204a:    f004fd33    ..3.    BL       __aeabi_fadd ; 0x6ab4
        0x0000204e:    9003        ..      STR      r0,[sp,#0xc]
        0x00002050:    5ff0        ._      LDRSH    r0,[r6,r7]
        0x00002052:    f7fffa17    ....    BL       __aeabi_i2f ; 0x1484
        0x00002056:    9903        ..      LDR      r1,[sp,#0xc]
        0x00002058:    f004fd72    ..r.    BL       __aeabi_cfcmple ; 0x6b40
        0x0000205c:    d205        ..      BCS      0x206a ; CheckEmpirical + 222
        0x0000205e:    9801        ..      LDR      r0,[sp,#4]
        0x00002060:    0429        ).      LSLS     r1,r5,#16
        0x00002062:    b280        ..      UXTH     r0,r0
        0x00002064:    4308        .C      ORRS     r0,r0,r1
        0x00002066:    9001        ..      STR      r0,[sp,#4]
        0x00002068:    e033        3.      B        0x20d2 ; CheckEmpirical + 326
        0x0000206a:    2101        .!      MOVS     r1,#1
        0x0000206c:    68a0        .h      LDR      r0,[r4,#8]
        0x0000206e:    f7fffa15    ....    BL       __ARM_scalbnf ; 0x149c
        0x00002072:    9003        ..      STR      r0,[sp,#0xc]
        0x00002074:    2004        .       MOVS     r0,#4
        0x00002076:    5e20         ^      LDRSH    r0,[r4,r0]
        0x00002078:    f7fffa04    ....    BL       __aeabi_i2f ; 0x1484
        0x0000207c:    9903        ..      LDR      r1,[sp,#0xc]
        0x0000207e:    f004fd19    ....    BL       __aeabi_fadd ; 0x6ab4
        0x00002082:    9003        ..      STR      r0,[sp,#0xc]
        0x00002084:    5ff0        ._      LDRSH    r0,[r6,r7]
        0x00002086:    f7fff9fd    ....    BL       __aeabi_i2f ; 0x1484
        0x0000208a:    9903        ..      LDR      r1,[sp,#0xc]
        0x0000208c:    f004fd58    ..X.    BL       __aeabi_cfcmple ; 0x6b40
        0x00002090:    d206        ..      BCS      0x20a0 ; CheckEmpirical + 276
        0x00002092:    9802        ..      LDR      r0,[sp,#8]
        0x00002094:    b2a9        ..      UXTH     r1,r5
        0x00002096:    0c00        ..      LSRS     r0,r0,#16
        0x00002098:    0400        ..      LSLS     r0,r0,#16
        0x0000209a:    4308        .C      ORRS     r0,r0,r1
        0x0000209c:    9002        ..      STR      r0,[sp,#8]
        0x0000209e:    e018        ..      B        0x20d2 ; CheckEmpirical + 326
        0x000020a0:    4923        #I      LDR      r1,[pc,#140] ; [0x2130] = 0x40400000
        0x000020a2:    68a0        .h      LDR      r0,[r4,#8]
        0x000020a4:    f004fd76    ..v.    BL       __aeabi_fmul ; 0x6b94
        0x000020a8:    9003        ..      STR      r0,[sp,#0xc]
        0x000020aa:    2004        .       MOVS     r0,#4
        0x000020ac:    5e20         ^      LDRSH    r0,[r4,r0]
        0x000020ae:    f7fff9e9    ....    BL       __aeabi_i2f ; 0x1484
        0x000020b2:    9903        ..      LDR      r1,[sp,#0xc]
        0x000020b4:    f004fcfe    ....    BL       __aeabi_fadd ; 0x6ab4
        0x000020b8:    9003        ..      STR      r0,[sp,#0xc]
        0x000020ba:    5ff0        ._      LDRSH    r0,[r6,r7]
        0x000020bc:    f7fff9e2    ....    BL       __aeabi_i2f ; 0x1484
        0x000020c0:    9903        ..      LDR      r1,[sp,#0xc]
        0x000020c2:    f004fd3d    ..=.    BL       __aeabi_cfcmple ; 0x6b40
        0x000020c6:    d204        ..      BCS      0x20d2 ; CheckEmpirical + 326
        0x000020c8:    9802        ..      LDR      r0,[sp,#8]
        0x000020ca:    0429        ).      LSLS     r1,r5,#16
        0x000020cc:    b280        ..      UXTH     r0,r0
        0x000020ce:    4308        .C      ORRS     r0,r0,r1
        0x000020d0:    9002        ..      STR      r0,[sp,#8]
        0x000020d2:    1c6d        m.      ADDS     r5,r5,#1
        0x000020d4:    b22d        -.      SXTH     r5,r5
        0x000020d6:    2dff        .-      CMP      r5,#0xff
        0x000020d8:    dc00        ..      BGT      0x20dc ; CheckEmpirical + 336
        0x000020da:    e765        e.      B        0x1fa8 ; CheckEmpirical + 28
        0x000020dc:    9802        ..      LDR      r0,[sp,#8]
        0x000020de:    1401        ..      ASRS     r1,r0,#16
        0x000020e0:    9800        ..      LDR      r0,[sp,#0]
        0x000020e2:    b200        ..      SXTH     r0,r0
        0x000020e4:    1a08        ..      SUBS     r0,r1,r0
        0x000020e6:    2164        d!      MOVS     r1,#0x64
        0x000020e8:    1c40        @.      ADDS     r0,r0,#1
        0x000020ea:    4348        HC      MULS     r0,r1,r0
        0x000020ec:    17c1        ..      ASRS     r1,r0,#31
        0x000020ee:    0e09        ..      LSRS     r1,r1,#24
        0x000020f0:    1808        ..      ADDS     r0,r1,r0
        0x000020f2:    1200        ..      ASRS     r0,r0,#8
        0x000020f4:    8220         .      STRH     r0,[r4,#0x10]
        0x000020f6:    9802        ..      LDR      r0,[sp,#8]
        0x000020f8:    b201        ..      SXTH     r1,r0
        0x000020fa:    9800        ..      LDR      r0,[sp,#0]
        0x000020fc:    1400        ..      ASRS     r0,r0,#16
        0x000020fe:    1a08        ..      SUBS     r0,r1,r0
        0x00002100:    2164        d!      MOVS     r1,#0x64
        0x00002102:    1c40        @.      ADDS     r0,r0,#1
        0x00002104:    4348        HC      MULS     r0,r1,r0
        0x00002106:    17c1        ..      ASRS     r1,r0,#31
        0x00002108:    0e09        ..      LSRS     r1,r1,#24
        0x0000210a:    1808        ..      ADDS     r0,r1,r0
        0x0000210c:    1200        ..      ASRS     r0,r0,#8
        0x0000210e:    81e0        ..      STRH     r0,[r4,#0xe]
        0x00002110:    9801        ..      LDR      r0,[sp,#4]
        0x00002112:    1401        ..      ASRS     r1,r0,#16
        0x00002114:    b200        ..      SXTH     r0,r0
        0x00002116:    1a08        ..      SUBS     r0,r1,r0
        0x00002118:    2164        d!      MOVS     r1,#0x64
        0x0000211a:    1c40        @.      ADDS     r0,r0,#1
        0x0000211c:    4348        HC      MULS     r0,r1,r0
        0x0000211e:    17c1        ..      ASRS     r1,r0,#31
        0x00002120:    0e09        ..      LSRS     r1,r1,#24
        0x00002122:    1808        ..      ADDS     r0,r1,r0
        0x00002124:    1200        ..      ASRS     r0,r0,#8
        0x00002126:    81a0        ..      STRH     r0,[r4,#0xc]
        0x00002128:    b005        ..      ADD      sp,sp,#0x14
        0x0000212a:    bdf0        ..      POP      {r4-r7,pc}
    $d
        0x0000212c:    00006e44    Dn..    DCD    28228
        0x00002130:    40400000    ..@@    DCD    1077936128
    $t
    i.CheckGyroNormalParam
    CheckGyroNormalParam
        0x00002134:    b570        p.      PUSH     {r4-r6,lr}
        0x00002136:    4604        .F      MOV      r4,r0
        0x00002138:    22ff        ."      MOVS     r2,#0xff
        0x0000213a:    2100        .!      MOVS     r1,#0
        0x0000213c:    f003fcdd    ....    BL       quickSortIterative ; 0x5afa
        0x00002140:    2000        .       MOVS     r0,#0
        0x00002142:    4601        .F      MOV      r1,r0
        0x00002144:    004b        K.      LSLS     r3,r1,#1
        0x00002146:    5ee2        .^      LDRSH    r2,[r4,r3]
        0x00002148:    1c49        I.      ADDS     r1,r1,#1
        0x0000214a:    1810        ..      ADDS     r0,r2,r0
        0x0000214c:    29ff        .)      CMP      r1,#0xff
        0x0000214e:    ddf9        ..      BLE      0x2144 ; CheckGyroNormalParam + 16
        0x00002150:    f7fff998    ....    BL       __aeabi_i2f ; 0x1484
        0x00002154:    2107        .!      MOVS     r1,#7
        0x00002156:    43c9        .C      MVNS     r1,r1
        0x00002158:    f7fff9a0    ....    BL       __ARM_scalbnf ; 0x149c
        0x0000215c:    4601        .F      MOV      r1,r0
        0x0000215e:    2001        .       MOVS     r0,#1
        0x00002160:    0240        @.      LSLS     r0,r0,#9
        0x00002162:    5101        .Q      STR      r1,[r0,r4]
        0x00002164:    4620         F      MOV      r0,r4
        0x00002166:    f000f899    ....    BL       CheckStandardDV ; 0x229c
        0x0000216a:    20ff        .       MOVS     r0,#0xff
        0x0000216c:    3001        .0      ADDS     r0,#1
        0x0000216e:    1de5        ..      ADDS     r5,r4,#7
        0x00002170:    5b01        .[      LDRH     r1,[r0,r4]
        0x00002172:    35ff        .5      ADDS     r5,r5,#0xff
        0x00002174:    35fa        .5      ADDS     r5,r5,#0xfa
        0x00002176:    80a9        ..      STRH     r1,[r5,#4]
        0x00002178:    4620         F      MOV      r0,r4
        0x0000217a:    f000f807    ....    BL       CheckMode ; 0x218c
        0x0000217e:    4620         F      MOV      r0,r4
        0x00002180:    f7ffff04    ....    BL       CheckEmpirical ; 0x1f8c
        0x00002184:    2000        .       MOVS     r0,#0
        0x00002186:    8268        h.      STRH     r0,[r5,#0x12]
        0x00002188:    bd70        p.      POP      {r4-r6,pc}
        0x0000218a:    0000        ..      MOVS     r0,r0
    i.CheckMode
    CheckMode
        0x0000218c:    b5f8        ..      PUSH     {r3-r7,lr}
        0x0000218e:    2200        ."      MOVS     r2,#0
        0x00002190:    4696        .F      MOV      lr,r2
        0x00002192:    4614        .F      MOV      r4,r2
        0x00002194:    9200        ..      STR      r2,[sp,#0]
        0x00002196:    2500        .%      MOVS     r5,#0
        0x00002198:    4629        )F      MOV      r1,r5
        0x0000219a:    2a00        .*      CMP      r2,#0
        0x0000219c:    dd13        ..      BLE      0x21c6 ; CheckMode + 58
        0x0000219e:    0063        c.      LSLS     r3,r4,#1
        0x000021a0:    469c        .F      MOV      r12,r3
        0x000021a2:    4663        cF      MOV      r3,r12
        0x000021a4:    5ec7        .^      LDRSH    r7,[r0,r3]
        0x000021a6:    4e1b        .N      LDR      r6,[pc,#108] ; [0x2214] = 0x2000134c
        0x000021a8:    004b        K.      LSLS     r3,r1,#1
        0x000021aa:    5ef6        .^      LDRSH    r6,[r6,r3]
        0x000021ac:    42b7        .B      CMP      r7,r6
        0x000021ae:    d104        ..      BNE      0x21ba ; CheckMode + 46
        0x000021b0:    4e19        .N      LDR      r6,[pc,#100] ; [0x2218] = 0x2000154c
        0x000021b2:    5af5        .Z      LDRH     r5,[r6,r3]
        0x000021b4:    1c6d        m.      ADDS     r5,r5,#1
        0x000021b6:    52f5        .R      STRH     r5,[r6,r3]
        0x000021b8:    2501        .%      MOVS     r5,#1
        0x000021ba:    1c49        I.      ADDS     r1,r1,#1
        0x000021bc:    b209        ..      SXTH     r1,r1
        0x000021be:    4291        .B      CMP      r1,r2
        0x000021c0:    dbef        ..      BLT      0x21a2 ; CheckMode + 22
        0x000021c2:    2d00        .-      CMP      r5,#0
        0x000021c4:    d10b        ..      BNE      0x21de ; CheckMode + 82
        0x000021c6:    0061        a.      LSLS     r1,r4,#1
        0x000021c8:    5a45        EZ      LDRH     r5,[r0,r1]
        0x000021ca:    4b12        .K      LDR      r3,[pc,#72] ; [0x2214] = 0x2000134c
        0x000021cc:    0051        Q.      LSLS     r1,r2,#1
        0x000021ce:    525d        ]R      STRH     r5,[r3,r1]
        0x000021d0:    4b11        .K      LDR      r3,[pc,#68] ; [0x2218] = 0x2000154c
        0x000021d2:    1c52        R.      ADDS     r2,r2,#1
        0x000021d4:    18c9        ..      ADDS     r1,r1,r3
        0x000021d6:    880b        ..      LDRH     r3,[r1,#0]
        0x000021d8:    b212        ..      SXTH     r2,r2
        0x000021da:    1c5b        [.      ADDS     r3,r3,#1
        0x000021dc:    800b        ..      STRH     r3,[r1,#0]
        0x000021de:    1c64        d.      ADDS     r4,r4,#1
        0x000021e0:    b224        $.      SXTH     r4,r4
        0x000021e2:    2cff        .,      CMP      r4,#0xff
        0x000021e4:    ddd7        ..      BLE      0x2196 ; CheckMode + 10
        0x000021e6:    2100        .!      MOVS     r1,#0
        0x000021e8:    2a00        .*      CMP      r2,#0
        0x000021ea:    dd0a        ..      BLE      0x2202 ; CheckMode + 118
        0x000021ec:    4c0a        .L      LDR      r4,[pc,#40] ; [0x2218] = 0x2000154c
        0x000021ee:    004b        K.      LSLS     r3,r1,#1
        0x000021f0:    5ee3        .^      LDRSH    r3,[r4,r3]
        0x000021f2:    4573        sE      CMP      r3,lr
        0x000021f4:    dd01        ..      BLE      0x21fa ; CheckMode + 110
        0x000021f6:    469e        .F      MOV      lr,r3
        0x000021f8:    9100        ..      STR      r1,[sp,#0]
        0x000021fa:    1c49        I.      ADDS     r1,r1,#1
        0x000021fc:    b209        ..      SXTH     r1,r1
        0x000021fe:    4291        .B      CMP      r1,r2
        0x00002200:    dbf5        ..      BLT      0x21ee ; CheckMode + 98
        0x00002202:    9900        ..      LDR      r1,[sp,#0]
        0x00002204:    30ff        .0      ADDS     r0,r0,#0xff
        0x00002206:    004a        J.      LSLS     r2,r1,#1
        0x00002208:    4902        .I      LDR      r1,[pc,#8] ; [0x2214] = 0x2000134c
        0x0000220a:    30ff        .0      ADDS     r0,r0,#0xff
        0x0000220c:    5a89        .Z      LDRH     r1,[r1,r2]
        0x0000220e:    3002        .0      ADDS     r0,#2
        0x00002210:    80c1        ..      STRH     r1,[r0,#6]
        0x00002212:    bdf8        ..      POP      {r3-r7,pc}
    $d
        0x00002214:    2000134c    L..     DCD    536875852
        0x00002218:    2000154c    L..     DCD    536876364
    $t
    i.CheckNormalDistribution
    CheckNormalDistribution
        0x0000221c:    b570        p.      PUSH     {r4-r6,lr}
        0x0000221e:    4d0c        .M      LDR      r5,[pc,#48] ; [0x2250] = 0x20001110
        0x00002220:    4c0c        .L      LDR      r4,[pc,#48] ; [0x2254] = 0x20000f10
        0x00002222:    69e9        .i      LDR      r1,[r5,#0x1c]
        0x00002224:    68a0        .h      LDR      r0,[r4,#8]
        0x00002226:    f004fc45    ..E.    BL       __aeabi_fadd ; 0x6ab4
        0x0000222a:    4e0b        .N      LDR      r6,[pc,#44] ; [0x2258] = 0x20001310
        0x0000222c:    6b31        1k      LDR      r1,[r6,#0x30]
        0x0000222e:    f004fc41    ..A.    BL       __aeabi_fadd ; 0x6ab4
        0x00002232:    4a0a        .J      LDR      r2,[pc,#40] ; [0x225c] = 0x41f00000
        0x00002234:    490a        .I      LDR      r1,[pc,#40] ; [0x2260] = 0x20000874
        0x00002236:    4290        .B      CMP      r0,r2
        0x00002238:    da07        ..      BGE      0x224a ; CheckNormalDistribution + 46
        0x0000223a:    6820         h      LDR      r0,[r4,#0]
        0x0000223c:    60c8        .`      STR      r0,[r1,#0xc]
        0x0000223e:    6968        hi      LDR      r0,[r5,#0x14]
        0x00002240:    6108        .a      STR      r0,[r1,#0x10]
        0x00002242:    6ab0        .j      LDR      r0,[r6,#0x28]
        0x00002244:    6148        Ha      STR      r0,[r1,#0x14]
        0x00002246:    2001        .       MOVS     r0,#1
        0x00002248:    e000        ..      B        0x224c ; CheckNormalDistribution + 48
        0x0000224a:    2000        .       MOVS     r0,#0
        0x0000224c:    7208        .r      STRB     r0,[r1,#8]
        0x0000224e:    bd70        p.      POP      {r4-r6,pc}
    $d
        0x00002250:    20001110    ...     DCD    536875280
        0x00002254:    20000f10    ...     DCD    536874768
        0x00002258:    20001310    ...     DCD    536875792
        0x0000225c:    41f00000    ...A    DCD    1106247680
        0x00002260:    20000874    t..     DCD    536873076
    $t
    i.CheckSecurityID
    CheckSecurityID
        0x00002264:    b410        ..      PUSH     {r4}
        0x00002266:    490b        .I      LDR      r1,[pc,#44] ; [0x2294] = 0x200006d8
        0x00002268:    2304        .#      MOVS     r3,#4
        0x0000226a:    6809        .h      LDR      r1,[r1,#0]
        0x0000226c:    2000        .       MOVS     r0,#0
        0x0000226e:    4a0a        .J      LDR      r2,[pc,#40] ; [0x2298] = 0x200006dc
        0x00002270:    0e09        ..      LSRS     r1,r1,#24
        0x00002272:    0609        ..      LSLS     r1,r1,#24
        0x00002274:    0084        ..      LSLS     r4,r0,#2
        0x00002276:    5914        .Y      LDR      r4,[r2,r4]
        0x00002278:    0e24        $.      LSRS     r4,r4,#24
        0x0000227a:    0624        $.      LSLS     r4,r4,#24
        0x0000227c:    42a1        .B      CMP      r1,r4
        0x0000227e:    d102        ..      BNE      0x2286 ; CheckSecurityID + 34
        0x00002280:    bc10        ..      POP      {r4}
        0x00002282:    2000        .       MOVS     r0,#0
        0x00002284:    4770        pG      BX       lr
        0x00002286:    1c40        @.      ADDS     r0,r0,#1
        0x00002288:    b2c0        ..      UXTB     r0,r0
        0x0000228a:    4298        .B      CMP      r0,r3
        0x0000228c:    d3f2        ..      BCC      0x2274 ; CheckSecurityID + 16
        0x0000228e:    bc10        ..      POP      {r4}
        0x00002290:    2001        .       MOVS     r0,#1
        0x00002292:    4770        pG      BX       lr
    $d
        0x00002294:    200006d8    ...     DCD    536872664
        0x00002298:    200006dc    ...     DCD    536872668
    $t
    i.CheckStandardDV
    CheckStandardDV
        0x0000229c:    b5f8        ..      PUSH     {r3-r7,lr}
        0x0000229e:    2700        .'      MOVS     r7,#0
        0x000022a0:    1dc6        ..      ADDS     r6,r0,#7
        0x000022a2:    36ff        .6      ADDS     r6,r6,#0xff
        0x000022a4:    4605        .F      MOV      r5,r0
        0x000022a6:    36fa        .6      ADDS     r6,r6,#0xfa
        0x000022a8:    6830        0h      LDR      r0,[r6,#0]
        0x000022aa:    463c        <F      MOV      r4,r7
        0x000022ac:    9000        ..      STR      r0,[sp,#0]
        0x000022ae:    0060        `.      LSLS     r0,r4,#1
        0x000022b0:    5e28        (^      LDRSH    r0,[r5,r0]
        0x000022b2:    f7fff8e7    ....    BL       __aeabi_i2f ; 0x1484
        0x000022b6:    9900        ..      LDR      r1,[sp,#0]
        0x000022b8:    f004fcfc    ....    BL       __aeabi_fsub ; 0x6cb4
        0x000022bc:    4601        .F      MOV      r1,r0
        0x000022be:    f004fc69    ..i.    BL       __aeabi_fmul ; 0x6b94
        0x000022c2:    4639        9F      MOV      r1,r7
        0x000022c4:    f004fbf6    ....    BL       __aeabi_fadd ; 0x6ab4
        0x000022c8:    1c64        d.      ADDS     r4,r4,#1
        0x000022ca:    4607        .F      MOV      r7,r0
        0x000022cc:    2cff        .,      CMP      r4,#0xff
        0x000022ce:    ddee        ..      BLE      0x22ae ; CheckStandardDV + 18
        0x000022d0:    4905        .I      LDR      r1,[pc,#20] ; [0x22e8] = 0x437f0000
        0x000022d2:    f7feffc5    ....    BL       __aeabi_fdiv ; 0x1260
        0x000022d6:    f7feff99    ....    BL       __aeabi_f2d ; 0x120c
        0x000022da:    f004fb1f    ....    BL       sqrt ; 0x691c
        0x000022de:    f7fef9f5    ....    BL       __aeabi_d2f ; 0x6cc
        0x000022e2:    60b0        .`      STR      r0,[r6,#8]
        0x000022e4:    bdf8        ..      POP      {r3-r7,pc}
    $d
        0x000022e6:    0000        ..      DCW    0
        0x000022e8:    437f0000    ...C    DCD    1132396544
    $t
    i.ChronographStart
    ChronographStart
        0x000022ec:    4905        .I      LDR      r1,[pc,#20] ; [0x2304] = 0x20000680
        0x000022ee:    680a        .h      LDR      r2,[r1,#0]
        0x000022f0:    210c        .!      MOVS     r1,#0xc
        0x000022f2:    4341        AC      MULS     r1,r0,r1
        0x000022f4:    4b04        .K      LDR      r3,[pc,#16] ; [0x2308] = 0x20000794
        0x000022f6:    505a        ZP      STR      r2,[r3,r1]
        0x000022f8:    210c        .!      MOVS     r1,#0xc
        0x000022fa:    4341        AC      MULS     r1,r0,r1
        0x000022fc:    18c9        ..      ADDS     r1,r1,r3
        0x000022fe:    608a        .`      STR      r2,[r1,#8]
        0x00002300:    4770        pG      BX       lr
    $d
        0x00002302:    0000        ..      DCW    0
        0x00002304:    20000680    ...     DCD    536872576
        0x00002308:    20000794    ...     DCD    536872852
    $t
    i.ComputeEuler
    ComputeEuler
        0x0000230c:    b5f0        ..      PUSH     {r4-r7,lr}
        0x0000230e:    4c79        yL      LDR      r4,[pc,#484] ; [0x24f4] = 0x200006fc
        0x00002310:    b087        ..      SUB      sp,sp,#0x1c
        0x00002312:    6fe1        .o      LDR      r1,[r4,#0x7c]
        0x00002314:    9103        ..      STR      r1,[sp,#0xc]
        0x00002316:    6f60        `o      LDR      r0,[r4,#0x74]
        0x00002318:    9001        ..      STR      r0,[sp,#4]
        0x0000231a:    f004fc3b    ..;.    BL       __aeabi_fmul ; 0x6b94
        0x0000231e:    4605        .F      MOV      r5,r0
        0x00002320:    4875        uH      LDR      r0,[pc,#468] ; [0x24f8] = 0x2000077c
        0x00002322:    6801        .h      LDR      r1,[r0,#0]
        0x00002324:    9100        ..      STR      r1,[sp,#0]
        0x00002326:    6fa0        .o      LDR      r0,[r4,#0x78]
        0x00002328:    9004        ..      STR      r0,[sp,#0x10]
        0x0000232a:    f004fc33    ..3.    BL       __aeabi_fmul ; 0x6b94
        0x0000232e:    4629        )F      MOV      r1,r5
        0x00002330:    f004fcc0    ....    BL       __aeabi_fsub ; 0x6cb4
        0x00002334:    2101        .!      MOVS     r1,#1
        0x00002336:    f7fff8b1    ....    BL       __ARM_scalbnf ; 0x149c
        0x0000233a:    6220         b      STR      r0,[r4,#0x20]
        0x0000233c:    4605        .F      MOV      r5,r0
        0x0000233e:    9900        ..      LDR      r1,[sp,#0]
        0x00002340:    9803        ..      LDR      r0,[sp,#0xc]
        0x00002342:    f004fc27    ..'.    BL       __aeabi_fmul ; 0x6b94
        0x00002346:    4606        .F      MOV      r6,r0
        0x00002348:    9904        ..      LDR      r1,[sp,#0x10]
        0x0000234a:    9801        ..      LDR      r0,[sp,#4]
        0x0000234c:    f004fc22    ..".    BL       __aeabi_fmul ; 0x6b94
        0x00002350:    4631        1F      MOV      r1,r6
        0x00002352:    f004fbaf    ....    BL       __aeabi_fadd ; 0x6ab4
        0x00002356:    2101        .!      MOVS     r1,#1
        0x00002358:    f7fff8a0    ....    BL       __ARM_scalbnf ; 0x149c
        0x0000235c:    6260        `b      STR      r0,[r4,#0x24]
        0x0000235e:    9900        ..      LDR      r1,[sp,#0]
        0x00002360:    4608        .F      MOV      r0,r1
        0x00002362:    f004fc17    ....    BL       __aeabi_fmul ; 0x6b94
        0x00002366:    9903        ..      LDR      r1,[sp,#0xc]
        0x00002368:    9005        ..      STR      r0,[sp,#0x14]
        0x0000236a:    9006        ..      STR      r0,[sp,#0x18]
        0x0000236c:    4608        .F      MOV      r0,r1
        0x0000236e:    f004fc11    ....    BL       __aeabi_fmul ; 0x6b94
        0x00002372:    9904        ..      LDR      r1,[sp,#0x10]
        0x00002374:    4607        .F      MOV      r7,r0
        0x00002376:    4608        .F      MOV      r0,r1
        0x00002378:    f004fc0c    ....    BL       __aeabi_fmul ; 0x6b94
        0x0000237c:    9901        ..      LDR      r1,[sp,#4]
        0x0000237e:    4606        .F      MOV      r6,r0
        0x00002380:    4608        .F      MOV      r0,r1
        0x00002382:    f004fc07    ....    BL       __aeabi_fmul ; 0x6b94
        0x00002386:    4631        1F      MOV      r1,r6
        0x00002388:    9002        ..      STR      r0,[sp,#8]
        0x0000238a:    f004fc93    ....    BL       __aeabi_fsub ; 0x6cb4
        0x0000238e:    4639        9F      MOV      r1,r7
        0x00002390:    f004fc90    ....    BL       __aeabi_fsub ; 0x6cb4
        0x00002394:    9906        ..      LDR      r1,[sp,#0x18]
        0x00002396:    f004fb8d    ....    BL       __aeabi_fadd ; 0x6ab4
        0x0000239a:    62a0        .b      STR      r0,[r4,#0x28]
        0x0000239c:    207f        .       MOVS     r0,#0x7f
        0x0000239e:    05c0        ..      LSLS     r0,r0,#23
        0x000023a0:    4285        .B      CMP      r5,r0
        0x000023a2:    dc02        ..      BGT      0x23aa ; ComputeEuler + 158
        0x000023a4:    4855        UH      LDR      r0,[pc,#340] ; [0x24fc] = 0xbf800000
        0x000023a6:    4285        .B      CMP      r5,r0
        0x000023a8:    d900        ..      BLS      0x23ac ; ComputeEuler + 160
        0x000023aa:    6220         b      STR      r0,[r4,#0x20]
        0x000023ac:    463d        =F      MOV      r5,r7
        0x000023ae:    4631        1F      MOV      r1,r6
        0x000023b0:    9802        ..      LDR      r0,[sp,#8]
        0x000023b2:    f004fb7f    ....    BL       __aeabi_fadd ; 0x6ab4
        0x000023b6:    4629        )F      MOV      r1,r5
        0x000023b8:    f004fc7c    ..|.    BL       __aeabi_fsub ; 0x6cb4
        0x000023bc:    9905        ..      LDR      r1,[sp,#0x14]
        0x000023be:    f004fc79    ..y.    BL       __aeabi_fsub ; 0x6cb4
        0x000023c2:    f7feff23    ..#.    BL       __aeabi_f2d ; 0x120c
        0x000023c6:    4605        .F      MOV      r5,r0
        0x000023c8:    460e        .F      MOV      r6,r1
        0x000023ca:    9903        ..      LDR      r1,[sp,#0xc]
        0x000023cc:    9804        ..      LDR      r0,[sp,#0x10]
        0x000023ce:    f004fbe1    ....    BL       __aeabi_fmul ; 0x6b94
        0x000023d2:    4607        .F      MOV      r7,r0
        0x000023d4:    9900        ..      LDR      r1,[sp,#0]
        0x000023d6:    9801        ..      LDR      r0,[sp,#4]
        0x000023d8:    f004fbdc    ....    BL       __aeabi_fmul ; 0x6b94
        0x000023dc:    4639        9F      MOV      r1,r7
        0x000023de:    f004fb69    ..i.    BL       __aeabi_fadd ; 0x6ab4
        0x000023e2:    2101        .!      MOVS     r1,#1
        0x000023e4:    f7fff85a    ..Z.    BL       __ARM_scalbnf ; 0x149c
        0x000023e8:    f7feff10    ....    BL       __aeabi_f2d ; 0x120c
        0x000023ec:    462a        *F      MOV      r2,r5
        0x000023ee:    4633        3F      MOV      r3,r6
        0x000023f0:    f002fbf0    ....    BL       atan2 ; 0x4bd4
        0x000023f4:    f7fef96a    ..j.    BL       __aeabi_d2f ; 0x6cc
        0x000023f8:    64e0        .d      STR      r0,[r4,#0x4c]
        0x000023fa:    6aa0        .j      LDR      r0,[r4,#0x28]
        0x000023fc:    f7feff06    ....    BL       __aeabi_f2d ; 0x120c
        0x00002400:    4605        .F      MOV      r5,r0
        0x00002402:    460e        .F      MOV      r6,r1
        0x00002404:    6a60        `j      LDR      r0,[r4,#0x24]
        0x00002406:    f7feff01    ....    BL       __aeabi_f2d ; 0x120c
        0x0000240a:    462a        *F      MOV      r2,r5
        0x0000240c:    4633        3F      MOV      r3,r6
        0x0000240e:    f002fbe1    ....    BL       atan2 ; 0x4bd4
        0x00002412:    f7fef95b    ..[.    BL       __aeabi_d2f ; 0x6cc
        0x00002416:    6460        `d      STR      r0,[r4,#0x44]
        0x00002418:    6aa1        .j      LDR      r1,[r4,#0x28]
        0x0000241a:    4605        .F      MOV      r5,r0
        0x0000241c:    460f        .F      MOV      r7,r1
        0x0000241e:    4608        .F      MOV      r0,r1
        0x00002420:    f004fbb8    ....    BL       __aeabi_fmul ; 0x6b94
        0x00002424:    6a61        aj      LDR      r1,[r4,#0x24]
        0x00002426:    4606        .F      MOV      r6,r0
        0x00002428:    4608        .F      MOV      r0,r1
        0x0000242a:    f004fbb3    ....    BL       __aeabi_fmul ; 0x6b94
        0x0000242e:    4631        1F      MOV      r1,r6
        0x00002430:    f004fb40    ..@.    BL       __aeabi_fadd ; 0x6ab4
        0x00002434:    4932        2I      LDR      r1,[pc,#200] ; [0x2500] = 0x3e19999a
        0x00002436:    4288        .B      CMP      r0,r1
        0x00002438:    da0d        ..      BGE      0x2456 ; ComputeEuler + 330
        0x0000243a:    6a20         j      LDR      r0,[r4,#0x20]
        0x0000243c:    0789        ..      LSLS     r1,r1,#30
        0x0000243e:    4048        H@      EORS     r0,r0,r1
        0x00002440:    4639        9F      MOV      r1,r7
        0x00002442:    f7feff0d    ....    BL       __aeabi_fdiv ; 0x1260
        0x00002446:    f7fefee1    ....    BL       __aeabi_f2d ; 0x120c
        0x0000244a:    f002fab3    ....    BL       atan ; 0x49b4
        0x0000244e:    f7fef93d    ..=.    BL       __aeabi_d2f ; 0x6cc
        0x00002452:    64a0        .d      STR      r0,[r4,#0x48]
        0x00002454:    e032        2.      B        0x24bc ; ComputeEuler + 432
        0x00002456:    4628        (F      MOV      r0,r5
        0x00002458:    f7fefed8    ....    BL       __aeabi_f2d ; 0x120c
        0x0000245c:    f002fd96    ....    BL       cos ; 0x4f8c
        0x00002460:    4605        .F      MOV      r5,r0
        0x00002462:    460e        .F      MOV      r6,r1
        0x00002464:    6aa0        .j      LDR      r0,[r4,#0x28]
        0x00002466:    f7fefed1    ....    BL       __aeabi_f2d ; 0x120c
        0x0000246a:    462a        *F      MOV      r2,r5
        0x0000246c:    4633        3F      MOV      r3,r6
        0x0000246e:    f7fefd99    ....    BL       __aeabi_dmul ; 0xfa4
        0x00002472:    4607        .F      MOV      r7,r0
        0x00002474:    9100        ..      STR      r1,[sp,#0]
        0x00002476:    6c60        `l      LDR      r0,[r4,#0x44]
        0x00002478:    f7fefec8    ....    BL       __aeabi_f2d ; 0x120c
        0x0000247c:    f004f9fc    ....    BL       sin ; 0x6878
        0x00002480:    4605        .F      MOV      r5,r0
        0x00002482:    460e        .F      MOV      r6,r1
        0x00002484:    6a60        `j      LDR      r0,[r4,#0x24]
        0x00002486:    f7fefec1    ....    BL       __aeabi_f2d ; 0x120c
        0x0000248a:    462a        *F      MOV      r2,r5
        0x0000248c:    4633        3F      MOV      r3,r6
        0x0000248e:    f7fefd89    ....    BL       __aeabi_dmul ; 0xfa4
        0x00002492:    463a        :F      MOV      r2,r7
        0x00002494:    9b00        ..      LDR      r3,[sp,#0]
        0x00002496:    f7fefad3    ....    BL       __aeabi_dadd ; 0xa40
        0x0000249a:    4605        .F      MOV      r5,r0
        0x0000249c:    460e        .F      MOV      r6,r1
        0x0000249e:    2101        .!      MOVS     r1,#1
        0x000024a0:    6a20         j      LDR      r0,[r4,#0x20]
        0x000024a2:    07c9        ..      LSLS     r1,r1,#31
        0x000024a4:    4048        H@      EORS     r0,r0,r1
        0x000024a6:    f7fefeb1    ....    BL       __aeabi_f2d ; 0x120c
        0x000024aa:    462a        *F      MOV      r2,r5
        0x000024ac:    4633        3F      MOV      r3,r6
        0x000024ae:    f7fefaf3    ....    BL       __aeabi_ddiv ; 0xa98
        0x000024b2:    f002fa7f    ....    BL       atan ; 0x49b4
        0x000024b6:    f7fef909    ....    BL       __aeabi_d2f ; 0x6cc
        0x000024ba:    64a0        .d      STR      r0,[r4,#0x48]
        0x000024bc:    4d11        .M      LDR      r5,[pc,#68] ; [0x2504] = 0x43340000
        0x000024be:    6ce0        .l      LDR      r0,[r4,#0x4c]
        0x000024c0:    4629        )F      MOV      r1,r5
        0x000024c2:    f004fb67    ..g.    BL       __aeabi_fmul ; 0x6b94
        0x000024c6:    4e10        .N      LDR      r6,[pc,#64] ; [0x2508] = 0x40490fdb
        0x000024c8:    4631        1F      MOV      r1,r6
        0x000024ca:    f7fefec9    ....    BL       __aeabi_fdiv ; 0x1260
        0x000024ce:    65a0        .e      STR      r0,[r4,#0x58]
        0x000024d0:    4629        )F      MOV      r1,r5
        0x000024d2:    6ca0        .l      LDR      r0,[r4,#0x48]
        0x000024d4:    f004fb5e    ..^.    BL       __aeabi_fmul ; 0x6b94
        0x000024d8:    4631        1F      MOV      r1,r6
        0x000024da:    f7fefec1    ....    BL       __aeabi_fdiv ; 0x1260
        0x000024de:    6560        `e      STR      r0,[r4,#0x54]
        0x000024e0:    4629        )F      MOV      r1,r5
        0x000024e2:    6c60        `l      LDR      r0,[r4,#0x44]
        0x000024e4:    f004fb56    ..V.    BL       __aeabi_fmul ; 0x6b94
        0x000024e8:    4631        1F      MOV      r1,r6
        0x000024ea:    f7fefeb9    ....    BL       __aeabi_fdiv ; 0x1260
        0x000024ee:    6520         e      STR      r0,[r4,#0x50]
        0x000024f0:    b007        ..      ADD      sp,sp,#0x1c
        0x000024f2:    bdf0        ..      POP      {r4-r7,pc}
    $d
        0x000024f4:    200006fc    ...     DCD    536872700
        0x000024f8:    2000077c    |..     DCD    536872828
        0x000024fc:    bf800000    ....    DCD    3212836864
        0x00002500:    3e19999a    ...>    DCD    1041865114
        0x00002504:    43340000    ..4C    DCD    1127481344
        0x00002508:    40490fdb    ..I@    DCD    1078530011
    $t
    i.ComputeMotion
    ComputeMotion
        0x0000250c:    b5ff        ..      PUSH     {r0-r7,lr}
        0x0000250e:    4cbe        .L      LDR      r4,[pc,#760] ; [0x2808] = 0x200006fc
        0x00002510:    460e        .F      MOV      r6,r1
        0x00002512:    b08d        ..      SUB      sp,sp,#0x34
        0x00002514:    6a21        !j      LDR      r1,[r4,#0x20]
        0x00002516:    9102        ..      STR      r1,[sp,#8]
        0x00002518:    f004fbcc    ....    BL       __aeabi_fsub ; 0x6cb4
        0x0000251c:    4dbb        .M      LDR      r5,[pc,#748] ; [0x280c] = 0x200019f8
        0x0000251e:    4607        .F      MOV      r7,r0
        0x00002520:    6028        (`      STR      r0,[r5,#0]
        0x00002522:    900a        ..      STR      r0,[sp,#0x28]
        0x00002524:    6a61        aj      LDR      r1,[r4,#0x24]
        0x00002526:    4630        0F      MOV      r0,r6
        0x00002528:    9106        ..      STR      r1,[sp,#0x18]
        0x0000252a:    f004fbc3    ....    BL       __aeabi_fsub ; 0x6cb4
        0x0000252e:    6068        h`      STR      r0,[r5,#4]
        0x00002530:    9008        ..      STR      r0,[sp,#0x20]
        0x00002532:    6aa1        .j      LDR      r1,[r4,#0x28]
        0x00002534:    4606        .F      MOV      r6,r0
        0x00002536:    9100        ..      STR      r1,[sp,#0]
        0x00002538:    980f        ..      LDR      r0,[sp,#0x3c]
        0x0000253a:    f004fbbb    ....    BL       __aeabi_fsub ; 0x6cb4
        0x0000253e:    49b4        .I      LDR      r1,[pc,#720] ; [0x2810] = 0x3cf5c28f
        0x00002540:    f004fab8    ....    BL       __aeabi_fadd ; 0x6ab4
        0x00002544:    60a8        .`      STR      r0,[r5,#8]
        0x00002546:    4601        .F      MOV      r1,r0
        0x00002548:    9003        ..      STR      r0,[sp,#0xc]
        0x0000254a:    9800        ..      LDR      r0,[sp,#0]
        0x0000254c:    f004fb22    ..".    BL       __aeabi_fmul ; 0x6b94
        0x00002550:    4605        .F      MOV      r5,r0
        0x00002552:    4631        1F      MOV      r1,r6
        0x00002554:    9806        ..      LDR      r0,[sp,#0x18]
        0x00002556:    f004fb1d    ....    BL       __aeabi_fmul ; 0x6b94
        0x0000255a:    4606        .F      MOV      r6,r0
        0x0000255c:    4639        9F      MOV      r1,r7
        0x0000255e:    9802        ..      LDR      r0,[sp,#8]
        0x00002560:    f004fb18    ....    BL       __aeabi_fmul ; 0x6b94
        0x00002564:    4631        1F      MOV      r1,r6
        0x00002566:    f004faa5    ....    BL       __aeabi_fadd ; 0x6ab4
        0x0000256a:    4629        )F      MOV      r1,r5
        0x0000256c:    f004faa2    ....    BL       __aeabi_fadd ; 0x6ab4
        0x00002570:    4607        .F      MOV      r7,r0
        0x00002572:    6de0        .m      LDR      r0,[r4,#0x5c]
        0x00002574:    9005        ..      STR      r0,[sp,#0x14]
        0x00002576:    0040        @.      LSLS     r0,r0,#1
        0x00002578:    0e02        ..      LSRS     r2,r0,#24
        0x0000257a:    48a3        .H      LDR      r0,[pc,#652] ; [0x2808] = 0x200006fc
        0x0000257c:    6e01        .n      LDR      r1,[r0,#0x60]
        0x0000257e:    9101        ..      STR      r1,[sp,#4]
        0x00002580:    6e45        En      LDR      r5,[r0,#0x64]
        0x00002582:    d105        ..      BNE      0x2590 ; ComputeMotion + 132
        0x00002584:    0048        H.      LSLS     r0,r1,#1
        0x00002586:    0e00        ..      LSRS     r0,r0,#24
        0x00002588:    d102        ..      BNE      0x2590 ; ComputeMotion + 132
        0x0000258a:    0068        h.      LSLS     r0,r5,#1
        0x0000258c:    0e00        ..      LSRS     r0,r0,#24
        0x0000258e:    d051        Q.      BEQ      0x2634 ; ComputeMotion + 296
        0x00002590:    4628        (F      MOV      r0,r5
        0x00002592:    9903        ..      LDR      r1,[sp,#0xc]
        0x00002594:    f004fafe    ....    BL       __aeabi_fmul ; 0x6b94
        0x00002598:    4606        .F      MOV      r6,r0
        0x0000259a:    9908        ..      LDR      r1,[sp,#0x20]
        0x0000259c:    9801        ..      LDR      r0,[sp,#4]
        0x0000259e:    f004faf9    ....    BL       __aeabi_fmul ; 0x6b94
        0x000025a2:    4604        .F      MOV      r4,r0
        0x000025a4:    990a        ..      LDR      r1,[sp,#0x28]
        0x000025a6:    9805        ..      LDR      r0,[sp,#0x14]
        0x000025a8:    f004faf4    ....    BL       __aeabi_fmul ; 0x6b94
        0x000025ac:    4621        !F      MOV      r1,r4
        0x000025ae:    f004fa81    ....    BL       __aeabi_fadd ; 0x6ab4
        0x000025b2:    4631        1F      MOV      r1,r6
        0x000025b4:    f004fa7e    ..~.    BL       __aeabi_fadd ; 0x6ab4
        0x000025b8:    4606        .F      MOV      r6,r0
        0x000025ba:    4628        (F      MOV      r0,r5
        0x000025bc:    9906        ..      LDR      r1,[sp,#0x18]
        0x000025be:    f004fae9    ....    BL       __aeabi_fmul ; 0x6b94
        0x000025c2:    4604        .F      MOV      r4,r0
        0x000025c4:    9900        ..      LDR      r1,[sp,#0]
        0x000025c6:    9801        ..      LDR      r0,[sp,#4]
        0x000025c8:    f004fae4    ....    BL       __aeabi_fmul ; 0x6b94
        0x000025cc:    4621        !F      MOV      r1,r4
        0x000025ce:    f004fb71    ..q.    BL       __aeabi_fsub ; 0x6cb4
        0x000025d2:    4604        .F      MOV      r4,r0
        0x000025d4:    9900        ..      LDR      r1,[sp,#0]
        0x000025d6:    9805        ..      LDR      r0,[sp,#0x14]
        0x000025d8:    f004fadc    ....    BL       __aeabi_fmul ; 0x6b94
        0x000025dc:    9000        ..      STR      r0,[sp,#0]
        0x000025de:    4628        (F      MOV      r0,r5
        0x000025e0:    9902        ..      LDR      r1,[sp,#8]
        0x000025e2:    f004fad7    ....    BL       __aeabi_fmul ; 0x6b94
        0x000025e6:    9900        ..      LDR      r1,[sp,#0]
        0x000025e8:    f004fb64    ..d.    BL       __aeabi_fsub ; 0x6cb4
        0x000025ec:    4605        .F      MOV      r5,r0
        0x000025ee:    9902        ..      LDR      r1,[sp,#8]
        0x000025f0:    9801        ..      LDR      r0,[sp,#4]
        0x000025f2:    f004facf    ....    BL       __aeabi_fmul ; 0x6b94
        0x000025f6:    9000        ..      STR      r0,[sp,#0]
        0x000025f8:    9906        ..      LDR      r1,[sp,#0x18]
        0x000025fa:    9805        ..      LDR      r0,[sp,#0x14]
        0x000025fc:    f004faca    ....    BL       __aeabi_fmul ; 0x6b94
        0x00002600:    9900        ..      LDR      r1,[sp,#0]
        0x00002602:    f004fb57    ..W.    BL       __aeabi_fsub ; 0x6cb4
        0x00002606:    9903        ..      LDR      r1,[sp,#0xc]
        0x00002608:    f004fac4    ....    BL       __aeabi_fmul ; 0x6b94
        0x0000260c:    9000        ..      STR      r0,[sp,#0]
        0x0000260e:    4628        (F      MOV      r0,r5
        0x00002610:    9908        ..      LDR      r1,[sp,#0x20]
        0x00002612:    f004fabf    ....    BL       __aeabi_fmul ; 0x6b94
        0x00002616:    4605        .F      MOV      r5,r0
        0x00002618:    4620         F      MOV      r0,r4
        0x0000261a:    990a        ..      LDR      r1,[sp,#0x28]
        0x0000261c:    f004faba    ....    BL       __aeabi_fmul ; 0x6b94
        0x00002620:    4629        )F      MOV      r1,r5
        0x00002622:    f004fa47    ..G.    BL       __aeabi_fadd ; 0x6ab4
        0x00002626:    9900        ..      LDR      r1,[sp,#0]
        0x00002628:    f004fa44    ..D.    BL       __aeabi_fadd ; 0x6ab4
        0x0000262c:    4977        wI      LDR      r1,[pc,#476] ; [0x280c] = 0x200019f8
        0x0000262e:    6048        H`      STR      r0,[r1,#4]
        0x00002630:    4608        .F      MOV      r0,r1
        0x00002632:    6006        .`      STR      r6,[r0,#0]
        0x00002634:    4d75        uM      LDR      r5,[pc,#468] ; [0x280c] = 0x200019f8
        0x00002636:    4c77        wL      LDR      r4,[pc,#476] ; [0x2814] = 0x411ccccd
        0x00002638:    6828        (h      LDR      r0,[r5,#0]
        0x0000263a:    4621        !F      MOV      r1,r4
        0x0000263c:    f004faaa    ....    BL       __aeabi_fmul ; 0x6b94
        0x00002640:    9004        ..      STR      r0,[sp,#0x10]
        0x00002642:    4621        !F      MOV      r1,r4
        0x00002644:    6868        hh      LDR      r0,[r5,#4]
        0x00002646:    f004faa5    ....    BL       __aeabi_fmul ; 0x6b94
        0x0000264a:    9002        ..      STR      r0,[sp,#8]
        0x0000264c:    4621        !F      MOV      r1,r4
        0x0000264e:    9803        ..      LDR      r0,[sp,#0xc]
        0x00002650:    f004faa0    ....    BL       __aeabi_fmul ; 0x6b94
        0x00002654:    4d70        pM      LDR      r5,[pc,#448] ; [0x2818] = 0x20001a28
        0x00002656:    9000        ..      STR      r0,[sp,#0]
        0x00002658:    6828        (h      LDR      r0,[r5,#0]
        0x0000265a:    9005        ..      STR      r0,[sp,#0x14]
        0x0000265c:    9905        ..      LDR      r1,[sp,#0x14]
        0x0000265e:    9804        ..      LDR      r0,[sp,#0x10]
        0x00002660:    f004fa28    ..(.    BL       __aeabi_fadd ; 0x6ab4
        0x00002664:    2100        .!      MOVS     r1,#0
        0x00002666:    43c9        .C      MVNS     r1,r1
        0x00002668:    f7feff18    ....    BL       __ARM_scalbnf ; 0x149c
        0x0000266c:    9916        ..      LDR      r1,[sp,#0x58]
        0x0000266e:    f004fa91    ....    BL       __aeabi_fmul ; 0x6b94
        0x00002672:    4c6a        jL      LDR      r4,[pc,#424] ; [0x281c] = 0x20001a1c
        0x00002674:    4606        .F      MOV      r6,r0
        0x00002676:    6020         `      STR      r0,[r4,#0]
        0x00002678:    6868        hh      LDR      r0,[r5,#4]
        0x0000267a:    9003        ..      STR      r0,[sp,#0xc]
        0x0000267c:    9903        ..      LDR      r1,[sp,#0xc]
        0x0000267e:    9802        ..      LDR      r0,[sp,#8]
        0x00002680:    f004fa18    ....    BL       __aeabi_fadd ; 0x6ab4
        0x00002684:    2100        .!      MOVS     r1,#0
        0x00002686:    43c9        .C      MVNS     r1,r1
        0x00002688:    f7feff08    ....    BL       __ARM_scalbnf ; 0x149c
        0x0000268c:    9916        ..      LDR      r1,[sp,#0x58]
        0x0000268e:    f004fa81    ....    BL       __aeabi_fmul ; 0x6b94
        0x00002692:    6060        ``      STR      r0,[r4,#4]
        0x00002694:    9007        ..      STR      r0,[sp,#0x1c]
        0x00002696:    68a8        .h      LDR      r0,[r5,#8]
        0x00002698:    9001        ..      STR      r0,[sp,#4]
        0x0000269a:    9901        ..      LDR      r1,[sp,#4]
        0x0000269c:    9800        ..      LDR      r0,[sp,#0]
        0x0000269e:    f004fa09    ....    BL       __aeabi_fadd ; 0x6ab4
        0x000026a2:    2100        .!      MOVS     r1,#0
        0x000026a4:    43c9        .C      MVNS     r1,r1
        0x000026a6:    f7fefef9    ....    BL       __ARM_scalbnf ; 0x149c
        0x000026aa:    9916        ..      LDR      r1,[sp,#0x58]
        0x000026ac:    f004fa72    ..r.    BL       __aeabi_fmul ; 0x6b94
        0x000026b0:    60a0        .`      STR      r0,[r4,#8]
        0x000026b2:    4c5b        [L      LDR      r4,[pc,#364] ; [0x2820] = 0x20001a10
        0x000026b4:    9006        ..      STR      r0,[sp,#0x18]
        0x000026b6:    6820         h      LDR      r0,[r4,#0]
        0x000026b8:    4631        1F      MOV      r1,r6
        0x000026ba:    9009        ..      STR      r0,[sp,#0x24]
        0x000026bc:    f004f9fa    ....    BL       __aeabi_fadd ; 0x6ab4
        0x000026c0:    4e58        XN      LDR      r6,[pc,#352] ; [0x2824] = 0x20001a04
        0x000026c2:    6030        0`      STR      r0,[r6,#0]
        0x000026c4:    900a        ..      STR      r0,[sp,#0x28]
        0x000026c6:    6860        `h      LDR      r0,[r4,#4]
        0x000026c8:    9008        ..      STR      r0,[sp,#0x20]
        0x000026ca:    9907        ..      LDR      r1,[sp,#0x1c]
        0x000026cc:    f004f9f2    ....    BL       __aeabi_fadd ; 0x6ab4
        0x000026d0:    6070        p`      STR      r0,[r6,#4]
        0x000026d2:    900b        ..      STR      r0,[sp,#0x2c]
        0x000026d4:    68a0        .h      LDR      r0,[r4,#8]
        0x000026d6:    9007        ..      STR      r0,[sp,#0x1c]
        0x000026d8:    9906        ..      LDR      r1,[sp,#0x18]
        0x000026da:    f004f9eb    ....    BL       __aeabi_fadd ; 0x6ab4
        0x000026de:    60b0        .`      STR      r0,[r6,#8]
        0x000026e0:    9006        ..      STR      r0,[sp,#0x18]
        0x000026e2:    9916        ..      LDR      r1,[sp,#0x58]
        0x000026e4:    9809        ..      LDR      r0,[sp,#0x24]
        0x000026e6:    f004fa55    ..U.    BL       __aeabi_fmul ; 0x6b94
        0x000026ea:    494f        OI      LDR      r1,[pc,#316] ; [0x2828] = 0x42c80000
        0x000026ec:    f004fa52    ..R.    BL       __aeabi_fmul ; 0x6b94
        0x000026f0:    9009        ..      STR      r0,[sp,#0x24]
        0x000026f2:    9916        ..      LDR      r1,[sp,#0x58]
        0x000026f4:    9805        ..      LDR      r0,[sp,#0x14]
        0x000026f6:    f004fa4d    ..M.    BL       __aeabi_fmul ; 0x6b94
        0x000026fa:    9916        ..      LDR      r1,[sp,#0x58]
        0x000026fc:    f004fa4a    ..J.    BL       __aeabi_fmul ; 0x6b94
        0x00002700:    2100        .!      MOVS     r1,#0
        0x00002702:    43c9        .C      MVNS     r1,r1
        0x00002704:    f7fefeca    ....    BL       __ARM_scalbnf ; 0x149c
        0x00002708:    4947        GI      LDR      r1,[pc,#284] ; [0x2828] = 0x42c80000
        0x0000270a:    f004fa43    ..C.    BL       __aeabi_fmul ; 0x6b94
        0x0000270e:    4e47        GN      LDR      r6,[pc,#284] ; [0x282c] = 0x200019ec
        0x00002710:    6831        1h      LDR      r1,[r6,#0]
        0x00002712:    f004f9cf    ....    BL       __aeabi_fadd ; 0x6ab4
        0x00002716:    9909        ..      LDR      r1,[sp,#0x24]
        0x00002718:    f004f9cc    ....    BL       __aeabi_fadd ; 0x6ab4
        0x0000271c:    4944        DI      LDR      r1,[pc,#272] ; [0x2830] = 0x200019e0
        0x0000271e:    6008        .`      STR      r0,[r1,#0]
        0x00002720:    9005        ..      STR      r0,[sp,#0x14]
        0x00002722:    9916        ..      LDR      r1,[sp,#0x58]
        0x00002724:    9808        ..      LDR      r0,[sp,#0x20]
        0x00002726:    f004fa35    ..5.    BL       __aeabi_fmul ; 0x6b94
        0x0000272a:    493f        ?I      LDR      r1,[pc,#252] ; [0x2828] = 0x42c80000
        0x0000272c:    f004fa32    ..2.    BL       __aeabi_fmul ; 0x6b94
        0x00002730:    9008        ..      STR      r0,[sp,#0x20]
        0x00002732:    9916        ..      LDR      r1,[sp,#0x58]
        0x00002734:    9803        ..      LDR      r0,[sp,#0xc]
        0x00002736:    f004fa2d    ..-.    BL       __aeabi_fmul ; 0x6b94
        0x0000273a:    9916        ..      LDR      r1,[sp,#0x58]
        0x0000273c:    f004fa2a    ..*.    BL       __aeabi_fmul ; 0x6b94
        0x00002740:    2100        .!      MOVS     r1,#0
        0x00002742:    43c9        .C      MVNS     r1,r1
        0x00002744:    f7fefeaa    ....    BL       __ARM_scalbnf ; 0x149c
        0x00002748:    4937        7I      LDR      r1,[pc,#220] ; [0x2828] = 0x42c80000
        0x0000274a:    f004fa23    ..#.    BL       __aeabi_fmul ; 0x6b94
        0x0000274e:    6871        qh      LDR      r1,[r6,#4]
        0x00002750:    f004f9b0    ....    BL       __aeabi_fadd ; 0x6ab4
        0x00002754:    9908        ..      LDR      r1,[sp,#0x20]
        0x00002756:    f004f9ad    ....    BL       __aeabi_fadd ; 0x6ab4
        0x0000275a:    4935        5I      LDR      r1,[pc,#212] ; [0x2830] = 0x200019e0
        0x0000275c:    6048        H`      STR      r0,[r1,#4]
        0x0000275e:    9003        ..      STR      r0,[sp,#0xc]
        0x00002760:    9916        ..      LDR      r1,[sp,#0x58]
        0x00002762:    9807        ..      LDR      r0,[sp,#0x1c]
        0x00002764:    f004fa16    ....    BL       __aeabi_fmul ; 0x6b94
        0x00002768:    492f        /I      LDR      r1,[pc,#188] ; [0x2828] = 0x42c80000
        0x0000276a:    f004fa13    ....    BL       __aeabi_fmul ; 0x6b94
        0x0000276e:    9007        ..      STR      r0,[sp,#0x1c]
        0x00002770:    9916        ..      LDR      r1,[sp,#0x58]
        0x00002772:    9801        ..      LDR      r0,[sp,#4]
        0x00002774:    f004fa0e    ....    BL       __aeabi_fmul ; 0x6b94
        0x00002778:    9916        ..      LDR      r1,[sp,#0x58]
        0x0000277a:    f004fa0b    ....    BL       __aeabi_fmul ; 0x6b94
        0x0000277e:    2100        .!      MOVS     r1,#0
        0x00002780:    43c9        .C      MVNS     r1,r1
        0x00002782:    f7fefe8b    ....    BL       __ARM_scalbnf ; 0x149c
        0x00002786:    4928        (I      LDR      r1,[pc,#160] ; [0x2828] = 0x42c80000
        0x00002788:    f004fa04    ....    BL       __aeabi_fmul ; 0x6b94
        0x0000278c:    68b1        .h      LDR      r1,[r6,#8]
        0x0000278e:    f004f991    ....    BL       __aeabi_fadd ; 0x6ab4
        0x00002792:    9907        ..      LDR      r1,[sp,#0x1c]
        0x00002794:    f004f98e    ....    BL       __aeabi_fadd ; 0x6ab4
        0x00002798:    4925        %I      LDR      r1,[pc,#148] ; [0x2830] = 0x200019e0
        0x0000279a:    6088        .`      STR      r0,[r1,#8]
        0x0000279c:    4601        .F      MOV      r1,r0
        0x0000279e:    9804        ..      LDR      r0,[sp,#0x10]
        0x000027a0:    6028        (`      STR      r0,[r5,#0]
        0x000027a2:    9802        ..      LDR      r0,[sp,#8]
        0x000027a4:    6068        h`      STR      r0,[r5,#4]
        0x000027a6:    9800        ..      LDR      r0,[sp,#0]
        0x000027a8:    60a8        .`      STR      r0,[r5,#8]
        0x000027aa:    9a0a        ..      LDR      r2,[sp,#0x28]
        0x000027ac:    6022        "`      STR      r2,[r4,#0]
        0x000027ae:    980b        ..      LDR      r0,[sp,#0x2c]
        0x000027b0:    6060        ``      STR      r0,[r4,#4]
        0x000027b2:    9000        ..      STR      r0,[sp,#0]
        0x000027b4:    9d06        ..      LDR      r5,[sp,#0x18]
        0x000027b6:    60a5        .`      STR      r5,[r4,#8]
        0x000027b8:    9805        ..      LDR      r0,[sp,#0x14]
        0x000027ba:    6030        0`      STR      r0,[r6,#0]
        0x000027bc:    9803        ..      LDR      r0,[sp,#0xc]
        0x000027be:    60b1        .`      STR      r1,[r6,#8]
        0x000027c0:    6070        p`      STR      r0,[r6,#4]
        0x000027c2:    20ff        .       MOVS     r0,#0xff
        0x000027c4:    05c0        ..      LSLS     r0,r0,#23
        0x000027c6:    42c7        .B      CMN      r7,r0
        0x000027c8:    d301        ..      BCC      0x27ce ; ComputeMotion + 706
        0x000027ca:    0200        ..      LSLS     r0,r0,#8
        0x000027cc:    4047        G@      EORS     r7,r7,r0
        0x000027ce:    4919        .I      LDR      r1,[pc,#100] ; [0x2834] = 0x3c75c28f
        0x000027d0:    4819        .H      LDR      r0,[pc,#100] ; [0x2838] = 0x2000077c
        0x000027d2:    428f        .B      CMP      r7,r1
        0x000027d4:    da14        ..      BGE      0x2800 ; ComputeMotion + 756
        0x000027d6:    217f        .!      MOVS     r1,#0x7f
        0x000027d8:    05c9        ..      LSLS     r1,r1,#23
        0x000027da:    4e18        .N      LDR      r6,[pc,#96] ; [0x283c] = 0x3f666666
        0x000027dc:    6041        A`      STR      r1,[r0,#4]
        0x000027de:    4631        1F      MOV      r1,r6
        0x000027e0:    4610        .F      MOV      r0,r2
        0x000027e2:    f004f9d7    ....    BL       __aeabi_fmul ; 0x6b94
        0x000027e6:    6020         `      STR      r0,[r4,#0]
        0x000027e8:    4631        1F      MOV      r1,r6
        0x000027ea:    9800        ..      LDR      r0,[sp,#0]
        0x000027ec:    f004f9d2    ....    BL       __aeabi_fmul ; 0x6b94
        0x000027f0:    6060        ``      STR      r0,[r4,#4]
        0x000027f2:    4631        1F      MOV      r1,r6
        0x000027f4:    4628        (F      MOV      r0,r5
        0x000027f6:    f004f9cd    ....    BL       __aeabi_fmul ; 0x6b94
        0x000027fa:    60a0        .`      STR      r0,[r4,#8]
        0x000027fc:    b011        ..      ADD      sp,sp,#0x44
        0x000027fe:    bdf0        ..      POP      {r4-r7,pc}
        0x00002800:    2100        .!      MOVS     r1,#0
        0x00002802:    6041        A`      STR      r1,[r0,#4]
        0x00002804:    b011        ..      ADD      sp,sp,#0x44
        0x00002806:    bdf0        ..      POP      {r4-r7,pc}
    $d
        0x00002808:    200006fc    ...     DCD    536872700
        0x0000280c:    200019f8    ...     DCD    536877560
        0x00002810:    3cf5c28f    ...<    DCD    1022739087
        0x00002814:    411ccccd    ...A    DCD    1092406477
        0x00002818:    20001a28    (..     DCD    536877608
        0x0000281c:    20001a1c    ...     DCD    536877596
        0x00002820:    20001a10    ...     DCD    536877584
        0x00002824:    20001a04    ...     DCD    536877572
        0x00002828:    42c80000    ...B    DCD    1120403456
        0x0000282c:    200019ec    ...     DCD    536877548
        0x00002830:    200019e0    ...     DCD    536877536
        0x00002834:    3c75c28f    ..u<    DCD    1014350479
        0x00002838:    2000077c    |..     DCD    536872828
        0x0000283c:    3f666666    fff?    DCD    1063675494
    $t
    i.DelayMsec
    DelayMsec
        0x00002840:    b500        ..      PUSH     {lr}
        0x00002842:    4601        .F      MOV      r1,r0
        0x00002844:    f002fc8a    ....    BL       getTickCount ; 0x515c
        0x00002848:    4602        .F      MOV      r2,r0
        0x0000284a:    bf00        ..      NOP      
        0x0000284c:    f002fc86    ....    BL       getTickCount ; 0x515c
        0x00002850:    1a80        ..      SUBS     r0,r0,r2
        0x00002852:    4288        .B      CMP      r0,r1
        0x00002854:    dbfa        ..      BLT      0x284c ; DelayMsec + 12
        0x00002856:    bd00        ..      POP      {pc}
    i.EINT0_IRQHandler
    EINT0_IRQHandler
        0x00002858:    4803        .H      LDR      r0,[pc,#12] ; [0x2868] = 0x50004040
        0x0000285a:    6a00        .j      LDR      r0,[r0,#0x20]
        0x0000285c:    2101        .!      MOVS     r1,#1
        0x0000285e:    4308        .C      ORRS     r0,r0,r1
        0x00002860:    4901        .I      LDR      r1,[pc,#4] ; [0x2868] = 0x50004040
        0x00002862:    6208        .b      STR      r0,[r1,#0x20]
        0x00002864:    4770        pG      BX       lr
    $d
        0x00002866:    0000        ..      DCW    0
        0x00002868:    50004040    @@.P    DCD    1342193728
    $t
    i.EINT1_IRQHandler
    EINT1_IRQHandler
        0x0000286c:    4803        .H      LDR      r0,[pc,#12] ; [0x287c] = 0x50004040
        0x0000286e:    6a00        .j      LDR      r0,[r0,#0x20]
        0x00002870:    2102        .!      MOVS     r1,#2
        0x00002872:    4308        .C      ORRS     r0,r0,r1
        0x00002874:    4901        .I      LDR      r1,[pc,#4] ; [0x287c] = 0x50004040
        0x00002876:    6208        .b      STR      r0,[r1,#0x20]
        0x00002878:    4770        pG      BX       lr
    $d
        0x0000287a:    0000        ..      DCW    0
        0x0000287c:    50004040    @@.P    DCD    1342193728
    $t
    i.FMCReadUCID
    FMCReadUCID
        0x00002880:    b470        p.      PUSH     {r4-r6}
        0x00002882:    2100        .!      MOVS     r1,#0
        0x00002884:    2504        .%      MOVS     r5,#4
        0x00002886:    4a11        .J      LDR      r2,[pc,#68] ; [0x28cc] = 0x5000c000
        0x00002888:    460c        .F      MOV      r4,r1
        0x0000288a:    2601        .&      MOVS     r6,#1
        0x0000288c:    60d5        .`      STR      r5,[r2,#0xc]
        0x0000288e:    008b        ..      LSLS     r3,r1,#2
        0x00002890:    33ff        .3      ADDS     r3,r3,#0xff
        0x00002892:    3301        .3      ADDS     r3,#1
        0x00002894:    6053        S`      STR      r3,[r2,#4]
        0x00002896:    6094        .`      STR      r4,[r2,#8]
        0x00002898:    6116        .a      STR      r6,[r2,#0x10]
        0x0000289a:    f3bf8f6f    ..o.    ISB      
        0x0000289e:    6913        .i      LDR      r3,[r2,#0x10]
        0x000028a0:    2b00        .+      CMP      r3,#0
        0x000028a2:    d1fc        ..      BNE      0x289e ; FMCReadUCID + 30
        0x000028a4:    6813        .h      LDR      r3,[r2,#0]
        0x000028a6:    065b        [.      LSLS     r3,r3,#25
        0x000028a8:    d507        ..      BPL      0x28ba ; FMCReadUCID + 58
        0x000028aa:    6810        .h      LDR      r0,[r2,#0]
        0x000028ac:    2140        @!      MOVS     r1,#0x40
        0x000028ae:    4308        .C      ORRS     r0,r0,r1
        0x000028b0:    6010        .`      STR      r0,[r2,#0]
        0x000028b2:    bc70        p.      POP      {r4-r6}
        0x000028b4:    2000        .       MOVS     r0,#0
        0x000028b6:    43c0        .C      MVNS     r0,r0
        0x000028b8:    4770        pG      BX       lr
        0x000028ba:    6893        .h      LDR      r3,[r2,#8]
        0x000028bc:    1c49        I.      ADDS     r1,r1,#1
        0x000028be:    c008        ..      STM      r0!,{r3}
        0x000028c0:    b2c9        ..      UXTB     r1,r1
        0x000028c2:    2904        .)      CMP      r1,#4
        0x000028c4:    d3e2        ..      BCC      0x288c ; FMCReadUCID + 12
        0x000028c6:    bc70        p.      POP      {r4-r6}
        0x000028c8:    2000        .       MOVS     r0,#0
        0x000028ca:    4770        pG      BX       lr
    $d
        0x000028cc:    5000c000    ...P    DCD    1342226432
    $t
    i.FMC_Close
    FMC_Close
        0x000028d0:    4803        .H      LDR      r0,[pc,#12] ; [0x28e0] = 0x5000c000
        0x000028d2:    6800        .h      LDR      r0,[r0,#0]
        0x000028d4:    0840        @.      LSRS     r0,r0,#1
        0x000028d6:    0040        @.      LSLS     r0,r0,#1
        0x000028d8:    4901        .I      LDR      r1,[pc,#4] ; [0x28e0] = 0x5000c000
        0x000028da:    6008        .`      STR      r0,[r1,#0]
        0x000028dc:    4770        pG      BX       lr
    $d
        0x000028de:    0000        ..      DCW    0
        0x000028e0:    5000c000    ...P    DCD    1342226432
    $t
    i.FMC_Open
    FMC_Open
        0x000028e4:    4803        .H      LDR      r0,[pc,#12] ; [0x28f4] = 0x5000c000
        0x000028e6:    6800        .h      LDR      r0,[r0,#0]
        0x000028e8:    2101        .!      MOVS     r1,#1
        0x000028ea:    4308        .C      ORRS     r0,r0,r1
        0x000028ec:    4901        .I      LDR      r1,[pc,#4] ; [0x28f4] = 0x5000c000
        0x000028ee:    6008        .`      STR      r0,[r1,#0]
        0x000028f0:    4770        pG      BX       lr
    $d
        0x000028f2:    0000        ..      DCW    0
        0x000028f4:    5000c000    ...P    DCD    1342226432
    $t
    i.FilterACCInit
    FilterACCInit
        0x000028f8:    2200        ."      MOVS     r2,#0
        0x000028fa:    4b09        .K      LDR      r3,[pc,#36] ; [0x2920] = 0x20000ca0
        0x000028fc:    4610        .F      MOV      r0,r2
        0x000028fe:    701a        .p      STRB     r2,[r3,#0]
        0x00002900:    705a        Zp      STRB     r2,[r3,#1]
        0x00002902:    709a        .p      STRB     r2,[r3,#2]
        0x00002904:    0081        ..      LSLS     r1,r0,#2
        0x00002906:    18c9        ..      ADDS     r1,r1,r3
        0x00002908:    604a        J`      STR      r2,[r1,#4]
        0x0000290a:    610a        .a      STR      r2,[r1,#0x10]
        0x0000290c:    61ca        .a      STR      r2,[r1,#0x1c]
        0x0000290e:    628a        .b      STR      r2,[r1,#0x28]
        0x00002910:    0041        A.      LSLS     r1,r0,#1
        0x00002912:    18c9        ..      ADDS     r1,r1,r3
        0x00002914:    1c40        @.      ADDS     r0,r0,#1
        0x00002916:    868a        ..      STRH     r2,[r1,#0x34]
        0x00002918:    2803        .(      CMP      r0,#3
        0x0000291a:    dbf3        ..      BLT      0x2904 ; FilterACCInit + 12
        0x0000291c:    4770        pG      BX       lr
    $d
        0x0000291e:    0000        ..      DCW    0
        0x00002920:    20000ca0    ...     DCD    536874144
    $t
    i.FilterCalibrateACC
    FilterCalibrateACC
        0x00002924:    b570        p.      PUSH     {r4-r6,lr}
        0x00002926:    4605        .F      MOV      r5,r0
        0x00002928:    460c        .F      MOV      r4,r1
        0x0000292a:    6808        .h      LDR      r0,[r1,#0]
        0x0000292c:    f7fefdaa    ....    BL       __aeabi_i2f ; 0x1484
        0x00002930:    4e0e        .N      LDR      r6,[pc,#56] ; [0x296c] = 0x20000808
        0x00002932:    6831        1h      LDR      r1,[r6,#0]
        0x00002934:    f004f9be    ....    BL       __aeabi_fsub ; 0x6cb4
        0x00002938:    68f1        .h      LDR      r1,[r6,#0xc]
        0x0000293a:    f004f92b    ..+.    BL       __aeabi_fmul ; 0x6b94
        0x0000293e:    6028        (`      STR      r0,[r5,#0]
        0x00002940:    6860        `h      LDR      r0,[r4,#4]
        0x00002942:    f7fefd9f    ....    BL       __aeabi_i2f ; 0x1484
        0x00002946:    6871        qh      LDR      r1,[r6,#4]
        0x00002948:    f004f9b4    ....    BL       __aeabi_fsub ; 0x6cb4
        0x0000294c:    6931        1i      LDR      r1,[r6,#0x10]
        0x0000294e:    f004f921    ..!.    BL       __aeabi_fmul ; 0x6b94
        0x00002952:    6068        h`      STR      r0,[r5,#4]
        0x00002954:    68a0        .h      LDR      r0,[r4,#8]
        0x00002956:    f7fefd95    ....    BL       __aeabi_i2f ; 0x1484
        0x0000295a:    68b1        .h      LDR      r1,[r6,#8]
        0x0000295c:    f004f9aa    ....    BL       __aeabi_fsub ; 0x6cb4
        0x00002960:    6971        qi      LDR      r1,[r6,#0x14]
        0x00002962:    f004f917    ....    BL       __aeabi_fmul ; 0x6b94
        0x00002966:    60a8        .`      STR      r0,[r5,#8]
        0x00002968:    bd70        p.      POP      {r4-r6,pc}
    $d
        0x0000296a:    0000        ..      DCW    0
        0x0000296c:    20000808    ...     DCD    536872968
    $t
    i.GPAB_IRQHandler
    GPAB_IRQHandler
        0x00002970:    4822        "H      LDR      r0,[pc,#136] ; [0x29fc] = 0x6d84
        0x00002972:    6e00        .n      LDR      r0,[r0,#0x60]
        0x00002974:    6a00        .j      LDR      r0,[r0,#0x20]
        0x00002976:    4921        !I      LDR      r1,[pc,#132] ; [0x29fc] = 0x6d84
        0x00002978:    6e49        In      LDR      r1,[r1,#0x64]
        0x0000297a:    4008        .@      ANDS     r0,r0,r1
        0x0000297c:    2800        .(      CMP      r0,#0
        0x0000297e:    d00c        ..      BEQ      0x299a ; GPAB_IRQHandler + 42
        0x00002980:    481e        .H      LDR      r0,[pc,#120] ; [0x29fc] = 0x6d84
        0x00002982:    6e00        .n      LDR      r0,[r0,#0x60]
        0x00002984:    6a00        .j      LDR      r0,[r0,#0x20]
        0x00002986:    491d        .I      LDR      r1,[pc,#116] ; [0x29fc] = 0x6d84
        0x00002988:    6e49        In      LDR      r1,[r1,#0x64]
        0x0000298a:    4308        .C      ORRS     r0,r0,r1
        0x0000298c:    491b        .I      LDR      r1,[pc,#108] ; [0x29fc] = 0x6d84
        0x0000298e:    6e09        .n      LDR      r1,[r1,#0x60]
        0x00002990:    6208        .b      STR      r0,[r1,#0x20]
        0x00002992:    2001        .       MOVS     r0,#1
        0x00002994:    491a        .I      LDR      r1,[pc,#104] ; [0x2a00] = 0x20000061
        0x00002996:    7008        .p      STRB     r0,[r1,#0]
        0x00002998:    e02f        /.      B        0x29fa ; GPAB_IRQHandler + 138
        0x0000299a:    4818        .H      LDR      r0,[pc,#96] ; [0x29fc] = 0x6d84
        0x0000299c:    6ec0        .n      LDR      r0,[r0,#0x6c]
        0x0000299e:    6a00        .j      LDR      r0,[r0,#0x20]
        0x000029a0:    4916        .I      LDR      r1,[pc,#88] ; [0x29fc] = 0x6d84
        0x000029a2:    6f09        .o      LDR      r1,[r1,#0x70]
        0x000029a4:    4008        .@      ANDS     r0,r0,r1
        0x000029a6:    2800        .(      CMP      r0,#0
        0x000029a8:    d00c        ..      BEQ      0x29c4 ; GPAB_IRQHandler + 84
        0x000029aa:    4814        .H      LDR      r0,[pc,#80] ; [0x29fc] = 0x6d84
        0x000029ac:    6ec0        .n      LDR      r0,[r0,#0x6c]
        0x000029ae:    6a00        .j      LDR      r0,[r0,#0x20]
        0x000029b0:    4912        .I      LDR      r1,[pc,#72] ; [0x29fc] = 0x6d84
        0x000029b2:    6f09        .o      LDR      r1,[r1,#0x70]
        0x000029b4:    4308        .C      ORRS     r0,r0,r1
        0x000029b6:    4911        .I      LDR      r1,[pc,#68] ; [0x29fc] = 0x6d84
        0x000029b8:    6ec9        .n      LDR      r1,[r1,#0x6c]
        0x000029ba:    6208        .b      STR      r0,[r1,#0x20]
        0x000029bc:    2001        .       MOVS     r0,#1
        0x000029be:    4911        .I      LDR      r1,[pc,#68] ; [0x2a04] = 0x20000062
        0x000029c0:    7008        .p      STRB     r0,[r1,#0]
        0x000029c2:    e01a        ..      B        0x29fa ; GPAB_IRQHandler + 138
        0x000029c4:    480d        .H      LDR      r0,[pc,#52] ; [0x29fc] = 0x6d84
        0x000029c6:    6f80        .o      LDR      r0,[r0,#0x78]
        0x000029c8:    6a00        .j      LDR      r0,[r0,#0x20]
        0x000029ca:    490c        .I      LDR      r1,[pc,#48] ; [0x29fc] = 0x6d84
        0x000029cc:    6fc9        .o      LDR      r1,[r1,#0x7c]
        0x000029ce:    4008        .@      ANDS     r0,r0,r1
        0x000029d0:    2800        .(      CMP      r0,#0
        0x000029d2:    d00c        ..      BEQ      0x29ee ; GPAB_IRQHandler + 126
        0x000029d4:    4809        .H      LDR      r0,[pc,#36] ; [0x29fc] = 0x6d84
        0x000029d6:    6f80        .o      LDR      r0,[r0,#0x78]
        0x000029d8:    6a00        .j      LDR      r0,[r0,#0x20]
        0x000029da:    4908        .I      LDR      r1,[pc,#32] ; [0x29fc] = 0x6d84
        0x000029dc:    6fc9        .o      LDR      r1,[r1,#0x7c]
        0x000029de:    4308        .C      ORRS     r0,r0,r1
        0x000029e0:    4906        .I      LDR      r1,[pc,#24] ; [0x29fc] = 0x6d84
        0x000029e2:    6f89        .o      LDR      r1,[r1,#0x78]
        0x000029e4:    6208        .b      STR      r0,[r1,#0x20]
        0x000029e6:    2001        .       MOVS     r0,#1
        0x000029e8:    4907        .I      LDR      r1,[pc,#28] ; [0x2a08] = 0x20000063
        0x000029ea:    7008        .p      STRB     r0,[r1,#0]
        0x000029ec:    e005        ..      B        0x29fa ; GPAB_IRQHandler + 138
        0x000029ee:    4807        .H      LDR      r0,[pc,#28] ; [0x2a0c] = 0xffff
        0x000029f0:    4907        .I      LDR      r1,[pc,#28] ; [0x2a10] = 0x50004040
        0x000029f2:    6208        .b      STR      r0,[r1,#0x20]
        0x000029f4:    4906        .I      LDR      r1,[pc,#24] ; [0x2a10] = 0x50004040
        0x000029f6:    3940        @9      SUBS     r1,r1,#0x40
        0x000029f8:    6208        .b      STR      r0,[r1,#0x20]
        0x000029fa:    4770        pG      BX       lr
    $d
        0x000029fc:    00006d84    .m..    DCD    28036
        0x00002a00:    20000061    a..     DCD    536871009
        0x00002a04:    20000062    b..     DCD    536871010
        0x00002a08:    20000063    c..     DCD    536871011
        0x00002a0c:    0000ffff    ....    DCD    65535
        0x00002a10:    50004040    @@.P    DCD    1342193728
    $t
    i.GPIO_EnableInt
    GPIO_EnableInt
        0x00002a14:    b510        ..      PUSH     {r4,lr}
        0x00002a16:    6984        .i      LDR      r4,[r0,#0x18]
        0x00002a18:    0e13        ..      LSRS     r3,r2,#24
        0x00002a1a:    408b        .@      LSLS     r3,r3,r1
        0x00002a1c:    431c        .C      ORRS     r4,r4,r3
        0x00002a1e:    6184        .a      STR      r4,[r0,#0x18]
        0x00002a20:    69c3        .i      LDR      r3,[r0,#0x1c]
        0x00002a22:    0214        ..      LSLS     r4,r2,#8
        0x00002a24:    0a24        $.      LSRS     r4,r4,#8
        0x00002a26:    408c        .@      LSLS     r4,r4,r1
        0x00002a28:    4323        #C      ORRS     r3,r3,r4
        0x00002a2a:    61c3        .a      STR      r3,[r0,#0x1c]
        0x00002a2c:    bd10        ..      POP      {r4,pc}
    i.GPIO_SetMode
    GPIO_SetMode
        0x00002a2e:    b570        p.      PUSH     {r4-r6,lr}
        0x00002a30:    4603        .F      MOV      r3,r0
        0x00002a32:    2000        .       MOVS     r0,#0
        0x00002a34:    e00f        ..      B        0x2a56 ; GPIO_SetMode + 40
        0x00002a36:    2401        .$      MOVS     r4,#1
        0x00002a38:    4084        .@      LSLS     r4,r4,r0
        0x00002a3a:    400c        .@      ANDS     r4,r4,r1
        0x00002a3c:    2c00        .,      CMP      r4,#0
        0x00002a3e:    d009        ..      BEQ      0x2a54 ; GPIO_SetMode + 38
        0x00002a40:    681c        .h      LDR      r4,[r3,#0]
        0x00002a42:    0046        F.      LSLS     r6,r0,#1
        0x00002a44:    2503        .%      MOVS     r5,#3
        0x00002a46:    40b5        .@      LSLS     r5,r5,r6
        0x00002a48:    43ac        .C      BICS     r4,r4,r5
        0x00002a4a:    0046        F.      LSLS     r6,r0,#1
        0x00002a4c:    4615        .F      MOV      r5,r2
        0x00002a4e:    40b5        .@      LSLS     r5,r5,r6
        0x00002a50:    432c        ,C      ORRS     r4,r4,r5
        0x00002a52:    601c        .`      STR      r4,[r3,#0]
        0x00002a54:    1c40        @.      ADDS     r0,r0,#1
        0x00002a56:    2810        .(      CMP      r0,#0x10
        0x00002a58:    d3ed        ..      BCC      0x2a36 ; GPIO_SetMode + 8
        0x00002a5a:    bd70        p.      POP      {r4-r6,pc}
    i.GPIO_SetPinOutHigh
    GPIO_SetPinOutHigh
        0x00002a5c:    b510        ..      PUSH     {r4,lr}
        0x00002a5e:    4602        .F      MOV      r2,r0
        0x00002a60:    2000        .       MOVS     r0,#0
        0x00002a62:    e00a        ..      B        0x2a7a ; GPIO_SetPinOutHigh + 30
        0x00002a64:    2301        .#      MOVS     r3,#1
        0x00002a66:    4083        .@      LSLS     r3,r3,r0
        0x00002a68:    400b        .@      ANDS     r3,r3,r1
        0x00002a6a:    2b00        .+      CMP      r3,#0
        0x00002a6c:    d004        ..      BEQ      0x2a78 ; GPIO_SetPinOutHigh + 28
        0x00002a6e:    6893        .h      LDR      r3,[r2,#8]
        0x00002a70:    2401        .$      MOVS     r4,#1
        0x00002a72:    4084        .@      LSLS     r4,r4,r0
        0x00002a74:    4323        #C      ORRS     r3,r3,r4
        0x00002a76:    6093        .`      STR      r3,[r2,#8]
        0x00002a78:    1c40        @.      ADDS     r0,r0,#1
        0x00002a7a:    2810        .(      CMP      r0,#0x10
        0x00002a7c:    d3f2        ..      BCC      0x2a64 ; GPIO_SetPinOutHigh + 8
        0x00002a7e:    bd10        ..      POP      {r4,pc}
    i.GPIO_SetPinOutLow
    GPIO_SetPinOutLow
        0x00002a80:    b510        ..      PUSH     {r4,lr}
        0x00002a82:    4602        .F      MOV      r2,r0
        0x00002a84:    2000        .       MOVS     r0,#0
        0x00002a86:    e00a        ..      B        0x2a9e ; GPIO_SetPinOutLow + 30
        0x00002a88:    2301        .#      MOVS     r3,#1
        0x00002a8a:    4083        .@      LSLS     r3,r3,r0
        0x00002a8c:    400b        .@      ANDS     r3,r3,r1
        0x00002a8e:    2b00        .+      CMP      r3,#0
        0x00002a90:    d004        ..      BEQ      0x2a9c ; GPIO_SetPinOutLow + 28
        0x00002a92:    6893        .h      LDR      r3,[r2,#8]
        0x00002a94:    2401        .$      MOVS     r4,#1
        0x00002a96:    4084        .@      LSLS     r4,r4,r0
        0x00002a98:    43a3        .C      BICS     r3,r3,r4
        0x00002a9a:    6093        .`      STR      r3,[r2,#8]
        0x00002a9c:    1c40        @.      ADDS     r0,r0,#1
        0x00002a9e:    2810        .(      CMP      r0,#0x10
        0x00002aa0:    d3f2        ..      BCC      0x2a88 ; GPIO_SetPinOutLow + 8
        0x00002aa2:    bd10        ..      POP      {r4,pc}
    i.GetAHRSPeriod
    GetAHRSPeriod
        0x00002aa4:    4801        .H      LDR      r0,[pc,#4] ; [0x2aac] = 0x200006bc
        0x00002aa6:    7800        .x      LDRB     r0,[r0,#0]
        0x00002aa8:    4770        pG      BX       lr
    $d
        0x00002aaa:    0000        ..      DCW    0
        0x00002aac:    200006bc    ...     DCD    536872636
    $t
    i.GetCalibrateParams
    GetCalibrateParams
        0x00002ab0:    2801        .(      CMP      r0,#1
        0x00002ab2:    d003        ..      BEQ      0x2abc ; GetCalibrateParams + 12
        0x00002ab4:    2804        .(      CMP      r0,#4
        0x00002ab6:    d003        ..      BEQ      0x2ac0 ; GetCalibrateParams + 16
        0x00002ab8:    2000        .       MOVS     r0,#0
        0x00002aba:    4770        pG      BX       lr
        0x00002abc:    4801        .H      LDR      r0,[pc,#4] ; [0x2ac4] = 0x200017e8
        0x00002abe:    4770        pG      BX       lr
        0x00002ac0:    4801        .H      LDR      r0,[pc,#4] ; [0x2ac8] = 0x200017c0
        0x00002ac2:    4770        pG      BX       lr
    $d
        0x00002ac4:    200017e8    ...     DCD    536877032
        0x00002ac8:    200017c0    ...     DCD    536876992
    $t
    i.GetGyroDynamicCenter
    GetGyroDynamicCenter
        0x00002acc:    b410        ..      PUSH     {r4}
        0x00002ace:    4b04        .K      LDR      r3,[pc,#16] ; [0x2ae0] = 0x20000874
        0x00002ad0:    68dc        .h      LDR      r4,[r3,#0xc]
        0x00002ad2:    6004        .`      STR      r4,[r0,#0]
        0x00002ad4:    6918        .i      LDR      r0,[r3,#0x10]
        0x00002ad6:    6008        .`      STR      r0,[r1,#0]
        0x00002ad8:    6958        Xi      LDR      r0,[r3,#0x14]
        0x00002ada:    6010        .`      STR      r0,[r2,#0]
        0x00002adc:    bc10        ..      POP      {r4}
        0x00002ade:    4770        pG      BX       lr
    $d
        0x00002ae0:    20000874    t..     DCD    536873076
    $t
    i.GetMagGuass
    GetMagGuass
        0x00002ae4:    4801        .H      LDR      r0,[pc,#4] ; [0x2aec] = 0x200006d0
        0x00002ae6:    6840        @h      LDR      r0,[r0,#4]
        0x00002ae8:    4770        pG      BX       lr
    $d
        0x00002aea:    0000        ..      DCW    0
        0x00002aec:    200006d0    ...     DCD    536872656
    $t
    i.GetTickCounter
    GetTickCounter
        0x00002af0:    4801        .H      LDR      r0,[pc,#4] ; [0x2af8] = 0x20000aa4
        0x00002af2:    68c0        .h      LDR      r0,[r0,#0xc]
        0x00002af4:    4770        pG      BX       lr
    $d
        0x00002af6:    0000        ..      DCW    0
        0x00002af8:    20000aa4    ...     DCD    536873636
    $t
    i.GyroCalibrate
    GyroCalibrate
        0x00002afc:    b510        ..      PUSH     {r4,lr}
        0x00002afe:    e017        ..      B        0x2b30 ; GyroCalibrate + 52
        0x00002b00:    2001        .       MOVS     r0,#1
        0x00002b02:    f7fffe9d    ....    BL       DelayMsec ; 0x2840
        0x00002b06:    f000ff35    ..5.    BL       Read_MPU6050_GyroX ; 0x3974
        0x00002b0a:    b200        ..      SXTH     r0,r0
        0x00002b0c:    490b        .I      LDR      r1,[pc,#44] ; [0x2b3c] = 0x200006a4
        0x00002b0e:    8008        ..      STRH     r0,[r1,#0]
        0x00002b10:    f000ff3c    ..<.    BL       Read_MPU6050_GyroY ; 0x398c
        0x00002b14:    b200        ..      SXTH     r0,r0
        0x00002b16:    4909        .I      LDR      r1,[pc,#36] ; [0x2b3c] = 0x200006a4
        0x00002b18:    8048        H.      STRH     r0,[r1,#2]
        0x00002b1a:    f000ff43    ..C.    BL       Read_MPU6050_GyroZ ; 0x39a4
        0x00002b1e:    b200        ..      SXTH     r0,r0
        0x00002b20:    4906        .I      LDR      r1,[pc,#24] ; [0x2b3c] = 0x200006a4
        0x00002b22:    8088        ..      STRH     r0,[r1,#4]
        0x00002b24:    4608        .F      MOV      r0,r1
        0x00002b26:    f002fea1    ....    BL       nvtInputSensorRawGYRO ; 0x586c
        0x00002b2a:    2002        .       MOVS     r0,#2
        0x00002b2c:    f001f988    ....    BL       SensorsDynamicCalibrate ; 0x3e40
        0x00002b30:    4803        .H      LDR      r0,[pc,#12] ; [0x2b40] = 0x200006b3
        0x00002b32:    7840        @x      LDRB     r0,[r0,#1]
        0x00002b34:    2800        .(      CMP      r0,#0
        0x00002b36:    d0e3        ..      BEQ      0x2b00 ; GyroCalibrate + 4
        0x00002b38:    bd10        ..      POP      {r4,pc}
    $d
        0x00002b3a:    0000        ..      DCW    0
        0x00002b3c:    200006a4    ...     DCD    536872612
        0x00002b40:    200006b3    ...     DCD    536872627
    $t
    i.GyroDynamicCalibrate
    GyroDynamicCalibrate
        0x00002b44:    b570        p.      PUSH     {r4-r6,lr}
        0x00002b46:    460c        .F      MOV      r4,r1
        0x00002b48:    4601        .F      MOV      r1,r0
        0x00002b4a:    4615        .F      MOV      r5,r2
        0x00002b4c:    480d        .H      LDR      r0,[pc,#52] ; [0x2b84] = 0x20000d10
        0x00002b4e:    f002ffb9    ....    BL       pushBuffer ; 0x5ac4
        0x00002b52:    480d        .H      LDR      r0,[pc,#52] ; [0x2b88] = 0x20000f24
        0x00002b54:    4621        !F      MOV      r1,r4
        0x00002b56:    4604        .F      MOV      r4,r0
        0x00002b58:    f002ffb4    ....    BL       pushBuffer ; 0x5ac4
        0x00002b5c:    480b        .H      LDR      r0,[pc,#44] ; [0x2b8c] = 0x20001138
        0x00002b5e:    4629        )F      MOV      r1,r5
        0x00002b60:    4605        .F      MOV      r5,r0
        0x00002b62:    f002ffaf    ....    BL       pushBuffer ; 0x5ac4
        0x00002b66:    2800        .(      CMP      r0,#0
        0x00002b68:    d00a        ..      BEQ      0x2b80 ; GyroDynamicCalibrate + 60
        0x00002b6a:    4806        .H      LDR      r0,[pc,#24] ; [0x2b84] = 0x20000d10
        0x00002b6c:    f7fffae2    ....    BL       CheckGyroNormalParam ; 0x2134
        0x00002b70:    4620         F      MOV      r0,r4
        0x00002b72:    f7fffadf    ....    BL       CheckGyroNormalParam ; 0x2134
        0x00002b76:    4628        (F      MOV      r0,r5
        0x00002b78:    f7fffadc    ....    BL       CheckGyroNormalParam ; 0x2134
        0x00002b7c:    f7fffb4e    ..N.    BL       CheckNormalDistribution ; 0x221c
        0x00002b80:    bd70        p.      POP      {r4-r6,pc}
    $d
        0x00002b82:    0000        ..      DCW    0
        0x00002b84:    20000d10    ...     DCD    536874256
        0x00002b88:    20000f24    $..     DCD    536874788
        0x00002b8c:    20001138    8..     DCD    536875320
    $t
    i.HDC1000_I2C_SingleRead
    HDC1000_I2C_SingleRead
        0x00002b90:    b510        ..      PUSH     {r4,lr}
        0x00002b92:    4601        .F      MOV      r1,r0
        0x00002b94:    4a16        .J      LDR      r2,[pc,#88] ; [0x2bf0] = 0x2e25
        0x00002b96:    4b17        .K      LDR      r3,[pc,#92] ; [0x2bf4] = 0x20000080
        0x00002b98:    601a        .`      STR      r2,[r3,#0]
        0x00002b9a:    2200        ."      MOVS     r2,#0
        0x00002b9c:    4b16        .K      LDR      r3,[pc,#88] ; [0x2bf8] = 0x2000007e
        0x00002b9e:    701a        .p      STRB     r2,[r3,#0]
        0x00002ba0:    4b16        .K      LDR      r3,[pc,#88] ; [0x2bfc] = 0x2000007f
        0x00002ba2:    701a        .p      STRB     r2,[r3,#0]
        0x00002ba4:    4b16        .K      LDR      r3,[pc,#88] ; [0x2c00] = 0x2000007a
        0x00002ba6:    801a        ..      STRH     r2,[r3,#0]
        0x00002ba8:    4b16        .K      LDR      r3,[pc,#88] ; [0x2c04] = 0x2000007c
        0x00002baa:    801a        ..      STRH     r2,[r3,#0]
        0x00002bac:    2280        ."      MOVS     r2,#0x80
        0x00002bae:    4b16        .K      LDR      r3,[pc,#88] ; [0x2c08] = 0x20000074
        0x00002bb0:    701a        .p      STRB     r2,[r3,#0]
        0x00002bb2:    4a16        .J      LDR      r2,[pc,#88] ; [0x2c0c] = 0x20000075
        0x00002bb4:    7011        .p      STRB     r1,[r2,#0]
        0x00002bb6:    4a16        .J      LDR      r2,[pc,#88] ; [0x2c10] = 0x40020000
        0x00002bb8:    6812        .h      LDR      r2,[r2,#0]
        0x00002bba:    233c        <#      MOVS     r3,#0x3c
        0x00002bbc:    439a        .C      BICS     r2,r2,r3
        0x00002bbe:    3220         2      ADDS     r2,r2,#0x20
        0x00002bc0:    4b13        .K      LDR      r3,[pc,#76] ; [0x2c10] = 0x40020000
        0x00002bc2:    601a        .`      STR      r2,[r3,#0]
        0x00002bc4:    e007        ..      B        0x2bd6 ; HDC1000_I2C_SingleRead + 70
        0x00002bc6:    4b0f        .K      LDR      r3,[pc,#60] ; [0x2c04] = 0x2000007c
        0x00002bc8:    881a        ..      LDRH     r2,[r3,#0]
        0x00002bca:    1c53        S.      ADDS     r3,r2,#1
        0x00002bcc:    4c0d        .L      LDR      r4,[pc,#52] ; [0x2c04] = 0x2000007c
        0x00002bce:    8023        #.      STRH     r3,[r4,#0]
        0x00002bd0:    2aff        .*      CMP      r2,#0xff
        0x00002bd2:    dd00        ..      BLE      0x2bd6 ; HDC1000_I2C_SingleRead + 70
        0x00002bd4:    e003        ..      B        0x2bde ; HDC1000_I2C_SingleRead + 78
        0x00002bd6:    4a09        .J      LDR      r2,[pc,#36] ; [0x2bfc] = 0x2000007f
        0x00002bd8:    7812        .x      LDRB     r2,[r2,#0]
        0x00002bda:    2a00        .*      CMP      r2,#0
        0x00002bdc:    d0f3        ..      BEQ      0x2bc6 ; HDC1000_I2C_SingleRead + 54
        0x00002bde:    bf00        ..      NOP      
        0x00002be0:    4a0c        .J      LDR      r2,[pc,#48] ; [0x2c14] = 0x20000078
        0x00002be2:    7812        .x      LDRB     r2,[r2,#0]
        0x00002be4:    0210        ..      LSLS     r0,r2,#8
        0x00002be6:    4b0c        .K      LDR      r3,[pc,#48] ; [0x2c18] = 0x20000079
        0x00002be8:    781b        .x      LDRB     r3,[r3,#0]
        0x00002bea:    4318        .C      ORRS     r0,r0,r3
        0x00002bec:    bd10        ..      POP      {r4,pc}
    $d
        0x00002bee:    0000        ..      DCW    0
        0x00002bf0:    00002e25    %...    DCD    11813
        0x00002bf4:    20000080    ...     DCD    536871040
        0x00002bf8:    2000007e    ~..     DCD    536871038
        0x00002bfc:    2000007f    ...     DCD    536871039
        0x00002c00:    2000007a    z..     DCD    536871034
        0x00002c04:    2000007c    |..     DCD    536871036
        0x00002c08:    20000074    t..     DCD    536871028
        0x00002c0c:    20000075    u..     DCD    536871029
        0x00002c10:    40020000    ...@    DCD    1073872896
        0x00002c14:    20000078    x..     DCD    536871032
        0x00002c18:    20000079    y..     DCD    536871033
    $t
    i.HDC1000_I2C_SingleWrite
    HDC1000_I2C_SingleWrite
        0x00002c1c:    b510        ..      PUSH     {r4,lr}
        0x00002c1e:    2280        ."      MOVS     r2,#0x80
        0x00002c20:    4b15        .K      LDR      r3,[pc,#84] ; [0x2c78] = 0x20000074
        0x00002c22:    701a        .p      STRB     r2,[r3,#0]
        0x00002c24:    4a15        .J      LDR      r2,[pc,#84] ; [0x2c7c] = 0x20000075
        0x00002c26:    7010        .p      STRB     r0,[r2,#0]
        0x00002c28:    120a        ..      ASRS     r2,r1,#8
        0x00002c2a:    4b14        .K      LDR      r3,[pc,#80] ; [0x2c7c] = 0x20000075
        0x00002c2c:    705a        Zp      STRB     r2,[r3,#1]
        0x00002c2e:    22ff        ."      MOVS     r2,#0xff
        0x00002c30:    430a        .C      ORRS     r2,r2,r1
        0x00002c32:    709a        .p      STRB     r2,[r3,#2]
        0x00002c34:    2200        ."      MOVS     r2,#0
        0x00002c36:    4b12        .K      LDR      r3,[pc,#72] ; [0x2c80] = 0x2000007e
        0x00002c38:    701a        .p      STRB     r2,[r3,#0]
        0x00002c3a:    4b12        .K      LDR      r3,[pc,#72] ; [0x2c84] = 0x2000007f
        0x00002c3c:    701a        .p      STRB     r2,[r3,#0]
        0x00002c3e:    4b12        .K      LDR      r3,[pc,#72] ; [0x2c88] = 0x2000007a
        0x00002c40:    801a        ..      STRH     r2,[r3,#0]
        0x00002c42:    4b12        .K      LDR      r3,[pc,#72] ; [0x2c8c] = 0x2000007c
        0x00002c44:    801a        ..      STRH     r2,[r3,#0]
        0x00002c46:    4a12        .J      LDR      r2,[pc,#72] ; [0x2c90] = 0x307d
        0x00002c48:    4b12        .K      LDR      r3,[pc,#72] ; [0x2c94] = 0x20000080
        0x00002c4a:    601a        .`      STR      r2,[r3,#0]
        0x00002c4c:    4a12        .J      LDR      r2,[pc,#72] ; [0x2c98] = 0x40020000
        0x00002c4e:    6812        .h      LDR      r2,[r2,#0]
        0x00002c50:    233c        <#      MOVS     r3,#0x3c
        0x00002c52:    439a        .C      BICS     r2,r2,r3
        0x00002c54:    3220         2      ADDS     r2,r2,#0x20
        0x00002c56:    4b10        .K      LDR      r3,[pc,#64] ; [0x2c98] = 0x40020000
        0x00002c58:    601a        .`      STR      r2,[r3,#0]
        0x00002c5a:    e007        ..      B        0x2c6c ; HDC1000_I2C_SingleWrite + 80
        0x00002c5c:    4b0b        .K      LDR      r3,[pc,#44] ; [0x2c8c] = 0x2000007c
        0x00002c5e:    881a        ..      LDRH     r2,[r3,#0]
        0x00002c60:    1c53        S.      ADDS     r3,r2,#1
        0x00002c62:    4c0a        .L      LDR      r4,[pc,#40] ; [0x2c8c] = 0x2000007c
        0x00002c64:    8023        #.      STRH     r3,[r4,#0]
        0x00002c66:    2aff        .*      CMP      r2,#0xff
        0x00002c68:    dd00        ..      BLE      0x2c6c ; HDC1000_I2C_SingleWrite + 80
        0x00002c6a:    e003        ..      B        0x2c74 ; HDC1000_I2C_SingleWrite + 88
        0x00002c6c:    4a05        .J      LDR      r2,[pc,#20] ; [0x2c84] = 0x2000007f
        0x00002c6e:    7812        .x      LDRB     r2,[r2,#0]
        0x00002c70:    2a00        .*      CMP      r2,#0
        0x00002c72:    d0f3        ..      BEQ      0x2c5c ; HDC1000_I2C_SingleWrite + 64
        0x00002c74:    bf00        ..      NOP      
        0x00002c76:    bd10        ..      POP      {r4,pc}
    $d
        0x00002c78:    20000074    t..     DCD    536871028
        0x00002c7c:    20000075    u..     DCD    536871029
        0x00002c80:    2000007e    ~..     DCD    536871038
        0x00002c84:    2000007f    ...     DCD    536871039
        0x00002c88:    2000007a    z..     DCD    536871034
        0x00002c8c:    2000007c    |..     DCD    536871036
        0x00002c90:    0000307d    }0..    DCD    12413
        0x00002c94:    20000080    ...     DCD    536871040
        0x00002c98:    40020000    ...@    DCD    1073872896
    $t
    i.I2C0_IRQHandler
    I2C0_IRQHandler
        0x00002c9c:    b510        ..      PUSH     {r4,lr}
        0x00002c9e:    480b        .H      LDR      r0,[pc,#44] ; [0x2ccc] = 0x40020000
        0x00002ca0:    68c4        .h      LDR      r4,[r0,#0xc]
        0x00002ca2:    6940        @i      LDR      r0,[r0,#0x14]
        0x00002ca4:    07c0        ..      LSLS     r0,r0,#31
        0x00002ca6:    0fc0        ..      LSRS     r0,r0,#31
        0x00002ca8:    2101        .!      MOVS     r1,#1
        0x00002caa:    4048        H@      EORS     r0,r0,r1
        0x00002cac:    4048        H@      EORS     r0,r0,r1
        0x00002cae:    2800        .(      CMP      r0,#0
        0x00002cb0:    d003        ..      BEQ      0x2cba ; I2C0_IRQHandler + 30
        0x00002cb2:    4806        .H      LDR      r0,[pc,#24] ; [0x2ccc] = 0x40020000
        0x00002cb4:    f000f80e    ....    BL       I2C_ClearTimeoutFlag ; 0x2cd4
        0x00002cb8:    e007        ..      B        0x2cca ; I2C0_IRQHandler + 46
        0x00002cba:    4805        .H      LDR      r0,[pc,#20] ; [0x2cd0] = 0x20000080
        0x00002cbc:    6800        .h      LDR      r0,[r0,#0]
        0x00002cbe:    2800        .(      CMP      r0,#0
        0x00002cc0:    d003        ..      BEQ      0x2cca ; I2C0_IRQHandler + 46
        0x00002cc2:    4620         F      MOV      r0,r4
        0x00002cc4:    4902        .I      LDR      r1,[pc,#8] ; [0x2cd0] = 0x20000080
        0x00002cc6:    6809        .h      LDR      r1,[r1,#0]
        0x00002cc8:    4788        .G      BLX      r1
        0x00002cca:    bd10        ..      POP      {r4,pc}
    $d
        0x00002ccc:    40020000    ...@    DCD    1073872896
        0x00002cd0:    20000080    ...     DCD    536871040
    $t
    i.I2C_ClearTimeoutFlag
    I2C_ClearTimeoutFlag
        0x00002cd4:    6941        Ai      LDR      r1,[r0,#0x14]
        0x00002cd6:    2201        ."      MOVS     r2,#1
        0x00002cd8:    4311        .C      ORRS     r1,r1,r2
        0x00002cda:    6141        Aa      STR      r1,[r0,#0x14]
        0x00002cdc:    4770        pG      BX       lr
    i.I2C_EnableInt
    I2C_EnableInt
        0x00002cde:    6801        .h      LDR      r1,[r0,#0]
        0x00002ce0:    2280        ."      MOVS     r2,#0x80
        0x00002ce2:    4311        .C      ORRS     r1,r1,r2
        0x00002ce4:    6001        .`      STR      r1,[r0,#0]
        0x00002ce6:    4770        pG      BX       lr
    i.I2C_MasterRx
    I2C_MasterRx
        0x00002ce8:    2808        .(      CMP      r0,#8
        0x00002cea:    d10b        ..      BNE      0x2d04 ; I2C_MasterRx + 28
        0x00002cec:    4946        FI      LDR      r1,[pc,#280] ; [0x2e08] = 0x20000074
        0x00002cee:    7809        .x      LDRB     r1,[r1,#0]
        0x00002cf0:    4a46        FJ      LDR      r2,[pc,#280] ; [0x2e0c] = 0x40020000
        0x00002cf2:    6091        .`      STR      r1,[r2,#8]
        0x00002cf4:    4611        .F      MOV      r1,r2
        0x00002cf6:    6809        .h      LDR      r1,[r1,#0]
        0x00002cf8:    223c        <"      MOVS     r2,#0x3c
        0x00002cfa:    4391        .C      BICS     r1,r1,r2
        0x00002cfc:    3108        .1      ADDS     r1,r1,#8
        0x00002cfe:    4a43        CJ      LDR      r2,[pc,#268] ; [0x2e0c] = 0x40020000
        0x00002d00:    6011        .`      STR      r1,[r2,#0]
        0x00002d02:    e07f        ..      B        0x2e04 ; I2C_MasterRx + 284
        0x00002d04:    2818        .(      CMP      r0,#0x18
        0x00002d06:    d110        ..      BNE      0x2d2a ; I2C_MasterRx + 66
        0x00002d08:    4a41        AJ      LDR      r2,[pc,#260] ; [0x2e10] = 0x2000007e
        0x00002d0a:    7811        .x      LDRB     r1,[r2,#0]
        0x00002d0c:    1c4a        J.      ADDS     r2,r1,#1
        0x00002d0e:    4b40        @K      LDR      r3,[pc,#256] ; [0x2e10] = 0x2000007e
        0x00002d10:    701a        .p      STRB     r2,[r3,#0]
        0x00002d12:    4a40        @J      LDR      r2,[pc,#256] ; [0x2e14] = 0x20000075
        0x00002d14:    5c52        R\      LDRB     r2,[r2,r1]
        0x00002d16:    4b3d        =K      LDR      r3,[pc,#244] ; [0x2e0c] = 0x40020000
        0x00002d18:    609a        .`      STR      r2,[r3,#8]
        0x00002d1a:    4619        .F      MOV      r1,r3
        0x00002d1c:    6809        .h      LDR      r1,[r1,#0]
        0x00002d1e:    223c        <"      MOVS     r2,#0x3c
        0x00002d20:    4391        .C      BICS     r1,r1,r2
        0x00002d22:    3108        .1      ADDS     r1,r1,#8
        0x00002d24:    461a        .F      MOV      r2,r3
        0x00002d26:    6011        .`      STR      r1,[r2,#0]
        0x00002d28:    e06c        l.      B        0x2e04 ; I2C_MasterRx + 284
        0x00002d2a:    2820         (      CMP      r0,#0x20
        0x00002d2c:    d109        ..      BNE      0x2d42 ; I2C_MasterRx + 90
        0x00002d2e:    4937        7I      LDR      r1,[pc,#220] ; [0x2e0c] = 0x40020000
        0x00002d30:    6809        .h      LDR      r1,[r1,#0]
        0x00002d32:    223c        <"      MOVS     r2,#0x3c
        0x00002d34:    4391        .C      BICS     r1,r1,r2
        0x00002d36:    3120         1      ADDS     r1,r1,#0x20
        0x00002d38:    2218        ."      MOVS     r2,#0x18
        0x00002d3a:    4311        .C      ORRS     r1,r1,r2
        0x00002d3c:    4a33        3J      LDR      r2,[pc,#204] ; [0x2e0c] = 0x40020000
        0x00002d3e:    6011        .`      STR      r1,[r2,#0]
        0x00002d40:    e060        `.      B        0x2e04 ; I2C_MasterRx + 284
        0x00002d42:    2828        ((      CMP      r0,#0x28
        0x00002d44:    d11e        ..      BNE      0x2d84 ; I2C_MasterRx + 156
        0x00002d46:    4932        2I      LDR      r1,[pc,#200] ; [0x2e10] = 0x2000007e
        0x00002d48:    7809        .x      LDRB     r1,[r1,#0]
        0x00002d4a:    2901        .)      CMP      r1,#1
        0x00002d4c:    d010        ..      BEQ      0x2d70 ; I2C_MasterRx + 136
        0x00002d4e:    4a30        0J      LDR      r2,[pc,#192] ; [0x2e10] = 0x2000007e
        0x00002d50:    7811        .x      LDRB     r1,[r2,#0]
        0x00002d52:    1c4a        J.      ADDS     r2,r1,#1
        0x00002d54:    4b2e        .K      LDR      r3,[pc,#184] ; [0x2e10] = 0x2000007e
        0x00002d56:    701a        .p      STRB     r2,[r3,#0]
        0x00002d58:    4a2e        .J      LDR      r2,[pc,#184] ; [0x2e14] = 0x20000075
        0x00002d5a:    5c52        R\      LDRB     r2,[r2,r1]
        0x00002d5c:    4b2b        +K      LDR      r3,[pc,#172] ; [0x2e0c] = 0x40020000
        0x00002d5e:    609a        .`      STR      r2,[r3,#8]
        0x00002d60:    4619        .F      MOV      r1,r3
        0x00002d62:    6809        .h      LDR      r1,[r1,#0]
        0x00002d64:    223c        <"      MOVS     r2,#0x3c
        0x00002d66:    4391        .C      BICS     r1,r1,r2
        0x00002d68:    3108        .1      ADDS     r1,r1,#8
        0x00002d6a:    461a        .F      MOV      r2,r3
        0x00002d6c:    6011        .`      STR      r1,[r2,#0]
        0x00002d6e:    e049        I.      B        0x2e04 ; I2C_MasterRx + 284
        0x00002d70:    4926        &I      LDR      r1,[pc,#152] ; [0x2e0c] = 0x40020000
        0x00002d72:    6809        .h      LDR      r1,[r1,#0]
        0x00002d74:    223c        <"      MOVS     r2,#0x3c
        0x00002d76:    4391        .C      BICS     r1,r1,r2
        0x00002d78:    3120         1      ADDS     r1,r1,#0x20
        0x00002d7a:    2208        ."      MOVS     r2,#8
        0x00002d7c:    4311        .C      ORRS     r1,r1,r2
        0x00002d7e:    4a23        #J      LDR      r2,[pc,#140] ; [0x2e0c] = 0x40020000
        0x00002d80:    6011        .`      STR      r1,[r2,#0]
        0x00002d82:    e03f        ?.      B        0x2e04 ; I2C_MasterRx + 284
        0x00002d84:    2810        .(      CMP      r0,#0x10
        0x00002d86:    d10d        ..      BNE      0x2da4 ; I2C_MasterRx + 188
        0x00002d88:    491f        .I      LDR      r1,[pc,#124] ; [0x2e08] = 0x20000074
        0x00002d8a:    7809        .x      LDRB     r1,[r1,#0]
        0x00002d8c:    2201        ."      MOVS     r2,#1
        0x00002d8e:    4311        .C      ORRS     r1,r1,r2
        0x00002d90:    4a1e        .J      LDR      r2,[pc,#120] ; [0x2e0c] = 0x40020000
        0x00002d92:    6091        .`      STR      r1,[r2,#8]
        0x00002d94:    4611        .F      MOV      r1,r2
        0x00002d96:    6809        .h      LDR      r1,[r1,#0]
        0x00002d98:    223c        <"      MOVS     r2,#0x3c
        0x00002d9a:    4391        .C      BICS     r1,r1,r2
        0x00002d9c:    3108        .1      ADDS     r1,r1,#8
        0x00002d9e:    4a1b        .J      LDR      r2,[pc,#108] ; [0x2e0c] = 0x40020000
        0x00002da0:    6011        .`      STR      r1,[r2,#0]
        0x00002da2:    e02f        /.      B        0x2e04 ; I2C_MasterRx + 284
        0x00002da4:    2840        @(      CMP      r0,#0x40
        0x00002da6:    d107        ..      BNE      0x2db8 ; I2C_MasterRx + 208
        0x00002da8:    4918        .I      LDR      r1,[pc,#96] ; [0x2e0c] = 0x40020000
        0x00002daa:    6809        .h      LDR      r1,[r1,#0]
        0x00002dac:    223c        <"      MOVS     r2,#0x3c
        0x00002dae:    4391        .C      BICS     r1,r1,r2
        0x00002db0:    3108        .1      ADDS     r1,r1,#8
        0x00002db2:    4a16        .J      LDR      r2,[pc,#88] ; [0x2e0c] = 0x40020000
        0x00002db4:    6011        .`      STR      r1,[r2,#0]
        0x00002db6:    e025        %.      B        0x2e04 ; I2C_MasterRx + 284
        0x00002db8:    2858        X(      CMP      r0,#0x58
        0x00002dba:    d110        ..      BNE      0x2dde ; I2C_MasterRx + 246
        0x00002dbc:    4913        .I      LDR      r1,[pc,#76] ; [0x2e0c] = 0x40020000
        0x00002dbe:    6889        .h      LDR      r1,[r1,#8]
        0x00002dc0:    4a15        .J      LDR      r2,[pc,#84] ; [0x2e18] = 0x20000078
        0x00002dc2:    7011        .p      STRB     r1,[r2,#0]
        0x00002dc4:    4911        .I      LDR      r1,[pc,#68] ; [0x2e0c] = 0x40020000
        0x00002dc6:    6809        .h      LDR      r1,[r1,#0]
        0x00002dc8:    223c        <"      MOVS     r2,#0x3c
        0x00002dca:    4391        .C      BICS     r1,r1,r2
        0x00002dcc:    3110        .1      ADDS     r1,r1,#0x10
        0x00002dce:    2208        ."      MOVS     r2,#8
        0x00002dd0:    4311        .C      ORRS     r1,r1,r2
        0x00002dd2:    4a0e        .J      LDR      r2,[pc,#56] ; [0x2e0c] = 0x40020000
        0x00002dd4:    6011        .`      STR      r1,[r2,#0]
        0x00002dd6:    2101        .!      MOVS     r1,#1
        0x00002dd8:    4a10        .J      LDR      r2,[pc,#64] ; [0x2e1c] = 0x2000007f
        0x00002dda:    7011        .p      STRB     r1,[r2,#0]
        0x00002ddc:    e012        ..      B        0x2e04 ; I2C_MasterRx + 284
        0x00002dde:    4a10        .J      LDR      r2,[pc,#64] ; [0x2e20] = 0x2000007a
        0x00002de0:    8811        ..      LDRH     r1,[r2,#0]
        0x00002de2:    1c4a        J.      ADDS     r2,r1,#1
        0x00002de4:    4b0e        .K      LDR      r3,[pc,#56] ; [0x2e20] = 0x2000007a
        0x00002de6:    801a        ..      STRH     r2,[r3,#0]
        0x00002de8:    2920         )      CMP      r1,#0x20
        0x00002dea:    dd0b        ..      BLE      0x2e04 ; I2C_MasterRx + 284
        0x00002dec:    4907        .I      LDR      r1,[pc,#28] ; [0x2e0c] = 0x40020000
        0x00002dee:    6809        .h      LDR      r1,[r1,#0]
        0x00002df0:    223c        <"      MOVS     r2,#0x3c
        0x00002df2:    4391        .C      BICS     r1,r1,r2
        0x00002df4:    3110        .1      ADDS     r1,r1,#0x10
        0x00002df6:    2208        ."      MOVS     r2,#8
        0x00002df8:    4311        .C      ORRS     r1,r1,r2
        0x00002dfa:    4a04        .J      LDR      r2,[pc,#16] ; [0x2e0c] = 0x40020000
        0x00002dfc:    6011        .`      STR      r1,[r2,#0]
        0x00002dfe:    2101        .!      MOVS     r1,#1
        0x00002e00:    4a06        .J      LDR      r2,[pc,#24] ; [0x2e1c] = 0x2000007f
        0x00002e02:    7011        .p      STRB     r1,[r2,#0]
        0x00002e04:    4770        pG      BX       lr
    $d
        0x00002e06:    0000        ..      DCW    0
        0x00002e08:    20000074    t..     DCD    536871028
        0x00002e0c:    40020000    ...@    DCD    1073872896
        0x00002e10:    2000007e    ~..     DCD    536871038
        0x00002e14:    20000075    u..     DCD    536871029
        0x00002e18:    20000078    x..     DCD    536871032
        0x00002e1c:    2000007f    ...     DCD    536871039
        0x00002e20:    2000007a    z..     DCD    536871034
    $t
    i.I2C_MasterRx_var
    I2C_MasterRx_var
        0x00002e24:    b510        ..      PUSH     {r4,lr}
        0x00002e26:    2100        .!      MOVS     r1,#0
        0x00002e28:    2808        .(      CMP      r0,#8
        0x00002e2a:    d10b        ..      BNE      0x2e44 ; I2C_MasterRx_var + 32
        0x00002e2c:    4a51        QJ      LDR      r2,[pc,#324] ; [0x2f74] = 0x20000074
        0x00002e2e:    7812        .x      LDRB     r2,[r2,#0]
        0x00002e30:    4b51        QK      LDR      r3,[pc,#324] ; [0x2f78] = 0x40020000
        0x00002e32:    609a        .`      STR      r2,[r3,#8]
        0x00002e34:    461a        .F      MOV      r2,r3
        0x00002e36:    6812        .h      LDR      r2,[r2,#0]
        0x00002e38:    233c        <#      MOVS     r3,#0x3c
        0x00002e3a:    439a        .C      BICS     r2,r2,r3
        0x00002e3c:    3208        .2      ADDS     r2,r2,#8
        0x00002e3e:    4b4e        NK      LDR      r3,[pc,#312] ; [0x2f78] = 0x40020000
        0x00002e40:    601a        .`      STR      r2,[r3,#0]
        0x00002e42:    e096        ..      B        0x2f72 ; I2C_MasterRx_var + 334
        0x00002e44:    2818        .(      CMP      r0,#0x18
        0x00002e46:    d110        ..      BNE      0x2e6a ; I2C_MasterRx_var + 70
        0x00002e48:    4b4c        LK      LDR      r3,[pc,#304] ; [0x2f7c] = 0x2000007e
        0x00002e4a:    781a        .x      LDRB     r2,[r3,#0]
        0x00002e4c:    1c53        S.      ADDS     r3,r2,#1
        0x00002e4e:    4c4b        KL      LDR      r4,[pc,#300] ; [0x2f7c] = 0x2000007e
        0x00002e50:    7023        #p      STRB     r3,[r4,#0]
        0x00002e52:    4b4b        KK      LDR      r3,[pc,#300] ; [0x2f80] = 0x20000075
        0x00002e54:    5c9b        .\      LDRB     r3,[r3,r2]
        0x00002e56:    4c48        HL      LDR      r4,[pc,#288] ; [0x2f78] = 0x40020000
        0x00002e58:    60a3        .`      STR      r3,[r4,#8]
        0x00002e5a:    4622        "F      MOV      r2,r4
        0x00002e5c:    6812        .h      LDR      r2,[r2,#0]
        0x00002e5e:    233c        <#      MOVS     r3,#0x3c
        0x00002e60:    439a        .C      BICS     r2,r2,r3
        0x00002e62:    3208        .2      ADDS     r2,r2,#8
        0x00002e64:    4623        #F      MOV      r3,r4
        0x00002e66:    601a        .`      STR      r2,[r3,#0]
        0x00002e68:    e083        ..      B        0x2f72 ; I2C_MasterRx_var + 334
        0x00002e6a:    2820         (      CMP      r0,#0x20
        0x00002e6c:    d109        ..      BNE      0x2e82 ; I2C_MasterRx_var + 94
        0x00002e6e:    4a42        BJ      LDR      r2,[pc,#264] ; [0x2f78] = 0x40020000
        0x00002e70:    6812        .h      LDR      r2,[r2,#0]
        0x00002e72:    233c        <#      MOVS     r3,#0x3c
        0x00002e74:    439a        .C      BICS     r2,r2,r3
        0x00002e76:    3220         2      ADDS     r2,r2,#0x20
        0x00002e78:    2318        .#      MOVS     r3,#0x18
        0x00002e7a:    431a        .C      ORRS     r2,r2,r3
        0x00002e7c:    4b3e        >K      LDR      r3,[pc,#248] ; [0x2f78] = 0x40020000
        0x00002e7e:    601a        .`      STR      r2,[r3,#0]
        0x00002e80:    e077        w.      B        0x2f72 ; I2C_MasterRx_var + 334
        0x00002e82:    2828        ((      CMP      r0,#0x28
        0x00002e84:    d125        %.      BNE      0x2ed2 ; I2C_MasterRx_var + 174
        0x00002e86:    2100        .!      MOVS     r1,#0
        0x00002e88:    e001        ..      B        0x2e8e ; I2C_MasterRx_var + 106
        0x00002e8a:    1c4a        J.      ADDS     r2,r1,#1
        0x00002e8c:    b291        ..      UXTH     r1,r2
        0x00002e8e:    4a3d        =J      LDR      r2,[pc,#244] ; [0x2f84] = 0xffff
        0x00002e90:    4291        .B      CMP      r1,r2
        0x00002e92:    dbfa        ..      BLT      0x2e8a ; I2C_MasterRx_var + 102
        0x00002e94:    4a39        9J      LDR      r2,[pc,#228] ; [0x2f7c] = 0x2000007e
        0x00002e96:    7812        .x      LDRB     r2,[r2,#0]
        0x00002e98:    2a01        .*      CMP      r2,#1
        0x00002e9a:    d010        ..      BEQ      0x2ebe ; I2C_MasterRx_var + 154
        0x00002e9c:    4b37        7K      LDR      r3,[pc,#220] ; [0x2f7c] = 0x2000007e
        0x00002e9e:    781a        .x      LDRB     r2,[r3,#0]
        0x00002ea0:    1c53        S.      ADDS     r3,r2,#1
        0x00002ea2:    4c36        6L      LDR      r4,[pc,#216] ; [0x2f7c] = 0x2000007e
        0x00002ea4:    7023        #p      STRB     r3,[r4,#0]
        0x00002ea6:    4b36        6K      LDR      r3,[pc,#216] ; [0x2f80] = 0x20000075
        0x00002ea8:    5c9b        .\      LDRB     r3,[r3,r2]
        0x00002eaa:    4c33        3L      LDR      r4,[pc,#204] ; [0x2f78] = 0x40020000
        0x00002eac:    60a3        .`      STR      r3,[r4,#8]
        0x00002eae:    4622        "F      MOV      r2,r4
        0x00002eb0:    6812        .h      LDR      r2,[r2,#0]
        0x00002eb2:    233c        <#      MOVS     r3,#0x3c
        0x00002eb4:    439a        .C      BICS     r2,r2,r3
        0x00002eb6:    3208        .2      ADDS     r2,r2,#8
        0x00002eb8:    4623        #F      MOV      r3,r4
        0x00002eba:    601a        .`      STR      r2,[r3,#0]
        0x00002ebc:    e059        Y.      B        0x2f72 ; I2C_MasterRx_var + 334
        0x00002ebe:    4a2e        .J      LDR      r2,[pc,#184] ; [0x2f78] = 0x40020000
        0x00002ec0:    6812        .h      LDR      r2,[r2,#0]
        0x00002ec2:    233c        <#      MOVS     r3,#0x3c
        0x00002ec4:    439a        .C      BICS     r2,r2,r3
        0x00002ec6:    3220         2      ADDS     r2,r2,#0x20
        0x00002ec8:    2308        .#      MOVS     r3,#8
        0x00002eca:    431a        .C      ORRS     r2,r2,r3
        0x00002ecc:    4b2a        *K      LDR      r3,[pc,#168] ; [0x2f78] = 0x40020000
        0x00002ece:    601a        .`      STR      r2,[r3,#0]
        0x00002ed0:    e04f        O.      B        0x2f72 ; I2C_MasterRx_var + 334
        0x00002ed2:    2810        .(      CMP      r0,#0x10
        0x00002ed4:    d10d        ..      BNE      0x2ef2 ; I2C_MasterRx_var + 206
        0x00002ed6:    4a27        'J      LDR      r2,[pc,#156] ; [0x2f74] = 0x20000074
        0x00002ed8:    7812        .x      LDRB     r2,[r2,#0]
        0x00002eda:    2301        .#      MOVS     r3,#1
        0x00002edc:    431a        .C      ORRS     r2,r2,r3
        0x00002ede:    4b26        &K      LDR      r3,[pc,#152] ; [0x2f78] = 0x40020000
        0x00002ee0:    609a        .`      STR      r2,[r3,#8]
        0x00002ee2:    461a        .F      MOV      r2,r3
        0x00002ee4:    6812        .h      LDR      r2,[r2,#0]
        0x00002ee6:    233c        <#      MOVS     r3,#0x3c
        0x00002ee8:    439a        .C      BICS     r2,r2,r3
        0x00002eea:    3208        .2      ADDS     r2,r2,#8
        0x00002eec:    4b22        "K      LDR      r3,[pc,#136] ; [0x2f78] = 0x40020000
        0x00002eee:    601a        .`      STR      r2,[r3,#0]
        0x00002ef0:    e03f        ?.      B        0x2f72 ; I2C_MasterRx_var + 334
        0x00002ef2:    2840        @(      CMP      r0,#0x40
        0x00002ef4:    d109        ..      BNE      0x2f0a ; I2C_MasterRx_var + 230
        0x00002ef6:    4a20         J      LDR      r2,[pc,#128] ; [0x2f78] = 0x40020000
        0x00002ef8:    6812        .h      LDR      r2,[r2,#0]
        0x00002efa:    233c        <#      MOVS     r3,#0x3c
        0x00002efc:    439a        .C      BICS     r2,r2,r3
        0x00002efe:    3208        .2      ADDS     r2,r2,#8
        0x00002f00:    2304        .#      MOVS     r3,#4
        0x00002f02:    431a        .C      ORRS     r2,r2,r3
        0x00002f04:    4b1c        .K      LDR      r3,[pc,#112] ; [0x2f78] = 0x40020000
        0x00002f06:    601a        .`      STR      r2,[r3,#0]
        0x00002f08:    e033        3.      B        0x2f72 ; I2C_MasterRx_var + 334
        0x00002f0a:    2850        P(      CMP      r0,#0x50
        0x00002f0c:    d10b        ..      BNE      0x2f26 ; I2C_MasterRx_var + 258
        0x00002f0e:    4a1a        .J      LDR      r2,[pc,#104] ; [0x2f78] = 0x40020000
        0x00002f10:    6892        .h      LDR      r2,[r2,#8]
        0x00002f12:    4b1d        .K      LDR      r3,[pc,#116] ; [0x2f88] = 0x20000078
        0x00002f14:    701a        .p      STRB     r2,[r3,#0]
        0x00002f16:    4a18        .J      LDR      r2,[pc,#96] ; [0x2f78] = 0x40020000
        0x00002f18:    6812        .h      LDR      r2,[r2,#0]
        0x00002f1a:    233c        <#      MOVS     r3,#0x3c
        0x00002f1c:    439a        .C      BICS     r2,r2,r3
        0x00002f1e:    3208        .2      ADDS     r2,r2,#8
        0x00002f20:    4b15        .K      LDR      r3,[pc,#84] ; [0x2f78] = 0x40020000
        0x00002f22:    601a        .`      STR      r2,[r3,#0]
        0x00002f24:    e025        %.      B        0x2f72 ; I2C_MasterRx_var + 334
        0x00002f26:    2858        X(      CMP      r0,#0x58
        0x00002f28:    d110        ..      BNE      0x2f4c ; I2C_MasterRx_var + 296
        0x00002f2a:    4a13        .J      LDR      r2,[pc,#76] ; [0x2f78] = 0x40020000
        0x00002f2c:    6892        .h      LDR      r2,[r2,#8]
        0x00002f2e:    4b17        .K      LDR      r3,[pc,#92] ; [0x2f8c] = 0x20000079
        0x00002f30:    701a        .p      STRB     r2,[r3,#0]
        0x00002f32:    4a11        .J      LDR      r2,[pc,#68] ; [0x2f78] = 0x40020000
        0x00002f34:    6812        .h      LDR      r2,[r2,#0]
        0x00002f36:    233c        <#      MOVS     r3,#0x3c
        0x00002f38:    439a        .C      BICS     r2,r2,r3
        0x00002f3a:    3210        .2      ADDS     r2,r2,#0x10
        0x00002f3c:    2308        .#      MOVS     r3,#8
        0x00002f3e:    431a        .C      ORRS     r2,r2,r3
        0x00002f40:    4b0d        .K      LDR      r3,[pc,#52] ; [0x2f78] = 0x40020000
        0x00002f42:    601a        .`      STR      r2,[r3,#0]
        0x00002f44:    2201        ."      MOVS     r2,#1
        0x00002f46:    4b12        .K      LDR      r3,[pc,#72] ; [0x2f90] = 0x2000007f
        0x00002f48:    701a        .p      STRB     r2,[r3,#0]
        0x00002f4a:    e012        ..      B        0x2f72 ; I2C_MasterRx_var + 334
        0x00002f4c:    4b11        .K      LDR      r3,[pc,#68] ; [0x2f94] = 0x2000007a
        0x00002f4e:    881a        ..      LDRH     r2,[r3,#0]
        0x00002f50:    1c53        S.      ADDS     r3,r2,#1
        0x00002f52:    4c10        .L      LDR      r4,[pc,#64] ; [0x2f94] = 0x2000007a
        0x00002f54:    8023        #.      STRH     r3,[r4,#0]
        0x00002f56:    2a20         *      CMP      r2,#0x20
        0x00002f58:    dd0b        ..      BLE      0x2f72 ; I2C_MasterRx_var + 334
        0x00002f5a:    4a07        .J      LDR      r2,[pc,#28] ; [0x2f78] = 0x40020000
        0x00002f5c:    6812        .h      LDR      r2,[r2,#0]
        0x00002f5e:    233c        <#      MOVS     r3,#0x3c
        0x00002f60:    439a        .C      BICS     r2,r2,r3
        0x00002f62:    3210        .2      ADDS     r2,r2,#0x10
        0x00002f64:    2308        .#      MOVS     r3,#8
        0x00002f66:    431a        .C      ORRS     r2,r2,r3
        0x00002f68:    4b03        .K      LDR      r3,[pc,#12] ; [0x2f78] = 0x40020000
        0x00002f6a:    601a        .`      STR      r2,[r3,#0]
        0x00002f6c:    2201        ."      MOVS     r2,#1
        0x00002f6e:    4b08        .K      LDR      r3,[pc,#32] ; [0x2f90] = 0x2000007f
        0x00002f70:    701a        .p      STRB     r2,[r3,#0]
        0x00002f72:    bd10        ..      POP      {r4,pc}
    $d
        0x00002f74:    20000074    t..     DCD    536871028
        0x00002f78:    40020000    ...@    DCD    1073872896
        0x00002f7c:    2000007e    ~..     DCD    536871038
        0x00002f80:    20000075    u..     DCD    536871029
        0x00002f84:    0000ffff    ....    DCD    65535
        0x00002f88:    20000078    x..     DCD    536871032
        0x00002f8c:    20000079    y..     DCD    536871033
        0x00002f90:    2000007f    ...     DCD    536871039
        0x00002f94:    2000007a    z..     DCD    536871034
    $t
    i.I2C_MasterTx
    I2C_MasterTx
        0x00002f98:    2808        .(      CMP      r0,#8
        0x00002f9a:    d10b        ..      BNE      0x2fb4 ; I2C_MasterTx + 28
        0x00002f9c:    4931        1I      LDR      r1,[pc,#196] ; [0x3064] = 0x20000074
        0x00002f9e:    7809        .x      LDRB     r1,[r1,#0]
        0x00002fa0:    4a31        1J      LDR      r2,[pc,#196] ; [0x3068] = 0x40020000
        0x00002fa2:    6091        .`      STR      r1,[r2,#8]
        0x00002fa4:    4611        .F      MOV      r1,r2
        0x00002fa6:    6809        .h      LDR      r1,[r1,#0]
        0x00002fa8:    223c        <"      MOVS     r2,#0x3c
        0x00002faa:    4391        .C      BICS     r1,r1,r2
        0x00002fac:    3108        .1      ADDS     r1,r1,#8
        0x00002fae:    4a2e        .J      LDR      r2,[pc,#184] ; [0x3068] = 0x40020000
        0x00002fb0:    6011        .`      STR      r1,[r2,#0]
        0x00002fb2:    e055        U.      B        0x3060 ; I2C_MasterTx + 200
        0x00002fb4:    2818        .(      CMP      r0,#0x18
        0x00002fb6:    d110        ..      BNE      0x2fda ; I2C_MasterTx + 66
        0x00002fb8:    4a2c        ,J      LDR      r2,[pc,#176] ; [0x306c] = 0x2000007e
        0x00002fba:    7811        .x      LDRB     r1,[r2,#0]
        0x00002fbc:    1c4a        J.      ADDS     r2,r1,#1
        0x00002fbe:    4b2b        +K      LDR      r3,[pc,#172] ; [0x306c] = 0x2000007e
        0x00002fc0:    701a        .p      STRB     r2,[r3,#0]
        0x00002fc2:    4a2b        +J      LDR      r2,[pc,#172] ; [0x3070] = 0x20000075
        0x00002fc4:    5c52        R\      LDRB     r2,[r2,r1]
        0x00002fc6:    4b28        (K      LDR      r3,[pc,#160] ; [0x3068] = 0x40020000
        0x00002fc8:    609a        .`      STR      r2,[r3,#8]
        0x00002fca:    4619        .F      MOV      r1,r3
        0x00002fcc:    6809        .h      LDR      r1,[r1,#0]
        0x00002fce:    223c        <"      MOVS     r2,#0x3c
        0x00002fd0:    4391        .C      BICS     r1,r1,r2
        0x00002fd2:    3108        .1      ADDS     r1,r1,#8
        0x00002fd4:    461a        .F      MOV      r2,r3
        0x00002fd6:    6011        .`      STR      r1,[r2,#0]
        0x00002fd8:    e042        B.      B        0x3060 ; I2C_MasterTx + 200
        0x00002fda:    2820         (      CMP      r0,#0x20
        0x00002fdc:    d109        ..      BNE      0x2ff2 ; I2C_MasterTx + 90
        0x00002fde:    4922        "I      LDR      r1,[pc,#136] ; [0x3068] = 0x40020000
        0x00002fe0:    6809        .h      LDR      r1,[r1,#0]
        0x00002fe2:    223c        <"      MOVS     r2,#0x3c
        0x00002fe4:    4391        .C      BICS     r1,r1,r2
        0x00002fe6:    3120         1      ADDS     r1,r1,#0x20
        0x00002fe8:    2218        ."      MOVS     r2,#0x18
        0x00002fea:    4311        .C      ORRS     r1,r1,r2
        0x00002fec:    4a1e        .J      LDR      r2,[pc,#120] ; [0x3068] = 0x40020000
        0x00002fee:    6011        .`      STR      r1,[r2,#0]
        0x00002ff0:    e036        6.      B        0x3060 ; I2C_MasterTx + 200
        0x00002ff2:    2828        ((      CMP      r0,#0x28
        0x00002ff4:    d121        !.      BNE      0x303a ; I2C_MasterTx + 162
        0x00002ff6:    491d        .I      LDR      r1,[pc,#116] ; [0x306c] = 0x2000007e
        0x00002ff8:    7809        .x      LDRB     r1,[r1,#0]
        0x00002ffa:    2902        .)      CMP      r1,#2
        0x00002ffc:    d010        ..      BEQ      0x3020 ; I2C_MasterTx + 136
        0x00002ffe:    4a1b        .J      LDR      r2,[pc,#108] ; [0x306c] = 0x2000007e
        0x00003000:    7811        .x      LDRB     r1,[r2,#0]
        0x00003002:    1c4a        J.      ADDS     r2,r1,#1
        0x00003004:    4b19        .K      LDR      r3,[pc,#100] ; [0x306c] = 0x2000007e
        0x00003006:    701a        .p      STRB     r2,[r3,#0]
        0x00003008:    4a19        .J      LDR      r2,[pc,#100] ; [0x3070] = 0x20000075
        0x0000300a:    5c52        R\      LDRB     r2,[r2,r1]
        0x0000300c:    4b16        .K      LDR      r3,[pc,#88] ; [0x3068] = 0x40020000
        0x0000300e:    609a        .`      STR      r2,[r3,#8]
        0x00003010:    4619        .F      MOV      r1,r3
        0x00003012:    6809        .h      LDR      r1,[r1,#0]
        0x00003014:    223c        <"      MOVS     r2,#0x3c
        0x00003016:    4391        .C      BICS     r1,r1,r2
        0x00003018:    3108        .1      ADDS     r1,r1,#8
        0x0000301a:    461a        .F      MOV      r2,r3
        0x0000301c:    6011        .`      STR      r1,[r2,#0]
        0x0000301e:    e01f        ..      B        0x3060 ; I2C_MasterTx + 200
        0x00003020:    4911        .I      LDR      r1,[pc,#68] ; [0x3068] = 0x40020000
        0x00003022:    6809        .h      LDR      r1,[r1,#0]
        0x00003024:    223c        <"      MOVS     r2,#0x3c
        0x00003026:    4391        .C      BICS     r1,r1,r2
        0x00003028:    3110        .1      ADDS     r1,r1,#0x10
        0x0000302a:    2208        ."      MOVS     r2,#8
        0x0000302c:    4311        .C      ORRS     r1,r1,r2
        0x0000302e:    4a0e        .J      LDR      r2,[pc,#56] ; [0x3068] = 0x40020000
        0x00003030:    6011        .`      STR      r1,[r2,#0]
        0x00003032:    2101        .!      MOVS     r1,#1
        0x00003034:    4a0f        .J      LDR      r2,[pc,#60] ; [0x3074] = 0x2000007f
        0x00003036:    7011        .p      STRB     r1,[r2,#0]
        0x00003038:    e012        ..      B        0x3060 ; I2C_MasterTx + 200
        0x0000303a:    4a0f        .J      LDR      r2,[pc,#60] ; [0x3078] = 0x2000007a
        0x0000303c:    8811        ..      LDRH     r1,[r2,#0]
        0x0000303e:    1c4a        J.      ADDS     r2,r1,#1
        0x00003040:    4b0d        .K      LDR      r3,[pc,#52] ; [0x3078] = 0x2000007a
        0x00003042:    801a        ..      STRH     r2,[r3,#0]
        0x00003044:    2920         )      CMP      r1,#0x20
        0x00003046:    dd0b        ..      BLE      0x3060 ; I2C_MasterTx + 200
        0x00003048:    4907        .I      LDR      r1,[pc,#28] ; [0x3068] = 0x40020000
        0x0000304a:    6809        .h      LDR      r1,[r1,#0]
        0x0000304c:    223c        <"      MOVS     r2,#0x3c
        0x0000304e:    4391        .C      BICS     r1,r1,r2
        0x00003050:    3110        .1      ADDS     r1,r1,#0x10
        0x00003052:    2208        ."      MOVS     r2,#8
        0x00003054:    4311        .C      ORRS     r1,r1,r2
        0x00003056:    4a04        .J      LDR      r2,[pc,#16] ; [0x3068] = 0x40020000
        0x00003058:    6011        .`      STR      r1,[r2,#0]
        0x0000305a:    2101        .!      MOVS     r1,#1
        0x0000305c:    4a05        .J      LDR      r2,[pc,#20] ; [0x3074] = 0x2000007f
        0x0000305e:    7011        .p      STRB     r1,[r2,#0]
        0x00003060:    4770        pG      BX       lr
    $d
        0x00003062:    0000        ..      DCW    0
        0x00003064:    20000074    t..     DCD    536871028
        0x00003068:    40020000    ...@    DCD    1073872896
        0x0000306c:    2000007e    ~..     DCD    536871038
        0x00003070:    20000075    u..     DCD    536871029
        0x00003074:    2000007f    ...     DCD    536871039
        0x00003078:    2000007a    z..     DCD    536871034
    $t
    i.I2C_MasterTx_var
    I2C_MasterTx_var
        0x0000307c:    2808        .(      CMP      r0,#8
        0x0000307e:    d10b        ..      BNE      0x3098 ; I2C_MasterTx_var + 28
        0x00003080:    4931        1I      LDR      r1,[pc,#196] ; [0x3148] = 0x20000074
        0x00003082:    7809        .x      LDRB     r1,[r1,#0]
        0x00003084:    4a31        1J      LDR      r2,[pc,#196] ; [0x314c] = 0x40020000
        0x00003086:    6091        .`      STR      r1,[r2,#8]
        0x00003088:    4611        .F      MOV      r1,r2
        0x0000308a:    6809        .h      LDR      r1,[r1,#0]
        0x0000308c:    223c        <"      MOVS     r2,#0x3c
        0x0000308e:    4391        .C      BICS     r1,r1,r2
        0x00003090:    3108        .1      ADDS     r1,r1,#8
        0x00003092:    4a2e        .J      LDR      r2,[pc,#184] ; [0x314c] = 0x40020000
        0x00003094:    6011        .`      STR      r1,[r2,#0]
        0x00003096:    e055        U.      B        0x3144 ; I2C_MasterTx_var + 200
        0x00003098:    2818        .(      CMP      r0,#0x18
        0x0000309a:    d110        ..      BNE      0x30be ; I2C_MasterTx_var + 66
        0x0000309c:    4a2c        ,J      LDR      r2,[pc,#176] ; [0x3150] = 0x2000007e
        0x0000309e:    7811        .x      LDRB     r1,[r2,#0]
        0x000030a0:    1c4a        J.      ADDS     r2,r1,#1
        0x000030a2:    4b2b        +K      LDR      r3,[pc,#172] ; [0x3150] = 0x2000007e
        0x000030a4:    701a        .p      STRB     r2,[r3,#0]
        0x000030a6:    4a2b        +J      LDR      r2,[pc,#172] ; [0x3154] = 0x20000075
        0x000030a8:    5c52        R\      LDRB     r2,[r2,r1]
        0x000030aa:    4b28        (K      LDR      r3,[pc,#160] ; [0x314c] = 0x40020000
        0x000030ac:    609a        .`      STR      r2,[r3,#8]
        0x000030ae:    4619        .F      MOV      r1,r3
        0x000030b0:    6809        .h      LDR      r1,[r1,#0]
        0x000030b2:    223c        <"      MOVS     r2,#0x3c
        0x000030b4:    4391        .C      BICS     r1,r1,r2
        0x000030b6:    3108        .1      ADDS     r1,r1,#8
        0x000030b8:    461a        .F      MOV      r2,r3
        0x000030ba:    6011        .`      STR      r1,[r2,#0]
        0x000030bc:    e042        B.      B        0x3144 ; I2C_MasterTx_var + 200
        0x000030be:    2820         (      CMP      r0,#0x20
        0x000030c0:    d109        ..      BNE      0x30d6 ; I2C_MasterTx_var + 90
        0x000030c2:    4922        "I      LDR      r1,[pc,#136] ; [0x314c] = 0x40020000
        0x000030c4:    6809        .h      LDR      r1,[r1,#0]
        0x000030c6:    223c        <"      MOVS     r2,#0x3c
        0x000030c8:    4391        .C      BICS     r1,r1,r2
        0x000030ca:    3120         1      ADDS     r1,r1,#0x20
        0x000030cc:    2218        ."      MOVS     r2,#0x18
        0x000030ce:    4311        .C      ORRS     r1,r1,r2
        0x000030d0:    4a1e        .J      LDR      r2,[pc,#120] ; [0x314c] = 0x40020000
        0x000030d2:    6011        .`      STR      r1,[r2,#0]
        0x000030d4:    e036        6.      B        0x3144 ; I2C_MasterTx_var + 200
        0x000030d6:    2828        ((      CMP      r0,#0x28
        0x000030d8:    d121        !.      BNE      0x311e ; I2C_MasterTx_var + 162
        0x000030da:    491d        .I      LDR      r1,[pc,#116] ; [0x3150] = 0x2000007e
        0x000030dc:    7809        .x      LDRB     r1,[r1,#0]
        0x000030de:    2903        .)      CMP      r1,#3
        0x000030e0:    d010        ..      BEQ      0x3104 ; I2C_MasterTx_var + 136
        0x000030e2:    4a1b        .J      LDR      r2,[pc,#108] ; [0x3150] = 0x2000007e
        0x000030e4:    7811        .x      LDRB     r1,[r2,#0]
        0x000030e6:    1c4a        J.      ADDS     r2,r1,#1
        0x000030e8:    4b19        .K      LDR      r3,[pc,#100] ; [0x3150] = 0x2000007e
        0x000030ea:    701a        .p      STRB     r2,[r3,#0]
        0x000030ec:    4a19        .J      LDR      r2,[pc,#100] ; [0x3154] = 0x20000075
        0x000030ee:    5c52        R\      LDRB     r2,[r2,r1]
        0x000030f0:    4b16        .K      LDR      r3,[pc,#88] ; [0x314c] = 0x40020000
        0x000030f2:    609a        .`      STR      r2,[r3,#8]
        0x000030f4:    4619        .F      MOV      r1,r3
        0x000030f6:    6809        .h      LDR      r1,[r1,#0]
        0x000030f8:    223c        <"      MOVS     r2,#0x3c
        0x000030fa:    4391        .C      BICS     r1,r1,r2
        0x000030fc:    3108        .1      ADDS     r1,r1,#8
        0x000030fe:    461a        .F      MOV      r2,r3
        0x00003100:    6011        .`      STR      r1,[r2,#0]
        0x00003102:    e01f        ..      B        0x3144 ; I2C_MasterTx_var + 200
        0x00003104:    4911        .I      LDR      r1,[pc,#68] ; [0x314c] = 0x40020000
        0x00003106:    6809        .h      LDR      r1,[r1,#0]
        0x00003108:    223c        <"      MOVS     r2,#0x3c
        0x0000310a:    4391        .C      BICS     r1,r1,r2
        0x0000310c:    3110        .1      ADDS     r1,r1,#0x10
        0x0000310e:    2208        ."      MOVS     r2,#8
        0x00003110:    4311        .C      ORRS     r1,r1,r2
        0x00003112:    4a0e        .J      LDR      r2,[pc,#56] ; [0x314c] = 0x40020000
        0x00003114:    6011        .`      STR      r1,[r2,#0]
        0x00003116:    2101        .!      MOVS     r1,#1
        0x00003118:    4a0f        .J      LDR      r2,[pc,#60] ; [0x3158] = 0x2000007f
        0x0000311a:    7011        .p      STRB     r1,[r2,#0]
        0x0000311c:    e012        ..      B        0x3144 ; I2C_MasterTx_var + 200
        0x0000311e:    4a0f        .J      LDR      r2,[pc,#60] ; [0x315c] = 0x2000007a
        0x00003120:    8811        ..      LDRH     r1,[r2,#0]
        0x00003122:    1c4a        J.      ADDS     r2,r1,#1
        0x00003124:    4b0d        .K      LDR      r3,[pc,#52] ; [0x315c] = 0x2000007a
        0x00003126:    801a        ..      STRH     r2,[r3,#0]
        0x00003128:    2920         )      CMP      r1,#0x20
        0x0000312a:    dd0b        ..      BLE      0x3144 ; I2C_MasterTx_var + 200
        0x0000312c:    4907        .I      LDR      r1,[pc,#28] ; [0x314c] = 0x40020000
        0x0000312e:    6809        .h      LDR      r1,[r1,#0]
        0x00003130:    223c        <"      MOVS     r2,#0x3c
        0x00003132:    4391        .C      BICS     r1,r1,r2
        0x00003134:    3110        .1      ADDS     r1,r1,#0x10
        0x00003136:    2208        ."      MOVS     r2,#8
        0x00003138:    4311        .C      ORRS     r1,r1,r2
        0x0000313a:    4a04        .J      LDR      r2,[pc,#16] ; [0x314c] = 0x40020000
        0x0000313c:    6011        .`      STR      r1,[r2,#0]
        0x0000313e:    2101        .!      MOVS     r1,#1
        0x00003140:    4a05        .J      LDR      r2,[pc,#20] ; [0x3158] = 0x2000007f
        0x00003142:    7011        .p      STRB     r1,[r2,#0]
        0x00003144:    4770        pG      BX       lr
    $d
        0x00003146:    0000        ..      DCW    0
        0x00003148:    20000074    t..     DCD    536871028
        0x0000314c:    40020000    ...@    DCD    1073872896
        0x00003150:    2000007e    ~..     DCD    536871038
        0x00003154:    20000075    u..     DCD    536871029
        0x00003158:    2000007f    ...     DCD    536871039
        0x0000315c:    2000007a    z..     DCD    536871034
    $t
    i.I2C_Open
    I2C_Open
        0x00003160:    b5f8        ..      PUSH     {r3-r7,lr}
        0x00003162:    4604        .F      MOV      r4,r0
        0x00003164:    460d        .F      MOV      r5,r1
        0x00003166:    00a9        ..      LSLS     r1,r5,#2
        0x00003168:    4a0c        .J      LDR      r2,[pc,#48] ; [0x319c] = 0x20000000
        0x0000316a:    6812        .h      LDR      r2,[r2,#0]
        0x0000316c:    230a        .#      MOVS     r3,#0xa
        0x0000316e:    435a        ZC      MULS     r2,r3,r2
        0x00003170:    4610        .F      MOV      r0,r2
        0x00003172:    f7fdf9b3    ....    BL       __aeabi_uidiv ; 0x4dc
        0x00003176:    1d47        G.      ADDS     r7,r0,#5
        0x00003178:    210a        .!      MOVS     r1,#0xa
        0x0000317a:    4638        8F      MOV      r0,r7
        0x0000317c:    f7fdf9ae    ....    BL       __aeabi_uidiv ; 0x4dc
        0x00003180:    1e46        F.      SUBS     r6,r0,#1
        0x00003182:    6126        &a      STR      r6,[r4,#0x10]
        0x00003184:    6820         h      LDR      r0,[r4,#0]
        0x00003186:    2140        @!      MOVS     r1,#0x40
        0x00003188:    4308        .C      ORRS     r0,r0,r1
        0x0000318a:    6020         `      STR      r0,[r4,#0]
        0x0000318c:    1c70        p.      ADDS     r0,r6,#1
        0x0000318e:    0081        ..      LSLS     r1,r0,#2
        0x00003190:    4802        .H      LDR      r0,[pc,#8] ; [0x319c] = 0x20000000
        0x00003192:    6800        .h      LDR      r0,[r0,#0]
        0x00003194:    f7fdf9a2    ....    BL       __aeabi_uidiv ; 0x4dc
        0x00003198:    bdf8        ..      POP      {r3-r7,pc}
    $d
        0x0000319a:    0000        ..      DCW    0
        0x0000319c:    20000000    ...     DCD    536870912
    $t
    i.I2C_SetSlaveAddr
    I2C_SetSlaveAddr
        0x000031a0:    b510        ..      PUSH     {r4,lr}
        0x000031a2:    2900        .)      CMP      r1,#0
        0x000031a4:    d006        ..      BEQ      0x31b4 ; I2C_SetSlaveAddr + 20
        0x000031a6:    2901        .)      CMP      r1,#1
        0x000031a8:    d008        ..      BEQ      0x31bc ; I2C_SetSlaveAddr + 28
        0x000031aa:    2902        .)      CMP      r1,#2
        0x000031ac:    d00a        ..      BEQ      0x31c4 ; I2C_SetSlaveAddr + 36
        0x000031ae:    2903        .)      CMP      r1,#3
        0x000031b0:    d110        ..      BNE      0x31d4 ; I2C_SetSlaveAddr + 52
        0x000031b2:    e00b        ..      B        0x31cc ; I2C_SetSlaveAddr + 44
        0x000031b4:    0054        T.      LSLS     r4,r2,#1
        0x000031b6:    431c        .C      ORRS     r4,r4,r3
        0x000031b8:    6044        D`      STR      r4,[r0,#4]
        0x000031ba:    e00f        ..      B        0x31dc ; I2C_SetSlaveAddr + 60
        0x000031bc:    0054        T.      LSLS     r4,r2,#1
        0x000031be:    431c        .C      ORRS     r4,r4,r3
        0x000031c0:    6184        .a      STR      r4,[r0,#0x18]
        0x000031c2:    e00b        ..      B        0x31dc ; I2C_SetSlaveAddr + 60
        0x000031c4:    0054        T.      LSLS     r4,r2,#1
        0x000031c6:    431c        .C      ORRS     r4,r4,r3
        0x000031c8:    61c4        .a      STR      r4,[r0,#0x1c]
        0x000031ca:    e007        ..      B        0x31dc ; I2C_SetSlaveAddr + 60
        0x000031cc:    0054        T.      LSLS     r4,r2,#1
        0x000031ce:    431c        .C      ORRS     r4,r4,r3
        0x000031d0:    6204        .b      STR      r4,[r0,#0x20]
        0x000031d2:    e003        ..      B        0x31dc ; I2C_SetSlaveAddr + 60
        0x000031d4:    0054        T.      LSLS     r4,r2,#1
        0x000031d6:    431c        .C      ORRS     r4,r4,r3
        0x000031d8:    6044        D`      STR      r4,[r0,#4]
        0x000031da:    bf00        ..      NOP      
        0x000031dc:    bf00        ..      NOP      
        0x000031de:    bd10        ..      POP      {r4,pc}
    i.Init_AHRS
    Init_AHRS
        0x000031e0:    b510        ..      PUSH     {r4,lr}
        0x000031e2:    f000ff69    ..i.    BL       TIMER_Init ; 0x40b8
        0x000031e6:    207d        }       MOVS     r0,#0x7d
        0x000031e8:    00c0        ..      LSLS     r0,r0,#3
        0x000031ea:    f003fb1f    ....    BL       setup_system_tick ; 0x682c
        0x000031ee:    f002fa29    ..).    BL       nvtAHRSInit ; 0x5644
        0x000031f2:    2000        .       MOVS     r0,#0
        0x000031f4:    4913        .I      LDR      r1,[pc,#76] ; [0x3244] = 0x200007e8
        0x000031f6:    6008        .`      STR      r0,[r1,#0]
        0x000031f8:    6048        H`      STR      r0,[r1,#4]
        0x000031fa:    6088        .`      STR      r0,[r1,#8]
        0x000031fc:    2071        q       MOVS     r0,#0x71
        0x000031fe:    05c0        ..      LSLS     r0,r0,#23
        0x00003200:    4911        .I      LDR      r1,[pc,#68] ; [0x3248] = 0x200007d0
        0x00003202:    6008        .`      STR      r0,[r1,#0]
        0x00003204:    6048        H`      STR      r0,[r1,#4]
        0x00003206:    6088        .`      STR      r0,[r1,#8]
        0x00003208:    4608        .F      MOV      r0,r1
        0x0000320a:    f002fb77    ..w.    BL       nvtSetAccScale ; 0x58fc
        0x0000320e:    480d        .H      LDR      r0,[pc,#52] ; [0x3244] = 0x200007e8
        0x00003210:    f002fb6a    ..j.    BL       nvtSetAccOffset ; 0x58e8
        0x00003214:    2071        q       MOVS     r0,#0x71
        0x00003216:    05c0        ..      LSLS     r0,r0,#23
        0x00003218:    f002fb60    ..`.    BL       nvtSetAccG_PER_LSB ; 0x58dc
        0x0000321c:    2000        .       MOVS     r0,#0
        0x0000321e:    490b        .I      LDR      r1,[pc,#44] ; [0x324c] = 0x200007dc
        0x00003220:    6008        .`      STR      r0,[r1,#0]
        0x00003222:    6048        H`      STR      r0,[r1,#4]
        0x00003224:    6088        .`      STR      r0,[r1,#8]
        0x00003226:    480a        .H      LDR      r0,[pc,#40] ; [0x3250] = 0x3d7a0000
        0x00003228:    490a        .I      LDR      r1,[pc,#40] ; [0x3254] = 0x200007c4
        0x0000322a:    6008        .`      STR      r0,[r1,#0]
        0x0000322c:    6048        H`      STR      r0,[r1,#4]
        0x0000322e:    6088        .`      STR      r0,[r1,#8]
        0x00003230:    4608        .F      MOV      r0,r1
        0x00003232:    f002fb7d    ..}.    BL       nvtSetGyroScale ; 0x5930
        0x00003236:    4805        .H      LDR      r0,[pc,#20] ; [0x324c] = 0x200007dc
        0x00003238:    f002fb70    ..p.    BL       nvtSetGyroOffset ; 0x591c
        0x0000323c:    4804        .H      LDR      r0,[pc,#16] ; [0x3250] = 0x3d7a0000
        0x0000323e:    f002fb67    ..g.    BL       nvtSetGYRODegPLSB ; 0x5910
        0x00003242:    bd10        ..      POP      {r4,pc}
    $d
        0x00003244:    200007e8    ...     DCD    536872936
        0x00003248:    200007d0    ...     DCD    536872912
        0x0000324c:    200007dc    ...     DCD    536872924
        0x00003250:    3d7a0000    ..z=    DCD    1031405568
        0x00003254:    200007c4    ...     DCD    536872900
    $t
    i.Init_GPIO
    Init_GPIO
        0x00003258:    b510        ..      PUSH     {r4,lr}
        0x0000325a:    4a31        1J      LDR      r2,[pc,#196] ; [0x3320] = 0x6d84
        0x0000325c:    6851        Qh      LDR      r1,[r2,#4]
        0x0000325e:    6810        .h      LDR      r0,[r2,#0]
        0x00003260:    2201        ."      MOVS     r2,#1
        0x00003262:    f7fffbe4    ....    BL       GPIO_SetMode ; 0x2a2e
        0x00003266:    4a2e        .J      LDR      r2,[pc,#184] ; [0x3320] = 0x6d84
        0x00003268:    6851        Qh      LDR      r1,[r2,#4]
        0x0000326a:    6810        .h      LDR      r0,[r2,#0]
        0x0000326c:    f7fffbf6    ....    BL       GPIO_SetPinOutHigh ; 0x2a5c
        0x00003270:    4a2b        +J      LDR      r2,[pc,#172] ; [0x3320] = 0x6d84
        0x00003272:    6911        .i      LDR      r1,[r2,#0x10]
        0x00003274:    68d0        .h      LDR      r0,[r2,#0xc]
        0x00003276:    2203        ."      MOVS     r2,#3
        0x00003278:    f7fffbd9    ....    BL       GPIO_SetMode ; 0x2a2e
        0x0000327c:    4a28        (J      LDR      r2,[pc,#160] ; [0x3320] = 0x6d84
        0x0000327e:    329c        .2      ADDS     r2,r2,#0x9c
        0x00003280:    6851        Qh      LDR      r1,[r2,#4]
        0x00003282:    3a1c        .:      SUBS     r2,r2,#0x1c
        0x00003284:    69d0        .i      LDR      r0,[r2,#0x1c]
        0x00003286:    2201        ."      MOVS     r2,#1
        0x00003288:    f7fffbd1    ....    BL       GPIO_SetMode ; 0x2a2e
        0x0000328c:    4a24        $J      LDR      r2,[pc,#144] ; [0x3320] = 0x6d84
        0x0000328e:    329c        .2      ADDS     r2,r2,#0x9c
        0x00003290:    6851        Qh      LDR      r1,[r2,#4]
        0x00003292:    3a1c        .:      SUBS     r2,r2,#0x1c
        0x00003294:    69d0        .i      LDR      r0,[r2,#0x1c]
        0x00003296:    f7fffbe1    ....    BL       GPIO_SetPinOutHigh ; 0x2a5c
        0x0000329a:    4a21        !J      LDR      r2,[pc,#132] ; [0x3320] = 0x6d84
        0x0000329c:    69d1        .i      LDR      r1,[r2,#0x1c]
        0x0000329e:    6990        .i      LDR      r0,[r2,#0x18]
        0x000032a0:    2201        ."      MOVS     r2,#1
        0x000032a2:    f7fffbc4    ....    BL       GPIO_SetMode ; 0x2a2e
        0x000032a6:    4a1e        .J      LDR      r2,[pc,#120] ; [0x3320] = 0x6d84
        0x000032a8:    69d1        .i      LDR      r1,[r2,#0x1c]
        0x000032aa:    6990        .i      LDR      r0,[r2,#0x18]
        0x000032ac:    f7fffbd6    ....    BL       GPIO_SetPinOutHigh ; 0x2a5c
        0x000032b0:    4a1b        .J      LDR      r2,[pc,#108] ; [0x3320] = 0x6d84
        0x000032b2:    6a91        .j      LDR      r1,[r2,#0x28]
        0x000032b4:    6a50        Pj      LDR      r0,[r2,#0x24]
        0x000032b6:    2201        ."      MOVS     r2,#1
        0x000032b8:    f7fffbb9    ....    BL       GPIO_SetMode ; 0x2a2e
        0x000032bc:    4a18        .J      LDR      r2,[pc,#96] ; [0x3320] = 0x6d84
        0x000032be:    6a91        .j      LDR      r1,[r2,#0x28]
        0x000032c0:    6a50        Pj      LDR      r0,[r2,#0x24]
        0x000032c2:    f7fffbcb    ....    BL       GPIO_SetPinOutHigh ; 0x2a5c
        0x000032c6:    4a16        .J      LDR      r2,[pc,#88] ; [0x3320] = 0x6d84
        0x000032c8:    6b51        Qk      LDR      r1,[r2,#0x34]
        0x000032ca:    6b10        .k      LDR      r0,[r2,#0x30]
        0x000032cc:    2201        ."      MOVS     r2,#1
        0x000032ce:    f7fffbae    ....    BL       GPIO_SetMode ; 0x2a2e
        0x000032d2:    4a13        .J      LDR      r2,[pc,#76] ; [0x3320] = 0x6d84
        0x000032d4:    6b51        Qk      LDR      r1,[r2,#0x34]
        0x000032d6:    6b10        .k      LDR      r0,[r2,#0x30]
        0x000032d8:    f7fffbc0    ....    BL       GPIO_SetPinOutHigh ; 0x2a5c
        0x000032dc:    4a10        .J      LDR      r2,[pc,#64] ; [0x3320] = 0x6d84
        0x000032de:    6c11        .l      LDR      r1,[r2,#0x40]
        0x000032e0:    6bd0        .k      LDR      r0,[r2,#0x3c]
        0x000032e2:    2201        ."      MOVS     r2,#1
        0x000032e4:    f7fffba3    ....    BL       GPIO_SetMode ; 0x2a2e
        0x000032e8:    4a0d        .J      LDR      r2,[pc,#52] ; [0x3320] = 0x6d84
        0x000032ea:    6c11        .l      LDR      r1,[r2,#0x40]
        0x000032ec:    6bd0        .k      LDR      r0,[r2,#0x3c]
        0x000032ee:    f7fffbb5    ....    BL       GPIO_SetPinOutHigh ; 0x2a5c
        0x000032f2:    4a0b        .J      LDR      r2,[pc,#44] ; [0x3320] = 0x6d84
        0x000032f4:    6cd1        .l      LDR      r1,[r2,#0x4c]
        0x000032f6:    6c90        .l      LDR      r0,[r2,#0x48]
        0x000032f8:    2201        ."      MOVS     r2,#1
        0x000032fa:    f7fffb98    ....    BL       GPIO_SetMode ; 0x2a2e
        0x000032fe:    4a08        .J      LDR      r2,[pc,#32] ; [0x3320] = 0x6d84
        0x00003300:    6cd1        .l      LDR      r1,[r2,#0x4c]
        0x00003302:    6c90        .l      LDR      r0,[r2,#0x48]
        0x00003304:    f7fffbaa    ....    BL       GPIO_SetPinOutHigh ; 0x2a5c
        0x00003308:    4a05        .J      LDR      r2,[pc,#20] ; [0x3320] = 0x6d84
        0x0000330a:    6d91        .m      LDR      r1,[r2,#0x58]
        0x0000330c:    6d50        Pm      LDR      r0,[r2,#0x54]
        0x0000330e:    2201        ."      MOVS     r2,#1
        0x00003310:    f7fffb8d    ....    BL       GPIO_SetMode ; 0x2a2e
        0x00003314:    4a02        .J      LDR      r2,[pc,#8] ; [0x3320] = 0x6d84
        0x00003316:    6d91        .m      LDR      r1,[r2,#0x58]
        0x00003318:    6d50        Pm      LDR      r0,[r2,#0x54]
        0x0000331a:    f7fffb9f    ....    BL       GPIO_SetPinOutHigh ; 0x2a5c
        0x0000331e:    bd10        ..      POP      {r4,pc}
    $d
        0x00003320:    00006d84    .m..    DCD    28036
    $t
    i.Init_HDC1000
    Init_HDC1000
        0x00003324:    b510        ..      PUSH     {r4,lr}
        0x00003326:    2300        .#      MOVS     r3,#0
        0x00003328:    2280        ."      MOVS     r2,#0x80
        0x0000332a:    4619        .F      MOV      r1,r3
        0x0000332c:    4804        .H      LDR      r0,[pc,#16] ; [0x3340] = 0x40020000
        0x0000332e:    f7ffff37    ..7.    BL       I2C_SetSlaveAddr ; 0x31a0
        0x00003332:    2103        .!      MOVS     r1,#3
        0x00003334:    0309        ..      LSLS     r1,r1,#12
        0x00003336:    2002        .       MOVS     r0,#2
        0x00003338:    f7fffc70    ..p.    BL       HDC1000_I2C_SingleWrite ; 0x2c1c
        0x0000333c:    bd10        ..      POP      {r4,pc}
    $d
        0x0000333e:    0000        ..      DCW    0
        0x00003340:    40020000    ...@    DCD    1073872896
    $t
    i.Init_KEY
    Init_KEY
        0x00003344:    b510        ..      PUSH     {r4,lr}
        0x00003346:    4a27        'J      LDR      r2,[pc,#156] ; [0x33e4] = 0x6d84
        0x00003348:    6e51        Qn      LDR      r1,[r2,#0x64]
        0x0000334a:    6e10        .n      LDR      r0,[r2,#0x60]
        0x0000334c:    2203        ."      MOVS     r2,#3
        0x0000334e:    f7fffb6e    ..n.    BL       GPIO_SetMode ; 0x2a2e
        0x00003352:    4a24        $J      LDR      r2,[pc,#144] ; [0x33e4] = 0x6d84
        0x00003354:    6f11        .o      LDR      r1,[r2,#0x70]
        0x00003356:    6ed0        .n      LDR      r0,[r2,#0x6c]
        0x00003358:    2203        ."      MOVS     r2,#3
        0x0000335a:    f7fffb68    ..h.    BL       GPIO_SetMode ; 0x2a2e
        0x0000335e:    4a21        !J      LDR      r2,[pc,#132] ; [0x33e4] = 0x6d84
        0x00003360:    6fd1        .o      LDR      r1,[r2,#0x7c]
        0x00003362:    6f90        .o      LDR      r0,[r2,#0x78]
        0x00003364:    2203        ."      MOVS     r2,#3
        0x00003366:    f7fffb62    ..b.    BL       GPIO_SetMode ; 0x2a2e
        0x0000336a:    4a1e        .J      LDR      r2,[pc,#120] ; [0x33e4] = 0x6d84
        0x0000336c:    3260        `2      ADDS     r2,r2,#0x60
        0x0000336e:    7a11        .z      LDRB     r1,[r2,#8]
        0x00003370:    3a60        `:      SUBS     r2,r2,#0x60
        0x00003372:    6e10        .n      LDR      r0,[r2,#0x60]
        0x00003374:    2201        ."      MOVS     r2,#1
        0x00003376:    0412        ..      LSLS     r2,r2,#16
        0x00003378:    f7fffb4c    ..L.    BL       GPIO_EnableInt ; 0x2a14
        0x0000337c:    4a19        .J      LDR      r2,[pc,#100] ; [0x33e4] = 0x6d84
        0x0000337e:    326c        l2      ADDS     r2,r2,#0x6c
        0x00003380:    7a11        .z      LDRB     r1,[r2,#8]
        0x00003382:    3a6c        l:      SUBS     r2,r2,#0x6c
        0x00003384:    6ed0        .n      LDR      r0,[r2,#0x6c]
        0x00003386:    2201        ."      MOVS     r2,#1
        0x00003388:    0412        ..      LSLS     r2,r2,#16
        0x0000338a:    f7fffb43    ..C.    BL       GPIO_EnableInt ; 0x2a14
        0x0000338e:    4a15        .J      LDR      r2,[pc,#84] ; [0x33e4] = 0x6d84
        0x00003390:    3278        x2      ADDS     r2,r2,#0x78
        0x00003392:    7a11        .z      LDRB     r1,[r2,#8]
        0x00003394:    3a78        x:      SUBS     r2,r2,#0x78
        0x00003396:    6f90        .o      LDR      r0,[r2,#0x78]
        0x00003398:    2201        ."      MOVS     r2,#1
        0x0000339a:    0412        ..      LSLS     r2,r2,#16
        0x0000339c:    f7fffb3a    ..:.    BL       GPIO_EnableInt ; 0x2a14
        0x000033a0:    2004        .       MOVS     r0,#4
        0x000033a2:    f000f981    ....    BL       NVIC_EnableIRQ ; 0x36a8
        0x000033a6:    202d        -       MOVS     r0,#0x2d
        0x000033a8:    490f        .I      LDR      r1,[pc,#60] ; [0x33e8] = 0x50004180
        0x000033aa:    6008        .`      STR      r0,[r1,#0]
        0x000033ac:    480d        .H      LDR      r0,[pc,#52] ; [0x33e4] = 0x6d84
        0x000033ae:    6e00        .n      LDR      r0,[r0,#0x60]
        0x000033b0:    6940        @i      LDR      r0,[r0,#0x14]
        0x000033b2:    490c        .I      LDR      r1,[pc,#48] ; [0x33e4] = 0x6d84
        0x000033b4:    6e49        In      LDR      r1,[r1,#0x64]
        0x000033b6:    4308        .C      ORRS     r0,r0,r1
        0x000033b8:    490a        .I      LDR      r1,[pc,#40] ; [0x33e4] = 0x6d84
        0x000033ba:    6e09        .n      LDR      r1,[r1,#0x60]
        0x000033bc:    6148        Ha      STR      r0,[r1,#0x14]
        0x000033be:    4809        .H      LDR      r0,[pc,#36] ; [0x33e4] = 0x6d84
        0x000033c0:    6ec0        .n      LDR      r0,[r0,#0x6c]
        0x000033c2:    6940        @i      LDR      r0,[r0,#0x14]
        0x000033c4:    4907        .I      LDR      r1,[pc,#28] ; [0x33e4] = 0x6d84
        0x000033c6:    6f09        .o      LDR      r1,[r1,#0x70]
        0x000033c8:    4308        .C      ORRS     r0,r0,r1
        0x000033ca:    4906        .I      LDR      r1,[pc,#24] ; [0x33e4] = 0x6d84
        0x000033cc:    6ec9        .n      LDR      r1,[r1,#0x6c]
        0x000033ce:    6148        Ha      STR      r0,[r1,#0x14]
        0x000033d0:    4804        .H      LDR      r0,[pc,#16] ; [0x33e4] = 0x6d84
        0x000033d2:    6f80        .o      LDR      r0,[r0,#0x78]
        0x000033d4:    6940        @i      LDR      r0,[r0,#0x14]
        0x000033d6:    4903        .I      LDR      r1,[pc,#12] ; [0x33e4] = 0x6d84
        0x000033d8:    6fc9        .o      LDR      r1,[r1,#0x7c]
        0x000033da:    4308        .C      ORRS     r0,r0,r1
        0x000033dc:    4901        .I      LDR      r1,[pc,#4] ; [0x33e4] = 0x6d84
        0x000033de:    6f89        .o      LDR      r1,[r1,#0x78]
        0x000033e0:    6148        Ha      STR      r0,[r1,#0x14]
        0x000033e2:    bd10        ..      POP      {r4,pc}
    $d
        0x000033e4:    00006d84    .m..    DCD    28036
        0x000033e8:    50004180    .A.P    DCD    1342194048
    $t
    i.Init_LCD
    Init_LCD
        0x000033ec:    b500        ..      PUSH     {lr}
        0x000033ee:    20ae        .       MOVS     r0,#0xae
        0x000033f0:    f002fb0c    ....    BL       oledWriteCommand ; 0x5a0c
        0x000033f4:    2020                MOVS     r0,#0x20
        0x000033f6:    f002fb09    ....    BL       oledWriteCommand ; 0x5a0c
        0x000033fa:    2010        .       MOVS     r0,#0x10
        0x000033fc:    f002fb06    ....    BL       oledWriteCommand ; 0x5a0c
        0x00003400:    20b0        .       MOVS     r0,#0xb0
        0x00003402:    f002fb03    ....    BL       oledWriteCommand ; 0x5a0c
        0x00003406:    20c8        .       MOVS     r0,#0xc8
        0x00003408:    f002fb00    ....    BL       oledWriteCommand ; 0x5a0c
        0x0000340c:    2000        .       MOVS     r0,#0
        0x0000340e:    f002fafd    ....    BL       oledWriteCommand ; 0x5a0c
        0x00003412:    2010        .       MOVS     r0,#0x10
        0x00003414:    f002fafa    ....    BL       oledWriteCommand ; 0x5a0c
        0x00003418:    2040        @       MOVS     r0,#0x40
        0x0000341a:    f002faf7    ....    BL       oledWriteCommand ; 0x5a0c
        0x0000341e:    2081        .       MOVS     r0,#0x81
        0x00003420:    f002faf4    ....    BL       oledWriteCommand ; 0x5a0c
        0x00003424:    207f        .       MOVS     r0,#0x7f
        0x00003426:    f002faf1    ....    BL       oledWriteCommand ; 0x5a0c
        0x0000342a:    20a1        .       MOVS     r0,#0xa1
        0x0000342c:    f002faee    ....    BL       oledWriteCommand ; 0x5a0c
        0x00003430:    20a6        .       MOVS     r0,#0xa6
        0x00003432:    f002faeb    ....    BL       oledWriteCommand ; 0x5a0c
        0x00003436:    20a8        .       MOVS     r0,#0xa8
        0x00003438:    f002fae8    ....    BL       oledWriteCommand ; 0x5a0c
        0x0000343c:    203f        ?       MOVS     r0,#0x3f
        0x0000343e:    f002fae5    ....    BL       oledWriteCommand ; 0x5a0c
        0x00003442:    20a4        .       MOVS     r0,#0xa4
        0x00003444:    f002fae2    ....    BL       oledWriteCommand ; 0x5a0c
        0x00003448:    20d3        .       MOVS     r0,#0xd3
        0x0000344a:    f002fadf    ....    BL       oledWriteCommand ; 0x5a0c
        0x0000344e:    2000        .       MOVS     r0,#0
        0x00003450:    f002fadc    ....    BL       oledWriteCommand ; 0x5a0c
        0x00003454:    20d5        .       MOVS     r0,#0xd5
        0x00003456:    f002fad9    ....    BL       oledWriteCommand ; 0x5a0c
        0x0000345a:    20f0        .       MOVS     r0,#0xf0
        0x0000345c:    f002fad6    ....    BL       oledWriteCommand ; 0x5a0c
        0x00003460:    20d9        .       MOVS     r0,#0xd9
        0x00003462:    f002fad3    ....    BL       oledWriteCommand ; 0x5a0c
        0x00003466:    2022        "       MOVS     r0,#0x22
        0x00003468:    f002fad0    ....    BL       oledWriteCommand ; 0x5a0c
        0x0000346c:    20da        .       MOVS     r0,#0xda
        0x0000346e:    f002facd    ....    BL       oledWriteCommand ; 0x5a0c
        0x00003472:    2012        .       MOVS     r0,#0x12
        0x00003474:    f002faca    ....    BL       oledWriteCommand ; 0x5a0c
        0x00003478:    20db        .       MOVS     r0,#0xdb
        0x0000347a:    f002fac7    ....    BL       oledWriteCommand ; 0x5a0c
        0x0000347e:    2020                MOVS     r0,#0x20
        0x00003480:    f002fac4    ....    BL       oledWriteCommand ; 0x5a0c
        0x00003484:    208d        .       MOVS     r0,#0x8d
        0x00003486:    f002fac1    ....    BL       oledWriteCommand ; 0x5a0c
        0x0000348a:    2014        .       MOVS     r0,#0x14
        0x0000348c:    f002fabe    ....    BL       oledWriteCommand ; 0x5a0c
        0x00003490:    20af        .       MOVS     r0,#0xaf
        0x00003492:    f002fabb    ....    BL       oledWriteCommand ; 0x5a0c
        0x00003496:    bd00        ..      POP      {pc}
    i.Init_MPU6050
    Init_MPU6050
        0x00003498:    b510        ..      PUSH     {r4,lr}
        0x0000349a:    2300        .#      MOVS     r3,#0
        0x0000349c:    22d0        ."      MOVS     r2,#0xd0
        0x0000349e:    4619        .F      MOV      r1,r3
        0x000034a0:    480b        .H      LDR      r0,[pc,#44] ; [0x34d0] = 0x40020000
        0x000034a2:    f7fffe7d    ..}.    BL       I2C_SetSlaveAddr ; 0x31a0
        0x000034a6:    2101        .!      MOVS     r1,#1
        0x000034a8:    206b        k       MOVS     r0,#0x6b
        0x000034aa:    f000f853    ..S.    BL       MPU6050_I2C_SingleWrite ; 0x3554
        0x000034ae:    2101        .!      MOVS     r1,#1
        0x000034b0:    2019        .       MOVS     r0,#0x19
        0x000034b2:    f000f84f    ..O.    BL       MPU6050_I2C_SingleWrite ; 0x3554
        0x000034b6:    2101        .!      MOVS     r1,#1
        0x000034b8:    201a        .       MOVS     r0,#0x1a
        0x000034ba:    f000f84b    ..K.    BL       MPU6050_I2C_SingleWrite ; 0x3554
        0x000034be:    2118        .!      MOVS     r1,#0x18
        0x000034c0:    201b        .       MOVS     r0,#0x1b
        0x000034c2:    f000f847    ..G.    BL       MPU6050_I2C_SingleWrite ; 0x3554
        0x000034c6:    2100        .!      MOVS     r1,#0
        0x000034c8:    201c        .       MOVS     r0,#0x1c
        0x000034ca:    f000f843    ..C.    BL       MPU6050_I2C_SingleWrite ; 0x3554
        0x000034ce:    bd10        ..      POP      {r4,pc}
    $d
        0x000034d0:    40020000    ...@    DCD    1073872896
    $t
    i.MPU6050_I2C_SingleRead
    MPU6050_I2C_SingleRead
        0x000034d4:    b510        ..      PUSH     {r4,lr}
        0x000034d6:    4601        .F      MOV      r1,r0
        0x000034d8:    4a14        .J      LDR      r2,[pc,#80] ; [0x352c] = 0x2ce9
        0x000034da:    4b15        .K      LDR      r3,[pc,#84] ; [0x3530] = 0x20000080
        0x000034dc:    601a        .`      STR      r2,[r3,#0]
        0x000034de:    2200        ."      MOVS     r2,#0
        0x000034e0:    4b14        .K      LDR      r3,[pc,#80] ; [0x3534] = 0x2000007e
        0x000034e2:    701a        .p      STRB     r2,[r3,#0]
        0x000034e4:    4b14        .K      LDR      r3,[pc,#80] ; [0x3538] = 0x2000007f
        0x000034e6:    701a        .p      STRB     r2,[r3,#0]
        0x000034e8:    4b14        .K      LDR      r3,[pc,#80] ; [0x353c] = 0x2000007a
        0x000034ea:    801a        ..      STRH     r2,[r3,#0]
        0x000034ec:    4b14        .K      LDR      r3,[pc,#80] ; [0x3540] = 0x2000007c
        0x000034ee:    801a        ..      STRH     r2,[r3,#0]
        0x000034f0:    22d0        ."      MOVS     r2,#0xd0
        0x000034f2:    4b14        .K      LDR      r3,[pc,#80] ; [0x3544] = 0x20000074
        0x000034f4:    701a        .p      STRB     r2,[r3,#0]
        0x000034f6:    4a14        .J      LDR      r2,[pc,#80] ; [0x3548] = 0x20000075
        0x000034f8:    7011        .p      STRB     r1,[r2,#0]
        0x000034fa:    4a14        .J      LDR      r2,[pc,#80] ; [0x354c] = 0x40020000
        0x000034fc:    6812        .h      LDR      r2,[r2,#0]
        0x000034fe:    233c        <#      MOVS     r3,#0x3c
        0x00003500:    439a        .C      BICS     r2,r2,r3
        0x00003502:    3220         2      ADDS     r2,r2,#0x20
        0x00003504:    4b11        .K      LDR      r3,[pc,#68] ; [0x354c] = 0x40020000
        0x00003506:    601a        .`      STR      r2,[r3,#0]
        0x00003508:    e007        ..      B        0x351a ; MPU6050_I2C_SingleRead + 70
        0x0000350a:    4b0d        .K      LDR      r3,[pc,#52] ; [0x3540] = 0x2000007c
        0x0000350c:    881a        ..      LDRH     r2,[r3,#0]
        0x0000350e:    1c53        S.      ADDS     r3,r2,#1
        0x00003510:    4c0b        .L      LDR      r4,[pc,#44] ; [0x3540] = 0x2000007c
        0x00003512:    8023        #.      STRH     r3,[r4,#0]
        0x00003514:    2aff        .*      CMP      r2,#0xff
        0x00003516:    dd00        ..      BLE      0x351a ; MPU6050_I2C_SingleRead + 70
        0x00003518:    e003        ..      B        0x3522 ; MPU6050_I2C_SingleRead + 78
        0x0000351a:    4a07        .J      LDR      r2,[pc,#28] ; [0x3538] = 0x2000007f
        0x0000351c:    7812        .x      LDRB     r2,[r2,#0]
        0x0000351e:    2a00        .*      CMP      r2,#0
        0x00003520:    d0f3        ..      BEQ      0x350a ; MPU6050_I2C_SingleRead + 54
        0x00003522:    bf00        ..      NOP      
        0x00003524:    4a0a        .J      LDR      r2,[pc,#40] ; [0x3550] = 0x20000078
        0x00003526:    7810        .x      LDRB     r0,[r2,#0]
        0x00003528:    bd10        ..      POP      {r4,pc}
    $d
        0x0000352a:    0000        ..      DCW    0
        0x0000352c:    00002ce9    .,..    DCD    11497
        0x00003530:    20000080    ...     DCD    536871040
        0x00003534:    2000007e    ~..     DCD    536871038
        0x00003538:    2000007f    ...     DCD    536871039
        0x0000353c:    2000007a    z..     DCD    536871034
        0x00003540:    2000007c    |..     DCD    536871036
        0x00003544:    20000074    t..     DCD    536871028
        0x00003548:    20000075    u..     DCD    536871029
        0x0000354c:    40020000    ...@    DCD    1073872896
        0x00003550:    20000078    x..     DCD    536871032
    $t
    i.MPU6050_I2C_SingleWrite
    MPU6050_I2C_SingleWrite
        0x00003554:    b510        ..      PUSH     {r4,lr}
        0x00003556:    22d0        ."      MOVS     r2,#0xd0
        0x00003558:    4b13        .K      LDR      r3,[pc,#76] ; [0x35a8] = 0x20000074
        0x0000355a:    701a        .p      STRB     r2,[r3,#0]
        0x0000355c:    4a13        .J      LDR      r2,[pc,#76] ; [0x35ac] = 0x20000075
        0x0000355e:    7010        .p      STRB     r0,[r2,#0]
        0x00003560:    7051        Qp      STRB     r1,[r2,#1]
        0x00003562:    2200        ."      MOVS     r2,#0
        0x00003564:    4b12        .K      LDR      r3,[pc,#72] ; [0x35b0] = 0x2000007e
        0x00003566:    701a        .p      STRB     r2,[r3,#0]
        0x00003568:    4b12        .K      LDR      r3,[pc,#72] ; [0x35b4] = 0x2000007f
        0x0000356a:    701a        .p      STRB     r2,[r3,#0]
        0x0000356c:    4b12        .K      LDR      r3,[pc,#72] ; [0x35b8] = 0x2000007a
        0x0000356e:    801a        ..      STRH     r2,[r3,#0]
        0x00003570:    4b12        .K      LDR      r3,[pc,#72] ; [0x35bc] = 0x2000007c
        0x00003572:    801a        ..      STRH     r2,[r3,#0]
        0x00003574:    4a12        .J      LDR      r2,[pc,#72] ; [0x35c0] = 0x2f99
        0x00003576:    4b13        .K      LDR      r3,[pc,#76] ; [0x35c4] = 0x20000080
        0x00003578:    601a        .`      STR      r2,[r3,#0]
        0x0000357a:    4a13        .J      LDR      r2,[pc,#76] ; [0x35c8] = 0x40020000
        0x0000357c:    6812        .h      LDR      r2,[r2,#0]
        0x0000357e:    233c        <#      MOVS     r3,#0x3c
        0x00003580:    439a        .C      BICS     r2,r2,r3
        0x00003582:    3220         2      ADDS     r2,r2,#0x20
        0x00003584:    4b10        .K      LDR      r3,[pc,#64] ; [0x35c8] = 0x40020000
        0x00003586:    601a        .`      STR      r2,[r3,#0]
        0x00003588:    e007        ..      B        0x359a ; MPU6050_I2C_SingleWrite + 70
        0x0000358a:    4b0c        .K      LDR      r3,[pc,#48] ; [0x35bc] = 0x2000007c
        0x0000358c:    881a        ..      LDRH     r2,[r3,#0]
        0x0000358e:    1c53        S.      ADDS     r3,r2,#1
        0x00003590:    4c0a        .L      LDR      r4,[pc,#40] ; [0x35bc] = 0x2000007c
        0x00003592:    8023        #.      STRH     r3,[r4,#0]
        0x00003594:    2aff        .*      CMP      r2,#0xff
        0x00003596:    dd00        ..      BLE      0x359a ; MPU6050_I2C_SingleWrite + 70
        0x00003598:    e003        ..      B        0x35a2 ; MPU6050_I2C_SingleWrite + 78
        0x0000359a:    4a06        .J      LDR      r2,[pc,#24] ; [0x35b4] = 0x2000007f
        0x0000359c:    7812        .x      LDRB     r2,[r2,#0]
        0x0000359e:    2a00        .*      CMP      r2,#0
        0x000035a0:    d0f3        ..      BEQ      0x358a ; MPU6050_I2C_SingleWrite + 54
        0x000035a2:    bf00        ..      NOP      
        0x000035a4:    bd10        ..      POP      {r4,pc}
    $d
        0x000035a6:    0000        ..      DCW    0
        0x000035a8:    20000074    t..     DCD    536871028
        0x000035ac:    20000075    u..     DCD    536871029
        0x000035b0:    2000007e    ~..     DCD    536871038
        0x000035b4:    2000007f    ...     DCD    536871039
        0x000035b8:    2000007a    z..     DCD    536871034
        0x000035bc:    2000007c    |..     DCD    536871036
        0x000035c0:    00002f99    ./..    DCD    12185
        0x000035c4:    20000080    ...     DCD    536871040
        0x000035c8:    40020000    ...@    DCD    1073872896
    $t
    i.MultiwiiAccFilter
    MultiwiiAccFilter
        0x000035cc:    b5f0        ..      PUSH     {r4-r7,lr}
        0x000035ce:    460c        .F      MOV      r4,r1
        0x000035d0:    4e31        1N      LDR      r6,[pc,#196] ; [0x3698] = 0x200006f0
        0x000035d2:    4d32        2M      LDR      r5,[pc,#200] ; [0x369c] = 0x20000d04
        0x000035d4:    b085        ..      SUB      sp,sp,#0x14
        0x000035d6:    2100        .!      MOVS     r1,#0
        0x000035d8:    008a        ..      LSLS     r2,r1,#2
        0x000035da:    58b3        .X      LDR      r3,[r6,r2]
        0x000035dc:    111f        ..      ASRS     r7,r3,#4
        0x000035de:    1bdb        ..      SUBS     r3,r3,r7
        0x000035e0:    004f        O.      LSLS     r7,r1,#1
        0x000035e2:    50b3        .P      STR      r3,[r6,r2]
        0x000035e4:    5fc7        ._      LDRSH    r7,[r0,r7]
        0x000035e6:    1c49        I.      ADDS     r1,r1,#1
        0x000035e8:    19db        ..      ADDS     r3,r3,r7
        0x000035ea:    50b3        .P      STR      r3,[r6,r2]
        0x000035ec:    111b        ..      ASRS     r3,r3,#4
        0x000035ee:    b2c9        ..      UXTB     r1,r1
        0x000035f0:    50ab        .P      STR      r3,[r5,r2]
        0x000035f2:    2903        .)      CMP      r1,#3
        0x000035f4:    d3f0        ..      BCC      0x35d8 ; MultiwiiAccFilter + 12
        0x000035f6:    4929        )I      LDR      r1,[pc,#164] ; [0x369c] = 0x20000d04
        0x000035f8:    4668        hF      MOV      r0,sp
        0x000035fa:    f7fff993    ....    BL       FilterCalibrateACC ; 0x2924
        0x000035fe:    9902        ..      LDR      r1,[sp,#8]
        0x00003600:    4608        .F      MOV      r0,r1
        0x00003602:    f003fac7    ....    BL       __aeabi_fmul ; 0x6b94
        0x00003606:    9901        ..      LDR      r1,[sp,#4]
        0x00003608:    9003        ..      STR      r0,[sp,#0xc]
        0x0000360a:    4608        .F      MOV      r0,r1
        0x0000360c:    f003fac2    ....    BL       __aeabi_fmul ; 0x6b94
        0x00003610:    9900        ..      LDR      r1,[sp,#0]
        0x00003612:    4606        .F      MOV      r6,r0
        0x00003614:    4608        .F      MOV      r0,r1
        0x00003616:    f003fabd    ....    BL       __aeabi_fmul ; 0x6b94
        0x0000361a:    4631        1F      MOV      r1,r6
        0x0000361c:    f003fa4a    ..J.    BL       __aeabi_fadd ; 0x6ab4
        0x00003620:    9903        ..      LDR      r1,[sp,#0xc]
        0x00003622:    f003fa47    ..G.    BL       __aeabi_fadd ; 0x6ab4
        0x00003626:    4606        .F      MOV      r6,r0
        0x00003628:    481d        .H      LDR      r0,[pc,#116] ; [0x36a0] = 0xc0c7ae13
        0x0000362a:    491e        .I      LDR      r1,[pc,#120] ; [0x36a4] = 0x71eb84
        0x0000362c:    1830        0.      ADDS     r0,r6,r0
        0x0000362e:    4288        .B      CMP      r0,r1
        0x00003630:    d207        ..      BCS      0x3642 ; MultiwiiAccFilter + 118
        0x00003632:    8828        (.      LDRH     r0,[r5,#0]
        0x00003634:    8020         .      STRH     r0,[r4,#0]
        0x00003636:    88a8        ..      LDRH     r0,[r5,#4]
        0x00003638:    8060        `.      STRH     r0,[r4,#2]
        0x0000363a:    8928        (.      LDRH     r0,[r5,#8]
        0x0000363c:    80a0        ..      STRH     r0,[r4,#4]
        0x0000363e:    b005        ..      ADD      sp,sp,#0x14
        0x00003640:    bdf0        ..      POP      {r4-r7,pc}
        0x00003642:    207f        .       MOVS     r0,#0x7f
        0x00003644:    05c0        ..      LSLS     r0,r0,#23
        0x00003646:    9903        ..      LDR      r1,[sp,#0xc]
        0x00003648:    f003fb34    ..4.    BL       __aeabi_fsub ; 0x6cb4
        0x0000364c:    4607        .F      MOV      r7,r0
        0x0000364e:    4630        0F      MOV      r0,r6
        0x00003650:    9903        ..      LDR      r1,[sp,#0xc]
        0x00003652:    f003fb2f    ../.    BL       __aeabi_fsub ; 0x6cb4
        0x00003656:    4601        .F      MOV      r1,r0
        0x00003658:    4638        8F      MOV      r0,r7
        0x0000365a:    f7fdfe01    ....    BL       __aeabi_fdiv ; 0x1260
        0x0000365e:    f7fdfdd5    ....    BL       __aeabi_f2d ; 0x120c
        0x00003662:    f003f95b    ..[.    BL       sqrt ; 0x691c
        0x00003666:    f7fdf831    ..1.    BL       __aeabi_d2f ; 0x6cc
        0x0000366a:    4606        .F      MOV      r6,r0
        0x0000366c:    6828        (h      LDR      r0,[r5,#0]
        0x0000366e:    f7fdff09    ....    BL       __aeabi_i2f ; 0x1484
        0x00003672:    4631        1F      MOV      r1,r6
        0x00003674:    f003fa8e    ....    BL       __aeabi_fmul ; 0x6b94
        0x00003678:    f7fdfea2    ....    BL       __aeabi_f2iz ; 0x13c0
        0x0000367c:    8020         .      STRH     r0,[r4,#0]
        0x0000367e:    6868        hh      LDR      r0,[r5,#4]
        0x00003680:    f7fdff00    ....    BL       __aeabi_i2f ; 0x1484
        0x00003684:    4631        1F      MOV      r1,r6
        0x00003686:    f003fa85    ....    BL       __aeabi_fmul ; 0x6b94
        0x0000368a:    f7fdfe99    ....    BL       __aeabi_f2iz ; 0x13c0
        0x0000368e:    8060        `.      STRH     r0,[r4,#2]
        0x00003690:    8928        (.      LDRH     r0,[r5,#8]
        0x00003692:    80a0        ..      STRH     r0,[r4,#4]
        0x00003694:    b005        ..      ADD      sp,sp,#0x14
        0x00003696:    bdf0        ..      POP      {r4-r7,pc}
    $d
        0x00003698:    200006f0    ...     DCD    536872688
        0x0000369c:    20000d04    ...     DCD    536874244
        0x000036a0:    c0c7ae13    ....    DCD    3234311699
        0x000036a4:    0071eb84    ..q.    DCD    7465860
    $t
    i.NVIC_EnableIRQ
    NVIC_EnableIRQ
        0x000036a8:    06c2        ..      LSLS     r2,r0,#27
        0x000036aa:    0ed2        ..      LSRS     r2,r2,#27
        0x000036ac:    2101        .!      MOVS     r1,#1
        0x000036ae:    4091        .@      LSLS     r1,r1,r2
        0x000036b0:    4a01        .J      LDR      r2,[pc,#4] ; [0x36b8] = 0xe000e100
        0x000036b2:    6011        .`      STR      r1,[r2,#0]
        0x000036b4:    4770        pG      BX       lr
    $d
        0x000036b6:    0000        ..      DCW    0
        0x000036b8:    e000e100    ....    DCD    3758153984
    $t
    i.NVIC_SetPriority
    NVIC_SetPriority
        0x000036bc:    b510        ..      PUSH     {r4,lr}
        0x000036be:    2800        .(      CMP      r0,#0
        0x000036c0:    da19        ..      BGE      0x36f6 ; NVIC_SetPriority + 58
        0x000036c2:    4a1a        .J      LDR      r2,[pc,#104] ; [0x372c] = 0xe000ed1c
        0x000036c4:    0703        ..      LSLS     r3,r0,#28
        0x000036c6:    0f1b        ..      LSRS     r3,r3,#28
        0x000036c8:    3b08        .;      SUBS     r3,r3,#8
        0x000036ca:    089b        ..      LSRS     r3,r3,#2
        0x000036cc:    009b        ..      LSLS     r3,r3,#2
        0x000036ce:    58d2        .X      LDR      r2,[r2,r3]
        0x000036d0:    0783        ..      LSLS     r3,r0,#30
        0x000036d2:    0edc        ..      LSRS     r4,r3,#27
        0x000036d4:    23ff        .#      MOVS     r3,#0xff
        0x000036d6:    40a3        .@      LSLS     r3,r3,r4
        0x000036d8:    439a        .C      BICS     r2,r2,r3
        0x000036da:    078b        ..      LSLS     r3,r1,#30
        0x000036dc:    0e1b        ..      LSRS     r3,r3,#24
        0x000036de:    0784        ..      LSLS     r4,r0,#30
        0x000036e0:    0ee4        ..      LSRS     r4,r4,#27
        0x000036e2:    40a3        .@      LSLS     r3,r3,r4
        0x000036e4:    431a        .C      ORRS     r2,r2,r3
        0x000036e6:    4b11        .K      LDR      r3,[pc,#68] ; [0x372c] = 0xe000ed1c
        0x000036e8:    0704        ..      LSLS     r4,r0,#28
        0x000036ea:    0f24        $.      LSRS     r4,r4,#28
        0x000036ec:    3c08        .<      SUBS     r4,r4,#8
        0x000036ee:    08a4        ..      LSRS     r4,r4,#2
        0x000036f0:    00a4        ..      LSLS     r4,r4,#2
        0x000036f2:    511a        .Q      STR      r2,[r3,r4]
        0x000036f4:    e018        ..      B        0x3728 ; NVIC_SetPriority + 108
        0x000036f6:    4a0e        .J      LDR      r2,[pc,#56] ; [0x3730] = 0xe000e100
        0x000036f8:    2303        .#      MOVS     r3,#3
        0x000036fa:    021b        ..      LSLS     r3,r3,#8
        0x000036fc:    18d2        ..      ADDS     r2,r2,r3
        0x000036fe:    0883        ..      LSRS     r3,r0,#2
        0x00003700:    009b        ..      LSLS     r3,r3,#2
        0x00003702:    58d2        .X      LDR      r2,[r2,r3]
        0x00003704:    0783        ..      LSLS     r3,r0,#30
        0x00003706:    0edc        ..      LSRS     r4,r3,#27
        0x00003708:    23ff        .#      MOVS     r3,#0xff
        0x0000370a:    40a3        .@      LSLS     r3,r3,r4
        0x0000370c:    439a        .C      BICS     r2,r2,r3
        0x0000370e:    078b        ..      LSLS     r3,r1,#30
        0x00003710:    0e1b        ..      LSRS     r3,r3,#24
        0x00003712:    0784        ..      LSLS     r4,r0,#30
        0x00003714:    0ee4        ..      LSRS     r4,r4,#27
        0x00003716:    40a3        .@      LSLS     r3,r3,r4
        0x00003718:    431a        .C      ORRS     r2,r2,r3
        0x0000371a:    4b05        .K      LDR      r3,[pc,#20] ; [0x3730] = 0xe000e100
        0x0000371c:    2403        .$      MOVS     r4,#3
        0x0000371e:    0224        $.      LSLS     r4,r4,#8
        0x00003720:    191b        ..      ADDS     r3,r3,r4
        0x00003722:    0884        ..      LSRS     r4,r0,#2
        0x00003724:    00a4        ..      LSLS     r4,r4,#2
        0x00003726:    511a        .Q      STR      r2,[r3,r4]
        0x00003728:    bd10        ..      POP      {r4,pc}
    $d
        0x0000372a:    0000        ..      DCW    0
        0x0000372c:    e000ed1c    ....    DCD    3758157084
        0x00003730:    e000e100    ....    DCD    3758153984
    $t
    i.NVIC_SetPriority
    NVIC_SetPriority
        0x00003734:    b510        ..      PUSH     {r4,lr}
        0x00003736:    2800        .(      CMP      r0,#0
        0x00003738:    da19        ..      BGE      0x376e ; NVIC_SetPriority + 58
        0x0000373a:    4a1a        .J      LDR      r2,[pc,#104] ; [0x37a4] = 0xe000ed1c
        0x0000373c:    0703        ..      LSLS     r3,r0,#28
        0x0000373e:    0f1b        ..      LSRS     r3,r3,#28
        0x00003740:    3b08        .;      SUBS     r3,r3,#8
        0x00003742:    089b        ..      LSRS     r3,r3,#2
        0x00003744:    009b        ..      LSLS     r3,r3,#2
        0x00003746:    58d2        .X      LDR      r2,[r2,r3]
        0x00003748:    0783        ..      LSLS     r3,r0,#30
        0x0000374a:    0edc        ..      LSRS     r4,r3,#27
        0x0000374c:    23ff        .#      MOVS     r3,#0xff
        0x0000374e:    40a3        .@      LSLS     r3,r3,r4
        0x00003750:    439a        .C      BICS     r2,r2,r3
        0x00003752:    078b        ..      LSLS     r3,r1,#30
        0x00003754:    0e1b        ..      LSRS     r3,r3,#24
        0x00003756:    0784        ..      LSLS     r4,r0,#30
        0x00003758:    0ee4        ..      LSRS     r4,r4,#27
        0x0000375a:    40a3        .@      LSLS     r3,r3,r4
        0x0000375c:    431a        .C      ORRS     r2,r2,r3
        0x0000375e:    4b11        .K      LDR      r3,[pc,#68] ; [0x37a4] = 0xe000ed1c
        0x00003760:    0704        ..      LSLS     r4,r0,#28
        0x00003762:    0f24        $.      LSRS     r4,r4,#28
        0x00003764:    3c08        .<      SUBS     r4,r4,#8
        0x00003766:    08a4        ..      LSRS     r4,r4,#2
        0x00003768:    00a4        ..      LSLS     r4,r4,#2
        0x0000376a:    511a        .Q      STR      r2,[r3,r4]
        0x0000376c:    e018        ..      B        0x37a0 ; NVIC_SetPriority + 108
        0x0000376e:    4a0e        .J      LDR      r2,[pc,#56] ; [0x37a8] = 0xe000e100
        0x00003770:    2303        .#      MOVS     r3,#3
        0x00003772:    021b        ..      LSLS     r3,r3,#8
        0x00003774:    18d2        ..      ADDS     r2,r2,r3
        0x00003776:    0883        ..      LSRS     r3,r0,#2
        0x00003778:    009b        ..      LSLS     r3,r3,#2
        0x0000377a:    58d2        .X      LDR      r2,[r2,r3]
        0x0000377c:    0783        ..      LSLS     r3,r0,#30
        0x0000377e:    0edc        ..      LSRS     r4,r3,#27
        0x00003780:    23ff        .#      MOVS     r3,#0xff
        0x00003782:    40a3        .@      LSLS     r3,r3,r4
        0x00003784:    439a        .C      BICS     r2,r2,r3
        0x00003786:    078b        ..      LSLS     r3,r1,#30
        0x00003788:    0e1b        ..      LSRS     r3,r3,#24
        0x0000378a:    0784        ..      LSLS     r4,r0,#30
        0x0000378c:    0ee4        ..      LSRS     r4,r4,#27
        0x0000378e:    40a3        .@      LSLS     r3,r3,r4
        0x00003790:    431a        .C      ORRS     r2,r2,r3
        0x00003792:    4b05        .K      LDR      r3,[pc,#20] ; [0x37a8] = 0xe000e100
        0x00003794:    2403        .$      MOVS     r4,#3
        0x00003796:    0224        $.      LSLS     r4,r4,#8
        0x00003798:    191b        ..      ADDS     r3,r3,r4
        0x0000379a:    0884        ..      LSRS     r4,r0,#2
        0x0000379c:    00a4        ..      LSLS     r4,r4,#2
        0x0000379e:    511a        .Q      STR      r2,[r3,r4]
        0x000037a0:    bd10        ..      POP      {r4,pc}
    $d
        0x000037a2:    0000        ..      DCW    0
        0x000037a4:    e000ed1c    ....    DCD    3758157084
        0x000037a8:    e000e100    ....    DCD    3758153984
    $t
    i.OLED_SingleWrite
    OLED_SingleWrite
        0x000037ac:    b510        ..      PUSH     {r4,lr}
        0x000037ae:    227a        z"      MOVS     r2,#0x7a
        0x000037b0:    4b13        .K      LDR      r3,[pc,#76] ; [0x3800] = 0x20000074
        0x000037b2:    701a        .p      STRB     r2,[r3,#0]
        0x000037b4:    4a13        .J      LDR      r2,[pc,#76] ; [0x3804] = 0x20000075
        0x000037b6:    7010        .p      STRB     r0,[r2,#0]
        0x000037b8:    7051        Qp      STRB     r1,[r2,#1]
        0x000037ba:    2200        ."      MOVS     r2,#0
        0x000037bc:    4b12        .K      LDR      r3,[pc,#72] ; [0x3808] = 0x2000007e
        0x000037be:    701a        .p      STRB     r2,[r3,#0]
        0x000037c0:    4b12        .K      LDR      r3,[pc,#72] ; [0x380c] = 0x2000007f
        0x000037c2:    701a        .p      STRB     r2,[r3,#0]
        0x000037c4:    4b12        .K      LDR      r3,[pc,#72] ; [0x3810] = 0x2000007a
        0x000037c6:    801a        ..      STRH     r2,[r3,#0]
        0x000037c8:    4b12        .K      LDR      r3,[pc,#72] ; [0x3814] = 0x2000007c
        0x000037ca:    801a        ..      STRH     r2,[r3,#0]
        0x000037cc:    4a12        .J      LDR      r2,[pc,#72] ; [0x3818] = 0x2f99
        0x000037ce:    4b13        .K      LDR      r3,[pc,#76] ; [0x381c] = 0x20000080
        0x000037d0:    601a        .`      STR      r2,[r3,#0]
        0x000037d2:    4a13        .J      LDR      r2,[pc,#76] ; [0x3820] = 0x40020000
        0x000037d4:    6812        .h      LDR      r2,[r2,#0]
        0x000037d6:    233c        <#      MOVS     r3,#0x3c
        0x000037d8:    439a        .C      BICS     r2,r2,r3
        0x000037da:    3220         2      ADDS     r2,r2,#0x20
        0x000037dc:    4b10        .K      LDR      r3,[pc,#64] ; [0x3820] = 0x40020000
        0x000037de:    601a        .`      STR      r2,[r3,#0]
        0x000037e0:    e007        ..      B        0x37f2 ; OLED_SingleWrite + 70
        0x000037e2:    4b0c        .K      LDR      r3,[pc,#48] ; [0x3814] = 0x2000007c
        0x000037e4:    881a        ..      LDRH     r2,[r3,#0]
        0x000037e6:    1c53        S.      ADDS     r3,r2,#1
        0x000037e8:    4c0a        .L      LDR      r4,[pc,#40] ; [0x3814] = 0x2000007c
        0x000037ea:    8023        #.      STRH     r3,[r4,#0]
        0x000037ec:    2aff        .*      CMP      r2,#0xff
        0x000037ee:    dd00        ..      BLE      0x37f2 ; OLED_SingleWrite + 70
        0x000037f0:    e003        ..      B        0x37fa ; OLED_SingleWrite + 78
        0x000037f2:    4a06        .J      LDR      r2,[pc,#24] ; [0x380c] = 0x2000007f
        0x000037f4:    7812        .x      LDRB     r2,[r2,#0]
        0x000037f6:    2a00        .*      CMP      r2,#0
        0x000037f8:    d0f3        ..      BEQ      0x37e2 ; OLED_SingleWrite + 54
        0x000037fa:    bf00        ..      NOP      
        0x000037fc:    bd10        ..      POP      {r4,pc}
    $d
        0x000037fe:    0000        ..      DCW    0
        0x00003800:    20000074    t..     DCD    536871028
        0x00003804:    20000075    u..     DCD    536871029
        0x00003808:    2000007e    ~..     DCD    536871038
        0x0000380c:    2000007f    ...     DCD    536871039
        0x00003810:    2000007a    z..     DCD    536871034
        0x00003814:    2000007c    |..     DCD    536871036
        0x00003818:    00002f99    ./..    DCD    12185
        0x0000381c:    20000080    ...     DCD    536871040
        0x00003820:    40020000    ...@    DCD    1073872896
    $t
    i.RawSmoothInput
    RawSmoothInput
        0x00003824:    b5f3        ..      PUSH     {r0,r1,r4-r7,lr}
        0x00003826:    2500        .%      MOVS     r5,#0
        0x00003828:    4a17        .J      LDR      r2,[pc,#92] ; [0x3888] = 0x200006bd
        0x0000382a:    b081        ..      SUB      sp,sp,#4
        0x0000382c:    4629        )F      MOV      r1,r5
        0x0000382e:    2800        .(      CMP      r0,#0
        0x00003830:    d906        ..      BLS      0x3840 ; RawSmoothInput + 28
        0x00003832:    5c53        S\      LDRB     r3,[r2,r1]
        0x00003834:    1c49        I.      ADDS     r1,r1,#1
        0x00003836:    195b        [.      ADDS     r3,r3,r5
        0x00003838:    b2c9        ..      UXTB     r1,r1
        0x0000383a:    b2dd        ..      UXTB     r5,r3
        0x0000383c:    4281        .B      CMP      r1,r0
        0x0000383e:    d3f8        ..      BCC      0x3832 ; RawSmoothInput + 14
        0x00003840:    5c16        .\      LDRB     r6,[r2,r0]
        0x00003842:    4912        .I      LDR      r1,[pc,#72] ; [0x388c] = 0x20000874
        0x00003844:    2211        ."      MOVS     r2,#0x11
        0x00003846:    0152        R.      LSLS     r2,r2,#5
        0x00003848:    1808        ..      ADDS     r0,r1,r0
        0x0000384a:    2400        .$      MOVS     r4,#0
        0x0000384c:    1887        ..      ADDS     r7,r0,r2
        0x0000384e:    2e00        ..      CMP      r6,#0
        0x00003850:    d911        ..      BLS      0x3876 ; RawSmoothInput + 82
        0x00003852:    9802        ..      LDR      r0,[sp,#8]
        0x00003854:    0061        a.      LSLS     r1,r4,#1
        0x00003856:    5e40        @^      LDRSH    r0,[r0,r1]
        0x00003858:    f7fdfe14    ....    BL       __aeabi_i2f ; 0x1484
        0x0000385c:    192a        *.      ADDS     r2,r5,r4
        0x0000385e:    212c        ,!      MOVS     r1,#0x2c
        0x00003860:    434a        JC      MULS     r2,r1,r2
        0x00003862:    490a        .I      LDR      r1,[pc,#40] ; [0x388c] = 0x20000874
        0x00003864:    1c64        d.      ADDS     r4,r4,#1
        0x00003866:    1851        Q.      ADDS     r1,r2,r1
        0x00003868:    7a3a        :z      LDRB     r2,[r7,#8]
        0x0000386a:    b2e4        ..      UXTB     r4,r4
        0x0000386c:    0092        ..      LSLS     r2,r2,#2
        0x0000386e:    1889        ..      ADDS     r1,r1,r2
        0x00003870:    6448        Hd      STR      r0,[r1,#0x44]
        0x00003872:    42a6        .B      CMP      r6,r4
        0x00003874:    d8ed        ..      BHI      0x3852 ; RawSmoothInput + 46
        0x00003876:    7a38        8z      LDRB     r0,[r7,#8]
        0x00003878:    210b        .!      MOVS     r1,#0xb
        0x0000387a:    1c40        @.      ADDS     r0,r0,#1
        0x0000387c:    b2c0        ..      UXTB     r0,r0
        0x0000387e:    f7fcfe2d    ..-.    BL       __aeabi_uidiv ; 0x4dc
        0x00003882:    7239        9r      STRB     r1,[r7,#8]
        0x00003884:    b003        ..      ADD      sp,sp,#0xc
        0x00003886:    bdf0        ..      POP      {r4-r7,pc}
    $d
        0x00003888:    200006bd    ...     DCD    536872637
        0x0000388c:    20000874    t..     DCD    536873076
    $t
    i.RawSmoothOutput
    RawSmoothOutput
        0x00003890:    b5f3        ..      PUSH     {r0,r1,r4-r7,lr}
        0x00003892:    2600        .&      MOVS     r6,#0
        0x00003894:    4607        .F      MOV      r7,r0
        0x00003896:    491c        .I      LDR      r1,[pc,#112] ; [0x3908] = 0x200006bd
        0x00003898:    b081        ..      SUB      sp,sp,#4
        0x0000389a:    4632        2F      MOV      r2,r6
        0x0000389c:    4630        0F      MOV      r0,r6
        0x0000389e:    2f00        ./      CMP      r7,#0
        0x000038a0:    d906        ..      BLS      0x38b0 ; RawSmoothOutput + 32
        0x000038a2:    5c0b        .\      LDRB     r3,[r1,r0]
        0x000038a4:    1c40        @.      ADDS     r0,r0,#1
        0x000038a6:    199b        ..      ADDS     r3,r3,r6
        0x000038a8:    b2c0        ..      UXTB     r0,r0
        0x000038aa:    b2de        ..      UXTB     r6,r3
        0x000038ac:    42b8        .B      CMP      r0,r7
        0x000038ae:    d3f8        ..      BCC      0x38a2 ; RawSmoothOutput + 18
        0x000038b0:    5dc8        .]      LDRB     r0,[r1,r7]
        0x000038b2:    2500        .%      MOVS     r5,#0
        0x000038b4:    2800        .(      CMP      r0,#0
        0x000038b6:    d925        %.      BLS      0x3904 ; RawSmoothOutput + 116
        0x000038b8:    1970        p.      ADDS     r0,r6,r5
        0x000038ba:    212c        ,!      MOVS     r1,#0x2c
        0x000038bc:    4348        HC      MULS     r0,r1,r0
        0x000038be:    4913        .I      LDR      r1,[pc,#76] ; [0x390c] = 0x20000874
        0x000038c0:    2400        .$      MOVS     r4,#0
        0x000038c2:    1840        @.      ADDS     r0,r0,r1
        0x000038c4:    9000        ..      STR      r0,[sp,#0]
        0x000038c6:    4610        .F      MOV      r0,r2
        0x000038c8:    f7fdfddc    ....    BL       __aeabi_i2f ; 0x1484
        0x000038cc:    9900        ..      LDR      r1,[sp,#0]
        0x000038ce:    00a2        ..      LSLS     r2,r4,#2
        0x000038d0:    1889        ..      ADDS     r1,r1,r2
        0x000038d2:    6c49        Il      LDR      r1,[r1,#0x44]
        0x000038d4:    f003f8ee    ....    BL       __aeabi_fadd ; 0x6ab4
        0x000038d8:    f7fdfd72    ..r.    BL       __aeabi_f2iz ; 0x13c0
        0x000038dc:    1c64        d.      ADDS     r4,r4,#1
        0x000038de:    b2e4        ..      UXTB     r4,r4
        0x000038e0:    4602        .F      MOV      r2,r0
        0x000038e2:    2c0b        .,      CMP      r4,#0xb
        0x000038e4:    d3ef        ..      BCC      0x38c6 ; RawSmoothOutput + 54
        0x000038e6:    210b        .!      MOVS     r1,#0xb
        0x000038e8:    f7fcfe06    ....    BL       __aeabi_idiv ; 0x4f8
        0x000038ec:    f7fdfdca    ....    BL       __aeabi_i2f ; 0x1484
        0x000038f0:    00aa        ..      LSLS     r2,r5,#2
        0x000038f2:    9902        ..      LDR      r1,[sp,#8]
        0x000038f4:    1c6d        m.      ADDS     r5,r5,#1
        0x000038f6:    5088        .P      STR      r0,[r1,r2]
        0x000038f8:    4803        .H      LDR      r0,[pc,#12] ; [0x3908] = 0x200006bd
        0x000038fa:    2200        ."      MOVS     r2,#0
        0x000038fc:    5dc0        .]      LDRB     r0,[r0,r7]
        0x000038fe:    b2ed        ..      UXTB     r5,r5
        0x00003900:    42a8        .B      CMP      r0,r5
        0x00003902:    d8d9        ..      BHI      0x38b8 ; RawSmoothOutput + 40
        0x00003904:    b003        ..      ADD      sp,sp,#0xc
        0x00003906:    bdf0        ..      POP      {r4-r7,pc}
    $d
        0x00003908:    200006bd    ...     DCD    536872637
        0x0000390c:    20000874    t..     DCD    536873076
    $t
    i.Read_HDC1000_Humidity
    Read_HDC1000_Humidity
        0x00003910:    b510        ..      PUSH     {r4,lr}
        0x00003912:    2001        .       MOVS     r0,#1
        0x00003914:    f7fff93c    ..<.    BL       HDC1000_I2C_SingleRead ; 0x2b90
        0x00003918:    4604        .F      MOV      r4,r0
        0x0000391a:    4620         F      MOV      r0,r4
        0x0000391c:    bd10        ..      POP      {r4,pc}
    i.Read_HDC1000_Temperature
    Read_HDC1000_Temperature
        0x0000391e:    b510        ..      PUSH     {r4,lr}
        0x00003920:    2000        .       MOVS     r0,#0
        0x00003922:    f7fff935    ..5.    BL       HDC1000_I2C_SingleRead ; 0x2b90
        0x00003926:    4604        .F      MOV      r4,r0
        0x00003928:    4620         F      MOV      r0,r4
        0x0000392a:    bd10        ..      POP      {r4,pc}
    i.Read_MPU6050_AccX
    Read_MPU6050_AccX
        0x0000392c:    b530        0.      PUSH     {r4,r5,lr}
        0x0000392e:    203c        <       MOVS     r0,#0x3c
        0x00003930:    f7fffdd0    ....    BL       MPU6050_I2C_SingleRead ; 0x34d4
        0x00003934:    4604        .F      MOV      r4,r0
        0x00003936:    203b        ;       MOVS     r0,#0x3b
        0x00003938:    f7fffdcc    ....    BL       MPU6050_I2C_SingleRead ; 0x34d4
        0x0000393c:    4605        .F      MOV      r5,r0
        0x0000393e:    0228        (.      LSLS     r0,r5,#8
        0x00003940:    4320         C      ORRS     r0,r0,r4
        0x00003942:    bd30        0.      POP      {r4,r5,pc}
    i.Read_MPU6050_AccY
    Read_MPU6050_AccY
        0x00003944:    b530        0.      PUSH     {r4,r5,lr}
        0x00003946:    203e        >       MOVS     r0,#0x3e
        0x00003948:    f7fffdc4    ....    BL       MPU6050_I2C_SingleRead ; 0x34d4
        0x0000394c:    4604        .F      MOV      r4,r0
        0x0000394e:    203d        =       MOVS     r0,#0x3d
        0x00003950:    f7fffdc0    ....    BL       MPU6050_I2C_SingleRead ; 0x34d4
        0x00003954:    4605        .F      MOV      r5,r0
        0x00003956:    0228        (.      LSLS     r0,r5,#8
        0x00003958:    4320         C      ORRS     r0,r0,r4
        0x0000395a:    bd30        0.      POP      {r4,r5,pc}
    i.Read_MPU6050_AccZ
    Read_MPU6050_AccZ
        0x0000395c:    b530        0.      PUSH     {r4,r5,lr}
        0x0000395e:    2040        @       MOVS     r0,#0x40
        0x00003960:    f7fffdb8    ....    BL       MPU6050_I2C_SingleRead ; 0x34d4
        0x00003964:    4604        .F      MOV      r4,r0
        0x00003966:    203f        ?       MOVS     r0,#0x3f
        0x00003968:    f7fffdb4    ....    BL       MPU6050_I2C_SingleRead ; 0x34d4
        0x0000396c:    4605        .F      MOV      r5,r0
        0x0000396e:    0228        (.      LSLS     r0,r5,#8
        0x00003970:    4320         C      ORRS     r0,r0,r4
        0x00003972:    bd30        0.      POP      {r4,r5,pc}
    i.Read_MPU6050_GyroX
    Read_MPU6050_GyroX
        0x00003974:    b530        0.      PUSH     {r4,r5,lr}
        0x00003976:    2044        D       MOVS     r0,#0x44
        0x00003978:    f7fffdac    ....    BL       MPU6050_I2C_SingleRead ; 0x34d4
        0x0000397c:    4604        .F      MOV      r4,r0
        0x0000397e:    2043        C       MOVS     r0,#0x43
        0x00003980:    f7fffda8    ....    BL       MPU6050_I2C_SingleRead ; 0x34d4
        0x00003984:    4605        .F      MOV      r5,r0
        0x00003986:    0228        (.      LSLS     r0,r5,#8
        0x00003988:    4320         C      ORRS     r0,r0,r4
        0x0000398a:    bd30        0.      POP      {r4,r5,pc}
    i.Read_MPU6050_GyroY
    Read_MPU6050_GyroY
        0x0000398c:    b530        0.      PUSH     {r4,r5,lr}
        0x0000398e:    2046        F       MOVS     r0,#0x46
        0x00003990:    f7fffda0    ....    BL       MPU6050_I2C_SingleRead ; 0x34d4
        0x00003994:    4604        .F      MOV      r4,r0
        0x00003996:    2045        E       MOVS     r0,#0x45
        0x00003998:    f7fffd9c    ....    BL       MPU6050_I2C_SingleRead ; 0x34d4
        0x0000399c:    4605        .F      MOV      r5,r0
        0x0000399e:    0228        (.      LSLS     r0,r5,#8
        0x000039a0:    4320         C      ORRS     r0,r0,r4
        0x000039a2:    bd30        0.      POP      {r4,r5,pc}
    i.Read_MPU6050_GyroZ
    Read_MPU6050_GyroZ
        0x000039a4:    b530        0.      PUSH     {r4,r5,lr}
        0x000039a6:    2048        H       MOVS     r0,#0x48
        0x000039a8:    f7fffd94    ....    BL       MPU6050_I2C_SingleRead ; 0x34d4
        0x000039ac:    4604        .F      MOV      r4,r0
        0x000039ae:    2047        G       MOVS     r0,#0x47
        0x000039b0:    f7fffd90    ....    BL       MPU6050_I2C_SingleRead ; 0x34d4
        0x000039b4:    4605        .F      MOV      r5,r0
        0x000039b6:    0228        (.      LSLS     r0,r5,#8
        0x000039b8:    4320         C      ORRS     r0,r0,r4
        0x000039ba:    bd30        0.      POP      {r4,r5,pc}
    i.SYS_Init
    SYS_Init
        0x000039bc:    b510        ..      PUSH     {r4,lr}
        0x000039be:    f000f89b    ....    BL       SYS_UnlockReg ; 0x3af8
        0x000039c2:    2002        .       MOVS     r0,#2
        0x000039c4:    f7fefa46    ..F.    BL       CLK_EnableXtalRC ; 0x1e54
        0x000039c8:    2004        .       MOVS     r0,#4
        0x000039ca:    f7fefa43    ..C.    BL       CLK_EnableXtalRC ; 0x1e54
        0x000039ce:    2008        .       MOVS     r0,#8
        0x000039d0:    f7fefa40    ..@.    BL       CLK_EnableXtalRC ; 0x1e54
        0x000039d4:    2200        ."      MOVS     r2,#0
        0x000039d6:    4611        .F      MOV      r1,r2
        0x000039d8:    4610        .F      MOV      r0,r2
        0x000039da:    f7fefa61    ..a.    BL       CLK_SetHCLK ; 0x1ea0
        0x000039de:    4822        "H      LDR      r0,[pc,#136] ; [0x3a68] = 0x57c00014
        0x000039e0:    f7fefa26    ..&.    BL       CLK_EnableModuleClock ; 0x1e30
        0x000039e4:    4821        !H      LDR      r0,[pc,#132] ; [0x3a6c] = 0x40003d10
        0x000039e6:    f7fefa23    ..#.    BL       CLK_EnableModuleClock ; 0x1e30
        0x000039ea:    4821        !H      LDR      r0,[pc,#132] ; [0x3a70] = 0x40000008
        0x000039ec:    f7fefa20    .. .    BL       CLK_EnableModuleClock ; 0x1e30
        0x000039f0:    4820         H      LDR      r0,[pc,#128] ; [0x3a74] = 0x4003fe1c
        0x000039f2:    f7fefa1d    ....    BL       CLK_EnableModuleClock ; 0x1e30
        0x000039f6:    481e        .H      LDR      r0,[pc,#120] ; [0x3a70] = 0x40000008
        0x000039f8:    3016        .0      ADDS     r0,r0,#0x16
        0x000039fa:    f7fefa19    ....    BL       CLK_EnableModuleClock ; 0x1e30
        0x000039fe:    2200        ."      MOVS     r2,#0
        0x00003a00:    2101        .!      MOVS     r1,#1
        0x00003a02:    0749        I.      LSLS     r1,r1,#29
        0x00003a04:    4818        .H      LDR      r0,[pc,#96] ; [0x3a68] = 0x57c00014
        0x00003a06:    f7fefa6f    ..o.    BL       CLK_SetModuleClock ; 0x1ee8
        0x00003a0a:    2200        ."      MOVS     r2,#0
        0x00003a0c:    4611        .F      MOV      r1,r2
        0x00003a0e:    4819        .H      LDR      r0,[pc,#100] ; [0x3a74] = 0x4003fe1c
        0x00003a10:    f7fefa6a    ..j.    BL       CLK_SetModuleClock ; 0x1ee8
        0x00003a14:    4818        .H      LDR      r0,[pc,#96] ; [0x3a78] = 0x4000014
        0x00003a16:    f000f83f    ..?.    BL       SYS_ResetModule ; 0x3a98
        0x00003a1a:    4817        .H      LDR      r0,[pc,#92] ; [0x3a78] = 0x4000014
        0x00003a1c:    1f00        ..      SUBS     r0,r0,#4
        0x00003a1e:    f000f83b    ..;.    BL       SYS_ResetModule ; 0x3a98
        0x00003a22:    4815        .H      LDR      r0,[pc,#84] ; [0x3a78] = 0x4000014
        0x00003a24:    380c        .8      SUBS     r0,r0,#0xc
        0x00003a26:    f000f837    ..7.    BL       SYS_ResetModule ; 0x3a98
        0x00003a2a:    4813        .H      LDR      r0,[pc,#76] ; [0x3a78] = 0x4000014
        0x00003a2c:    3008        .0      ADDS     r0,r0,#8
        0x00003a2e:    f000f833    ..3.    BL       SYS_ResetModule ; 0x3a98
        0x00003a32:    4811        .H      LDR      r0,[pc,#68] ; [0x3a78] = 0x4000014
        0x00003a34:    300a        .0      ADDS     r0,r0,#0xa
        0x00003a36:    f000f82f    ../.    BL       SYS_ResetModule ; 0x3a98
        0x00003a3a:    f000fb09    ....    BL       SystemCoreClockUpdate ; 0x4050
        0x00003a3e:    2005        .       MOVS     r0,#5
        0x00003a40:    0700        ..      LSLS     r0,r0,#28
        0x00003a42:    6bc0        .k      LDR      r0,[r0,#0x3c]
        0x00003a44:    2130        0!      MOVS     r1,#0x30
        0x00003a46:    4388        .C      BICS     r0,r0,r1
        0x00003a48:    3010        .0      ADDS     r0,r0,#0x10
        0x00003a4a:    2105        .!      MOVS     r1,#5
        0x00003a4c:    0709        ..      LSLS     r1,r1,#28
        0x00003a4e:    63c8        .c      STR      r0,[r1,#0x3c]
        0x00003a50:    4608        .F      MOV      r0,r1
        0x00003a52:    6bc0        .k      LDR      r0,[r0,#0x3c]
        0x00003a54:    21c0        .!      MOVS     r1,#0xc0
        0x00003a56:    4388        .C      BICS     r0,r0,r1
        0x00003a58:    3040        @0      ADDS     r0,r0,#0x40
        0x00003a5a:    2105        .!      MOVS     r1,#5
        0x00003a5c:    0709        ..      LSLS     r1,r1,#28
        0x00003a5e:    63c8        .c      STR      r0,[r1,#0x3c]
        0x00003a60:    f000f814    ....    BL       SYS_LockReg ; 0x3a8c
        0x00003a64:    bd10        ..      POP      {r4,pc}
    $d
        0x00003a66:    0000        ..      DCW    0
        0x00003a68:    57c00014    ...W    DCD    1472200724
        0x00003a6c:    40003d10    .=.@    DCD    1073757456
        0x00003a70:    40000008    ...@    DCD    1073741832
        0x00003a74:    4003fe1c    ...@    DCD    1074003484
        0x00003a78:    04000014    ....    DCD    67108884
    $t
    i.SYS_Lock
    SYS_Lock
        0x00003a7c:    2800        .(      CMP      r0,#0
        0x00003a7e:    d002        ..      BEQ      0x3a86 ; SYS_Lock + 10
        0x00003a80:    2100        .!      MOVS     r1,#0
        0x00003a82:    4a01        .J      LDR      r2,[pc,#4] ; [0x3a88] = 0x50000100
        0x00003a84:    6011        .`      STR      r1,[r2,#0]
        0x00003a86:    4770        pG      BX       lr
    $d
        0x00003a88:    50000100    ...P    DCD    1342177536
    $t
    i.SYS_LockReg
    SYS_LockReg
        0x00003a8c:    2000        .       MOVS     r0,#0
        0x00003a8e:    4901        .I      LDR      r1,[pc,#4] ; [0x3a94] = 0x50000100
        0x00003a90:    6008        .`      STR      r0,[r1,#0]
        0x00003a92:    4770        pG      BX       lr
    $d
        0x00003a94:    50000100    ...P    DCD    1342177536
    $t
    i.SYS_ResetModule
    SYS_ResetModule
        0x00003a98:    0e01        ..      LSRS     r1,r0,#24
        0x00003a9a:    2205        ."      MOVS     r2,#5
        0x00003a9c:    0712        ..      LSLS     r2,r2,#28
        0x00003a9e:    1889        ..      ADDS     r1,r1,r2
        0x00003aa0:    6889        .h      LDR      r1,[r1,#8]
        0x00003aa2:    2201        ."      MOVS     r2,#1
        0x00003aa4:    4082        .@      LSLS     r2,r2,r0
        0x00003aa6:    4311        .C      ORRS     r1,r1,r2
        0x00003aa8:    0e02        ..      LSRS     r2,r0,#24
        0x00003aaa:    2305        .#      MOVS     r3,#5
        0x00003aac:    071b        ..      LSLS     r3,r3,#28
        0x00003aae:    18d2        ..      ADDS     r2,r2,r3
        0x00003ab0:    6091        .`      STR      r1,[r2,#8]
        0x00003ab2:    0e01        ..      LSRS     r1,r0,#24
        0x00003ab4:    461a        .F      MOV      r2,r3
        0x00003ab6:    1889        ..      ADDS     r1,r1,r2
        0x00003ab8:    688a        .h      LDR      r2,[r1,#8]
        0x00003aba:    2101        .!      MOVS     r1,#1
        0x00003abc:    4081        .@      LSLS     r1,r1,r0
        0x00003abe:    438a        .C      BICS     r2,r2,r1
        0x00003ac0:    0e01        ..      LSRS     r1,r0,#24
        0x00003ac2:    18c9        ..      ADDS     r1,r1,r3
        0x00003ac4:    608a        .`      STR      r2,[r1,#8]
        0x00003ac6:    4770        pG      BX       lr
    i.SYS_Unlock
    SYS_Unlock
        0x00003ac8:    480a        .H      LDR      r0,[pc,#40] ; [0x3af4] = 0x50000100
        0x00003aca:    6800        .h      LDR      r0,[r0,#0]
        0x00003acc:    07c0        ..      LSLS     r0,r0,#31
        0x00003ace:    0fc0        ..      LSRS     r0,r0,#31
        0x00003ad0:    2800        .(      CMP      r0,#0
        0x00003ad2:    d001        ..      BEQ      0x3ad8 ; SYS_Unlock + 16
        0x00003ad4:    2000        .       MOVS     r0,#0
        0x00003ad6:    4770        pG      BX       lr
        0x00003ad8:    e006        ..      B        0x3ae8 ; SYS_Unlock + 32
        0x00003ada:    2059        Y       MOVS     r0,#0x59
        0x00003adc:    4905        .I      LDR      r1,[pc,#20] ; [0x3af4] = 0x50000100
        0x00003ade:    6008        .`      STR      r0,[r1,#0]
        0x00003ae0:    2016        .       MOVS     r0,#0x16
        0x00003ae2:    6008        .`      STR      r0,[r1,#0]
        0x00003ae4:    2088        .       MOVS     r0,#0x88
        0x00003ae6:    6008        .`      STR      r0,[r1,#0]
        0x00003ae8:    4802        .H      LDR      r0,[pc,#8] ; [0x3af4] = 0x50000100
        0x00003aea:    6800        .h      LDR      r0,[r0,#0]
        0x00003aec:    2801        .(      CMP      r0,#1
        0x00003aee:    d1f4        ..      BNE      0x3ada ; SYS_Unlock + 18
        0x00003af0:    bf00        ..      NOP      
        0x00003af2:    e7f0        ..      B        0x3ad6 ; SYS_Unlock + 14
    $d
        0x00003af4:    50000100    ...P    DCD    1342177536
    $t
    i.SYS_UnlockReg
    SYS_UnlockReg
        0x00003af8:    e006        ..      B        0x3b08 ; SYS_UnlockReg + 16
        0x00003afa:    2059        Y       MOVS     r0,#0x59
        0x00003afc:    4905        .I      LDR      r1,[pc,#20] ; [0x3b14] = 0x50000100
        0x00003afe:    6008        .`      STR      r0,[r1,#0]
        0x00003b00:    2016        .       MOVS     r0,#0x16
        0x00003b02:    6008        .`      STR      r0,[r1,#0]
        0x00003b04:    2088        .       MOVS     r0,#0x88
        0x00003b06:    6008        .`      STR      r0,[r1,#0]
        0x00003b08:    4802        .H      LDR      r0,[pc,#8] ; [0x3b14] = 0x50000100
        0x00003b0a:    6800        .h      LDR      r0,[r0,#0]
        0x00003b0c:    2801        .(      CMP      r0,#1
        0x00003b0e:    d1f4        ..      BNE      0x3afa ; SYS_UnlockReg + 2
        0x00003b10:    4770        pG      BX       lr
    $d
        0x00003b12:    0000        ..      DCW    0
        0x00003b14:    50000100    ...P    DCD    1342177536
    $t
    i.SampleFilter
    SampleFilter
        0x00003b18:    b5f0        ..      PUSH     {r4-r7,lr}
        0x00003b1a:    4c61        aL      LDR      r4,[pc,#388] ; [0x3ca0] = 0x20000ca0
        0x00003b1c:    4f61        aO      LDR      r7,[pc,#388] ; [0x3ca4] = 0x20000874
        0x00003b1e:    7820         x      LDRB     r0,[r4,#0]
        0x00003b20:    b083        ..      SUB      sp,sp,#0xc
        0x00003b22:    2800        .(      CMP      r0,#0
        0x00003b24:    d004        ..      BEQ      0x3b30 ; SampleFilter + 24
        0x00003b26:    2801        .(      CMP      r0,#1
        0x00003b28:    d03b        ;.      BEQ      0x3ba2 ; SampleFilter + 138
        0x00003b2a:    2802        .(      CMP      r0,#2
        0x00003b2c:    d07e        ~.      BEQ      0x3c2c ; SampleFilter + 276
        0x00003b2e:    e0b4        ..      B        0x3c9a ; SampleFilter + 386
        0x00003b30:    2500        .%      MOVS     r5,#0
        0x00003b32:    00af        ..      LSLS     r7,r5,#2
        0x00003b34:    193e        >.      ADDS     r6,r7,r4
        0x00003b36:    6870        ph      LDR      r0,[r6,#4]
        0x00003b38:    f7fdfca4    ....    BL       __aeabi_i2f ; 0x1484
        0x00003b3c:    4959        YI      LDR      r1,[pc,#356] ; [0x3ca4] = 0x20000874
        0x00003b3e:    1879        y.      ADDS     r1,r7,r1
        0x00003b40:    698f        .i      LDR      r7,[r1,#0x18]
        0x00003b42:    4639        9F      MOV      r1,r7
        0x00003b44:    f002ffb6    ....    BL       __aeabi_fadd ; 0x6ab4
        0x00003b48:    f7fdfc3a    ..:.    BL       __aeabi_f2iz ; 0x13c0
        0x00003b4c:    4639        9F      MOV      r1,r7
        0x00003b4e:    6070        p`      STR      r0,[r6,#4]
        0x00003b50:    4608        .F      MOV      r0,r1
        0x00003b52:    f003f81f    ....    BL       __aeabi_fmul ; 0x6b94
        0x00003b56:    4607        .F      MOV      r7,r0
        0x00003b58:    6930        0i      LDR      r0,[r6,#0x10]
        0x00003b5a:    f7fdfc9b    ....    BL       __aeabi_ui2f ; 0x1494
        0x00003b5e:    4639        9F      MOV      r1,r7
        0x00003b60:    f002ffa8    ....    BL       __aeabi_fadd ; 0x6ab4
        0x00003b64:    f7fdfc52    ..R.    BL       __aeabi_f2uiz ; 0x140c
        0x00003b68:    1c6d        m.      ADDS     r5,r5,#1
        0x00003b6a:    6130        0a      STR      r0,[r6,#0x10]
        0x00003b6c:    2d03        .-      CMP      r5,#3
        0x00003b6e:    dbe0        ..      BLT      0x3b32 ; SampleFilter + 26
        0x00003b70:    7860        `x      LDRB     r0,[r4,#1]
        0x00003b72:    1c40        @.      ADDS     r0,r0,#1
        0x00003b74:    b2c0        ..      UXTB     r0,r0
        0x00003b76:    7060        `p      STRB     r0,[r4,#1]
        0x00003b78:    2820         (      CMP      r0,#0x20
        0x00003b7a:    d37d        }.      BCC      0x3c78 ; SampleFilter + 352
        0x00003b7c:    2000        .       MOVS     r0,#0
        0x00003b7e:    0081        ..      LSLS     r1,r0,#2
        0x00003b80:    190a        ..      ADDS     r2,r1,r4
        0x00003b82:    6851        Qh      LDR      r1,[r2,#4]
        0x00003b84:    6913        .i      LDR      r3,[r2,#0x10]
        0x00003b86:    4349        IC      MULS     r1,r1,r1
        0x00003b88:    17cd        ..      ASRS     r5,r1,#31
        0x00003b8a:    0eed        ..      LSRS     r5,r5,#27
        0x00003b8c:    1869        i.      ADDS     r1,r5,r1
        0x00003b8e:    1149        I.      ASRS     r1,r1,#5
        0x00003b90:    1a59        Y.      SUBS     r1,r3,r1
        0x00003b92:    1c49        I.      ADDS     r1,r1,#1
        0x00003b94:    1c40        @.      ADDS     r0,r0,#1
        0x00003b96:    61d1        .a      STR      r1,[r2,#0x1c]
        0x00003b98:    2803        .(      CMP      r0,#3
        0x00003b9a:    dbf0        ..      BLT      0x3b7e ; SampleFilter + 102
        0x00003b9c:    2001        .       MOVS     r0,#1
        0x00003b9e:    7020         p      STRB     r0,[r4,#0]
        0x00003ba0:    e07b        {.      B        0x3c9a ; SampleFilter + 386
        0x00003ba2:    6860        `h      LDR      r0,[r4,#4]
        0x00003ba4:    17c1        ..      ASRS     r1,r0,#31
        0x00003ba6:    0ec9        ..      LSRS     r1,r1,#27
        0x00003ba8:    1808        ..      ADDS     r0,r1,r0
        0x00003baa:    1140        @.      ASRS     r0,r0,#5
        0x00003bac:    f7fdfc6a    ..j.    BL       __aeabi_i2f ; 0x1484
        0x00003bb0:    69b9        .i      LDR      r1,[r7,#0x18]
        0x00003bb2:    9101        ..      STR      r1,[sp,#4]
        0x00003bb4:    f003f872    ..r.    BL       __aeabi_frsub ; 0x6c9c
        0x00003bb8:    f7fdfc28    ..(.    BL       __aeabi_f2uiz ; 0x140c
        0x00003bbc:    4606        .F      MOV      r6,r0
        0x00003bbe:    68a0        .h      LDR      r0,[r4,#8]
        0x00003bc0:    17c1        ..      ASRS     r1,r0,#31
        0x00003bc2:    0ec9        ..      LSRS     r1,r1,#27
        0x00003bc4:    1808        ..      ADDS     r0,r1,r0
        0x00003bc6:    1140        @.      ASRS     r0,r0,#5
        0x00003bc8:    f7fdfc5c    ..\.    BL       __aeabi_i2f ; 0x1484
        0x00003bcc:    69f9        .i      LDR      r1,[r7,#0x1c]
        0x00003bce:    9100        ..      STR      r1,[sp,#0]
        0x00003bd0:    f003f864    ..d.    BL       __aeabi_frsub ; 0x6c9c
        0x00003bd4:    f7fdfc1a    ....    BL       __aeabi_f2uiz ; 0x140c
        0x00003bd8:    4605        .F      MOV      r5,r0
        0x00003bda:    68e0        .h      LDR      r0,[r4,#0xc]
        0x00003bdc:    17c1        ..      ASRS     r1,r0,#31
        0x00003bde:    0ec9        ..      LSRS     r1,r1,#27
        0x00003be0:    1808        ..      ADDS     r0,r1,r0
        0x00003be2:    1140        @.      ASRS     r0,r0,#5
        0x00003be4:    f7fdfc4e    ..N.    BL       __aeabi_i2f ; 0x1484
        0x00003be8:    6a3f        ?j      LDR      r7,[r7,#0x20]
        0x00003bea:    4639        9F      MOV      r1,r7
        0x00003bec:    f003f856    ..V.    BL       __aeabi_frsub ; 0x6c9c
        0x00003bf0:    f7fdfc0c    ....    BL       __aeabi_f2uiz ; 0x140c
        0x00003bf4:    69e1        .i      LDR      r1,[r4,#0x1c]
        0x00003bf6:    4376        vC      MULS     r6,r6,r6
        0x00003bf8:    00ca        ..      LSLS     r2,r1,#3
        0x00003bfa:    1889        ..      ADDS     r1,r1,r2
        0x00003bfc:    428e        .B      CMP      r6,r1
        0x00003bfe:    d22b        +.      BCS      0x3c58 ; SampleFilter + 320
        0x00003c00:    6a21        !j      LDR      r1,[r4,#0x20]
        0x00003c02:    436d        mC      MULS     r5,r5,r5
        0x00003c04:    00ca        ..      LSLS     r2,r1,#3
        0x00003c06:    1889        ..      ADDS     r1,r1,r2
        0x00003c08:    428d        .B      CMP      r5,r1
        0x00003c0a:    d225        %.      BCS      0x3c58 ; SampleFilter + 320
        0x00003c0c:    6a61        aj      LDR      r1,[r4,#0x24]
        0x00003c0e:    4340        @C      MULS     r0,r0,r0
        0x00003c10:    00ca        ..      LSLS     r2,r1,#3
        0x00003c12:    1889        ..      ADDS     r1,r1,r2
        0x00003c14:    4288        .B      CMP      r0,r1
        0x00003c16:    d21f        ..      BCS      0x3c58 ; SampleFilter + 320
        0x00003c18:    78a0        .x      LDRB     r0,[r4,#2]
        0x00003c1a:    1c40        @.      ADDS     r0,r0,#1
        0x00003c1c:    70a0        .p      STRB     r0,[r4,#2]
        0x00003c1e:    6aa0        .j      LDR      r0,[r4,#0x28]
        0x00003c20:    f7fdfc30    ..0.    BL       __aeabi_i2f ; 0x1484
        0x00003c24:    9901        ..      LDR      r1,[sp,#4]
        0x00003c26:    f002ff45    ..E.    BL       __aeabi_fadd ; 0x6ab4
        0x00003c2a:    e000        ..      B        0x3c2e ; SampleFilter + 278
        0x00003c2c:    e030        0.      B        0x3c90 ; SampleFilter + 376
        0x00003c2e:    f7fdfbc7    ....    BL       __aeabi_f2iz ; 0x13c0
        0x00003c32:    62a0        .b      STR      r0,[r4,#0x28]
        0x00003c34:    6ae0        .j      LDR      r0,[r4,#0x2c]
        0x00003c36:    f7fdfc25    ..%.    BL       __aeabi_i2f ; 0x1484
        0x00003c3a:    9900        ..      LDR      r1,[sp,#0]
        0x00003c3c:    f002ff3a    ..:.    BL       __aeabi_fadd ; 0x6ab4
        0x00003c40:    f7fdfbbe    ....    BL       __aeabi_f2iz ; 0x13c0
        0x00003c44:    62e0        .b      STR      r0,[r4,#0x2c]
        0x00003c46:    6b20         k      LDR      r0,[r4,#0x30]
        0x00003c48:    f7fdfc1c    ....    BL       __aeabi_i2f ; 0x1484
        0x00003c4c:    4639        9F      MOV      r1,r7
        0x00003c4e:    f002ff31    ..1.    BL       __aeabi_fadd ; 0x6ab4
        0x00003c52:    f7fdfbb5    ....    BL       __aeabi_f2iz ; 0x13c0
        0x00003c56:    6320         c      STR      r0,[r4,#0x30]
        0x00003c58:    78a0        .x      LDRB     r0,[r4,#2]
        0x00003c5a:    2820         (      CMP      r0,#0x20
        0x00003c5c:    d31d        ..      BCC      0x3c9a ; SampleFilter + 386
        0x00003c5e:    6aa0        .j      LDR      r0,[r4,#0x28]
        0x00003c60:    17c1        ..      ASRS     r1,r0,#31
        0x00003c62:    0ec9        ..      LSRS     r1,r1,#27
        0x00003c64:    1808        ..      ADDS     r0,r1,r0
        0x00003c66:    1140        @.      ASRS     r0,r0,#5
        0x00003c68:    86a0        ..      STRH     r0,[r4,#0x34]
        0x00003c6a:    6ae0        .j      LDR      r0,[r4,#0x2c]
        0x00003c6c:    17c1        ..      ASRS     r1,r0,#31
        0x00003c6e:    0ec9        ..      LSRS     r1,r1,#27
        0x00003c70:    1808        ..      ADDS     r0,r1,r0
        0x00003c72:    1140        @.      ASRS     r0,r0,#5
        0x00003c74:    86e0        ..      STRH     r0,[r4,#0x36]
        0x00003c76:    e000        ..      B        0x3c7a ; SampleFilter + 354
        0x00003c78:    e00f        ..      B        0x3c9a ; SampleFilter + 386
        0x00003c7a:    6b20         k      LDR      r0,[r4,#0x30]
        0x00003c7c:    17c1        ..      ASRS     r1,r0,#31
        0x00003c7e:    0ec9        ..      LSRS     r1,r1,#27
        0x00003c80:    1808        ..      ADDS     r0,r1,r0
        0x00003c82:    1140        @.      ASRS     r0,r0,#5
        0x00003c84:    8720         .      STRH     r0,[r4,#0x38]
        0x00003c86:    2002        .       MOVS     r0,#2
        0x00003c88:    7020         p      STRB     r0,[r4,#0]
        0x00003c8a:    2001        .       MOVS     r0,#1
        0x00003c8c:    b003        ..      ADD      sp,sp,#0xc
        0x00003c8e:    bdf0        ..      POP      {r4-r7,pc}
        0x00003c90:    f7fefe32    ..2.    BL       FilterACCInit ; 0x28f8
        0x00003c94:    2000        .       MOVS     r0,#0
        0x00003c96:    b003        ..      ADD      sp,sp,#0xc
        0x00003c98:    bdf0        ..      POP      {r4-r7,pc}
        0x00003c9a:    2000        .       MOVS     r0,#0
        0x00003c9c:    b003        ..      ADD      sp,sp,#0xc
        0x00003c9e:    bdf0        ..      POP      {r4-r7,pc}
    $d
        0x00003ca0:    20000ca0    ...     DCD    536874144
        0x00003ca4:    20000874    t..     DCD    536873076
    $t
    i.SendChar
    SendChar
        0x00003ca8:    b500        ..      PUSH     {lr}
        0x00003caa:    4603        .F      MOV      r3,r0
        0x00003cac:    4618        .F      MOV      r0,r3
        0x00003cae:    f000f801    ....    BL       SendChar_ToUART ; 0x3cb4
        0x00003cb2:    bd00        ..      POP      {pc}
    i.SendChar_ToUART
    SendChar_ToUART
        0x00003cb4:    bf00        ..      NOP      
        0x00003cb6:    490b        .I      LDR      r1,[pc,#44] ; [0x3ce4] = 0x40050000
        0x00003cb8:    6989        .i      LDR      r1,[r1,#0x18]
        0x00003cba:    2201        ."      MOVS     r2,#1
        0x00003cbc:    05d2        ..      LSLS     r2,r2,#23
        0x00003cbe:    4011        .@      ANDS     r1,r1,r2
        0x00003cc0:    2900        .)      CMP      r1,#0
        0x00003cc2:    d1f8        ..      BNE      0x3cb6 ; SendChar_ToUART + 2
        0x00003cc4:    4907        .I      LDR      r1,[pc,#28] ; [0x3ce4] = 0x40050000
        0x00003cc6:    6008        .`      STR      r0,[r1,#0]
        0x00003cc8:    280a        .(      CMP      r0,#0xa
        0x00003cca:    d10a        ..      BNE      0x3ce2 ; SendChar_ToUART + 46
        0x00003ccc:    bf00        ..      NOP      
        0x00003cce:    4905        .I      LDR      r1,[pc,#20] ; [0x3ce4] = 0x40050000
        0x00003cd0:    6989        .i      LDR      r1,[r1,#0x18]
        0x00003cd2:    2201        ."      MOVS     r2,#1
        0x00003cd4:    05d2        ..      LSLS     r2,r2,#23
        0x00003cd6:    4011        .@      ANDS     r1,r1,r2
        0x00003cd8:    2900        .)      CMP      r1,#0
        0x00003cda:    d1f8        ..      BNE      0x3cce ; SendChar_ToUART + 26
        0x00003cdc:    210d        .!      MOVS     r1,#0xd
        0x00003cde:    4a01        .J      LDR      r2,[pc,#4] ; [0x3ce4] = 0x40050000
        0x00003ce0:    6011        .`      STR      r1,[r2,#0]
        0x00003ce2:    4770        pG      BX       lr
    $d
        0x00003ce4:    40050000    ...@    DCD    1074069504
    $t
    i.Send_Data
    Send_Data
        0x00003ce8:    b5f8        ..      PUSH     {r3-r7,lr}
        0x00003cea:    493d        =I      LDR      r1,[pc,#244] ; [0x3de0] = 0x2000001c
        0x00003cec:    8809        ..      LDRH     r1,[r1,#0]
        0x00003cee:    b288        ..      UXTH     r0,r1
        0x00003cf0:    f002fe38    ..8.    BL       transfer ; 0x6964
        0x00003cf4:    b204        ..      SXTH     r4,r0
        0x00003cf6:    493a        :I      LDR      r1,[pc,#232] ; [0x3de0] = 0x2000001c
        0x00003cf8:    8849        I.      LDRH     r1,[r1,#2]
        0x00003cfa:    b288        ..      UXTH     r0,r1
        0x00003cfc:    f002fe32    ..2.    BL       transfer ; 0x6964
        0x00003d00:    b205        ..      SXTH     r5,r0
        0x00003d02:    4937        7I      LDR      r1,[pc,#220] ; [0x3de0] = 0x2000001c
        0x00003d04:    8889        ..      LDRH     r1,[r1,#4]
        0x00003d06:    b288        ..      UXTH     r0,r1
        0x00003d08:    f002fe2c    ..,.    BL       transfer ; 0x6964
        0x00003d0c:    b206        ..      SXTH     r6,r0
        0x00003d0e:    f7fffe31    ..1.    BL       Read_MPU6050_GyroX ; 0x3974
        0x00003d12:    4607        .F      MOV      r7,r0
        0x00003d14:    f002fe26    ..&.    BL       transfer ; 0x6964
        0x00003d18:    4932        2I      LDR      r1,[pc,#200] ; [0x3de4] = 0x200006b6
        0x00003d1a:    8008        ..      STRH     r0,[r1,#0]
        0x00003d1c:    f7fffe36    ..6.    BL       Read_MPU6050_GyroY ; 0x398c
        0x00003d20:    4607        .F      MOV      r7,r0
        0x00003d22:    f002fe1f    ....    BL       transfer ; 0x6964
        0x00003d26:    4930        0I      LDR      r1,[pc,#192] ; [0x3de8] = 0x200006b8
        0x00003d28:    8008        ..      STRH     r0,[r1,#0]
        0x00003d2a:    f7fffe3b    ..;.    BL       Read_MPU6050_GyroZ ; 0x39a4
        0x00003d2e:    4607        .F      MOV      r7,r0
        0x00003d30:    f002fe18    ....    BL       transfer ; 0x6964
        0x00003d34:    492d        -I      LDR      r1,[pc,#180] ; [0x3dec] = 0x200006ba
        0x00003d36:    8008        ..      STRH     r0,[r1,#0]
        0x00003d38:    0420         .      LSLS     r0,r4,#16
        0x00003d3a:    0e00        ..      LSRS     r0,r0,#24
        0x00003d3c:    492c        ,I      LDR      r1,[pc,#176] ; [0x3df0] = 0x20000022
        0x00003d3e:    7108        .q      STRB     r0,[r1,#4]
        0x00003d40:    714c        Lq      STRB     r4,[r1,#5]
        0x00003d42:    0428        (.      LSLS     r0,r5,#16
        0x00003d44:    0e00        ..      LSRS     r0,r0,#24
        0x00003d46:    7188        .q      STRB     r0,[r1,#6]
        0x00003d48:    71cd        .q      STRB     r5,[r1,#7]
        0x00003d4a:    0430        0.      LSLS     r0,r6,#16
        0x00003d4c:    0e00        ..      LSRS     r0,r0,#24
        0x00003d4e:    7208        .r      STRB     r0,[r1,#8]
        0x00003d50:    724e        Nr      STRB     r6,[r1,#9]
        0x00003d52:    4826        &H      LDR      r0,[pc,#152] ; [0x3dec] = 0x200006ba
        0x00003d54:    8800        ..      LDRH     r0,[r0,#0]
        0x00003d56:    1200        ..      ASRS     r0,r0,#8
        0x00003d58:    7388        .s      STRB     r0,[r1,#0xe]
        0x00003d5a:    4824        $H      LDR      r0,[pc,#144] ; [0x3dec] = 0x200006ba
        0x00003d5c:    8800        ..      LDRH     r0,[r0,#0]
        0x00003d5e:    73c8        .s      STRB     r0,[r1,#0xf]
        0x00003d60:    4821        !H      LDR      r0,[pc,#132] ; [0x3de8] = 0x200006b8
        0x00003d62:    8800        ..      LDRH     r0,[r0,#0]
        0x00003d64:    1200        ..      ASRS     r0,r0,#8
        0x00003d66:    7408        .t      STRB     r0,[r1,#0x10]
        0x00003d68:    481f        .H      LDR      r0,[pc,#124] ; [0x3de8] = 0x200006b8
        0x00003d6a:    8800        ..      LDRH     r0,[r0,#0]
        0x00003d6c:    7448        Ht      STRB     r0,[r1,#0x11]
        0x00003d6e:    481d        .H      LDR      r0,[pc,#116] ; [0x3de4] = 0x200006b6
        0x00003d70:    8800        ..      LDRH     r0,[r0,#0]
        0x00003d72:    1200        ..      ASRS     r0,r0,#8
        0x00003d74:    7488        .t      STRB     r0,[r1,#0x12]
        0x00003d76:    481b        .H      LDR      r0,[pc,#108] ; [0x3de4] = 0x200006b6
        0x00003d78:    8800        ..      LDRH     r0,[r0,#0]
        0x00003d7a:    74c8        .t      STRB     r0,[r1,#0x13]
        0x00003d7c:    481d        .H      LDR      r0,[pc,#116] ; [0x3df4] = 0x20000070
        0x00003d7e:    8840        @.      LDRH     r0,[r0,#2]
        0x00003d80:    1200        ..      ASRS     r0,r0,#8
        0x00003d82:    7608        .v      STRB     r0,[r1,#0x18]
        0x00003d84:    481b        .H      LDR      r0,[pc,#108] ; [0x3df4] = 0x20000070
        0x00003d86:    7880        .x      LDRB     r0,[r0,#2]
        0x00003d88:    7648        Hv      STRB     r0,[r1,#0x19]
        0x00003d8a:    481a        .H      LDR      r0,[pc,#104] ; [0x3df4] = 0x20000070
        0x00003d8c:    8800        ..      LDRH     r0,[r0,#0]
        0x00003d8e:    1200        ..      ASRS     r0,r0,#8
        0x00003d90:    7788        .w      STRB     r0,[r1,#0x1e]
        0x00003d92:    4818        .H      LDR      r0,[pc,#96] ; [0x3df4] = 0x20000070
        0x00003d94:    7800        .x      LDRB     r0,[r0,#0]
        0x00003d96:    77c8        .w      STRB     r0,[r1,#0x1f]
        0x00003d98:    4817        .H      LDR      r0,[pc,#92] ; [0x3df8] = 0x20000064
        0x00003d9a:    8800        ..      LDRH     r0,[r0,#0]
        0x00003d9c:    0400        ..      LSLS     r0,r0,#16
        0x00003d9e:    0e01        ..      LSRS     r1,r0,#24
        0x00003da0:    4813        .H      LDR      r0,[pc,#76] ; [0x3df0] = 0x20000022
        0x00003da2:    3020         0      ADDS     r0,r0,#0x20
        0x00003da4:    7101        .q      STRB     r1,[r0,#4]
        0x00003da6:    4814        .H      LDR      r0,[pc,#80] ; [0x3df8] = 0x20000064
        0x00003da8:    7801        .x      LDRB     r1,[r0,#0]
        0x00003daa:    4811        .H      LDR      r0,[pc,#68] ; [0x3df0] = 0x20000022
        0x00003dac:    3020         0      ADDS     r0,r0,#0x20
        0x00003dae:    7141        Aq      STRB     r1,[r0,#5]
        0x00003db0:    4812        .H      LDR      r0,[pc,#72] ; [0x3dfc] = 0x20000068
        0x00003db2:    8800        ..      LDRH     r0,[r0,#0]
        0x00003db4:    0400        ..      LSLS     r0,r0,#16
        0x00003db6:    0e01        ..      LSRS     r1,r0,#24
        0x00003db8:    480d        .H      LDR      r0,[pc,#52] ; [0x3df0] = 0x20000022
        0x00003dba:    3020         0      ADDS     r0,r0,#0x20
        0x00003dbc:    7281        .r      STRB     r1,[r0,#0xa]
        0x00003dbe:    480f        .H      LDR      r0,[pc,#60] ; [0x3dfc] = 0x20000068
        0x00003dc0:    7801        .x      LDRB     r1,[r0,#0]
        0x00003dc2:    480b        .H      LDR      r0,[pc,#44] ; [0x3df0] = 0x20000022
        0x00003dc4:    3020         0      ADDS     r0,r0,#0x20
        0x00003dc6:    72c1        .r      STRB     r1,[r0,#0xb]
        0x00003dc8:    480d        .H      LDR      r0,[pc,#52] ; [0x3e00] = 0x20000060
        0x00003dca:    7801        .x      LDRB     r1,[r0,#0]
        0x00003dcc:    4808        .H      LDR      r0,[pc,#32] ; [0x3df0] = 0x20000022
        0x00003dce:    3020         0      ADDS     r0,r0,#0x20
        0x00003dd0:    7401        .t      STRB     r1,[r0,#0x10]
        0x00003dd2:    2231        1"      MOVS     r2,#0x31
        0x00003dd4:    4906        .I      LDR      r1,[pc,#24] ; [0x3df0] = 0x20000022
        0x00003dd6:    480b        .H      LDR      r0,[pc,#44] ; [0x3e04] = 0x40050000
        0x00003dd8:    f000fa5e    ..^.    BL       UART_Write_Wecan ; 0x4298
        0x00003ddc:    bdf8        ..      POP      {r3-r7,pc}
    $d
        0x00003dde:    0000        ..      DCW    0
        0x00003de0:    2000001c    ...     DCD    536870940
        0x00003de4:    200006b6    ...     DCD    536872630
        0x00003de8:    200006b8    ...     DCD    536872632
        0x00003dec:    200006ba    ...     DCD    536872634
        0x00003df0:    20000022    "..     DCD    536870946
        0x00003df4:    20000070    p..     DCD    536871024
        0x00003df8:    20000064    d..     DCD    536871012
        0x00003dfc:    20000068    h..     DCD    536871016
        0x00003e00:    20000060    `..     DCD    536871008
        0x00003e04:    40050000    ...@    DCD    1074069504
    $t
    i.SensorStateInit
    SensorStateInit
        0x00003e08:    480b        .H      LDR      r0,[pc,#44] ; [0x3e38] = 0x20000874
        0x00003e0a:    2100        .!      MOVS     r1,#0
        0x00003e0c:    7001        .p      STRB     r1,[r0,#0]
        0x00003e0e:    7041        Ap      STRB     r1,[r0,#1]
        0x00003e10:    7081        .p      STRB     r1,[r0,#2]
        0x00003e12:    7101        .q      STRB     r1,[r0,#4]
        0x00003e14:    7141        Aq      STRB     r1,[r0,#5]
        0x00003e16:    7181        .q      STRB     r1,[r0,#6]
        0x00003e18:    7201        .r      STRB     r1,[r0,#8]
        0x00003e1a:    7241        Ar      STRB     r1,[r0,#9]
        0x00003e1c:    60c1        .`      STR      r1,[r0,#0xc]
        0x00003e1e:    6101        .a      STR      r1,[r0,#0x10]
        0x00003e20:    6141        Aa      STR      r1,[r0,#0x14]
        0x00003e22:    4806        .H      LDR      r0,[pc,#24] ; [0x3e3c] = 0x20000a94
        0x00003e24:    2201        ."      MOVS     r2,#1
        0x00003e26:    7201        .r      STRB     r1,[r0,#8]
        0x00003e28:    7301        .s      STRB     r1,[r0,#0xc]
        0x00003e2a:    7241        Ar      STRB     r1,[r0,#9]
        0x00003e2c:    7341        As      STRB     r1,[r0,#0xd]
        0x00003e2e:    7281        .r      STRB     r1,[r0,#0xa]
        0x00003e30:    7382        .s      STRB     r2,[r0,#0xe]
        0x00003e32:    72c1        .r      STRB     r1,[r0,#0xb]
        0x00003e34:    73c2        .s      STRB     r2,[r0,#0xf]
        0x00003e36:    4770        pG      BX       lr
    $d
        0x00003e38:    20000874    t..     DCD    536873076
        0x00003e3c:    20000a94    ...     DCD    536873620
    $t
    i.SensorsDynamicCalibrate
    SensorsDynamicCalibrate
        0x00003e40:    b53e        >.      PUSH     {r1-r5,lr}
        0x00003e42:    4604        .F      MOV      r4,r0
        0x00003e44:    2002        .       MOVS     r0,#2
        0x00003e46:    4020         @      ANDS     r0,r0,r4
        0x00003e48:    2800        .(      CMP      r0,#0
        0x00003e4a:    d014        ..      BEQ      0x3e76 ; SensorsDynamicCalibrate + 54
        0x00003e4c:    480a        .H      LDR      r0,[pc,#40] ; [0x3e78] = 0x200006b0
        0x00003e4e:    7840        @x      LDRB     r0,[r0,#1]
        0x00003e50:    2800        .(      CMP      r0,#0
        0x00003e52:    d010        ..      BEQ      0x3e76 ; SensorsDynamicCalibrate + 54
        0x00003e54:    4809        .H      LDR      r0,[pc,#36] ; [0x3e7c] = 0x200006b3
        0x00003e56:    7840        @x      LDRB     r0,[r0,#1]
        0x00003e58:    2800        .(      CMP      r0,#0
        0x00003e5a:    d10c        ..      BNE      0x3e76 ; SensorsDynamicCalibrate + 54
        0x00003e5c:    2001        .       MOVS     r0,#1
        0x00003e5e:    f7fefcef    ....    BL       DelayMsec ; 0x2840
        0x00003e62:    f001fcab    ....    BL       nvtGyroCenterCalibrate ; 0x57bc
        0x00003e66:    2801        .(      CMP      r0,#1
        0x00003e68:    d105        ..      BNE      0x3e76 ; SensorsDynamicCalibrate + 54
        0x00003e6a:    4904        .I      LDR      r1,[pc,#16] ; [0x3e7c] = 0x200006b3
        0x00003e6c:    7048        Hp      STRB     r0,[r1,#1]
        0x00003e6e:    4668        hF      MOV      r0,sp
        0x00003e70:    f001fc9a    ....    BL       nvtGetGyroOffset ; 0x57a8
        0x00003e74:    bf00        ..      NOP      
        0x00003e76:    bd3e        >.      POP      {r1-r5,pc}
    $d
        0x00003e78:    200006b0    ...     DCD    536872624
        0x00003e7c:    200006b3    ...     DCD    536872627
    $t
    i.SetCalibrateACC
    SetCalibrateACC
        0x00003e80:    b570        p.      PUSH     {r4-r6,lr}
        0x00003e82:    4c0e        .L      LDR      r4,[pc,#56] ; [0x3ebc] = 0x20000808
        0x00003e84:    4d0e        .M      LDR      r5,[pc,#56] ; [0x3ec0] = 0x20000874
        0x00003e86:    6821        !h      LDR      r1,[r4,#0]
        0x00003e88:    69a8        .i      LDR      r0,[r5,#0x18]
        0x00003e8a:    f002ff13    ....    BL       __aeabi_fsub ; 0x6cb4
        0x00003e8e:    68e1        .h      LDR      r1,[r4,#0xc]
        0x00003e90:    f002fe80    ....    BL       __aeabi_fmul ; 0x6b94
        0x00003e94:    4e0b        .N      LDR      r6,[pc,#44] ; [0x3ec4] = 0x20000ab4
        0x00003e96:    6570        pe      STR      r0,[r6,#0x54]
        0x00003e98:    6861        ah      LDR      r1,[r4,#4]
        0x00003e9a:    69e8        .i      LDR      r0,[r5,#0x1c]
        0x00003e9c:    f002ff0a    ....    BL       __aeabi_fsub ; 0x6cb4
        0x00003ea0:    6921        !i      LDR      r1,[r4,#0x10]
        0x00003ea2:    f002fe77    ..w.    BL       __aeabi_fmul ; 0x6b94
        0x00003ea6:    65b0        .e      STR      r0,[r6,#0x58]
        0x00003ea8:    68a1        .h      LDR      r1,[r4,#8]
        0x00003eaa:    6a28        (j      LDR      r0,[r5,#0x20]
        0x00003eac:    f002ff02    ....    BL       __aeabi_fsub ; 0x6cb4
        0x00003eb0:    6961        ai      LDR      r1,[r4,#0x14]
        0x00003eb2:    f002fe6f    ..o.    BL       __aeabi_fmul ; 0x6b94
        0x00003eb6:    65f0        .e      STR      r0,[r6,#0x5c]
        0x00003eb8:    bd70        p.      POP      {r4-r6,pc}
    $d
        0x00003eba:    0000        ..      DCW    0
        0x00003ebc:    20000808    ...     DCD    536872968
        0x00003ec0:    20000874    t..     DCD    536873076
        0x00003ec4:    20000ab4    ...     DCD    536873652
    $t
    i.SetCalibrateGYRO
    SetCalibrateGYRO
        0x00003ec8:    b570        p.      PUSH     {r4-r6,lr}
        0x00003eca:    4c0e        .L      LDR      r4,[pc,#56] ; [0x3f04] = 0x20000808
        0x00003ecc:    4d0e        .M      LDR      r5,[pc,#56] ; [0x3f08] = 0x20000874
        0x00003ece:    69a1        .i      LDR      r1,[r4,#0x18]
        0x00003ed0:    6a68        hj      LDR      r0,[r5,#0x24]
        0x00003ed2:    f002feef    ....    BL       __aeabi_fsub ; 0x6cb4
        0x00003ed6:    6a61        aj      LDR      r1,[r4,#0x24]
        0x00003ed8:    f002fe5c    ..\.    BL       __aeabi_fmul ; 0x6b94
        0x00003edc:    4e0b        .N      LDR      r6,[pc,#44] ; [0x3f0c] = 0x20000ab4
        0x00003ede:    6630        0f      STR      r0,[r6,#0x60]
        0x00003ee0:    69e1        .i      LDR      r1,[r4,#0x1c]
        0x00003ee2:    6aa8        .j      LDR      r0,[r5,#0x28]
        0x00003ee4:    f002fee6    ....    BL       __aeabi_fsub ; 0x6cb4
        0x00003ee8:    6aa1        .j      LDR      r1,[r4,#0x28]
        0x00003eea:    f002fe53    ..S.    BL       __aeabi_fmul ; 0x6b94
        0x00003eee:    6670        pf      STR      r0,[r6,#0x64]
        0x00003ef0:    6a21        !j      LDR      r1,[r4,#0x20]
        0x00003ef2:    6ae8        .j      LDR      r0,[r5,#0x2c]
        0x00003ef4:    f002fede    ....    BL       __aeabi_fsub ; 0x6cb4
        0x00003ef8:    6ae1        .j      LDR      r1,[r4,#0x2c]
        0x00003efa:    f002fe4b    ..K.    BL       __aeabi_fmul ; 0x6b94
        0x00003efe:    66b0        .f      STR      r0,[r6,#0x68]
        0x00003f00:    bd70        p.      POP      {r4-r6,pc}
    $d
        0x00003f02:    0000        ..      DCW    0
        0x00003f04:    20000808    ...     DCD    536872968
        0x00003f08:    20000874    t..     DCD    536873076
        0x00003f0c:    20000ab4    ...     DCD    536873652
    $t
    i.SetMagGuass
    SetMagGuass
        0x00003f10:    b570        p.      PUSH     {r4-r6,lr}
        0x00003f12:    4e0f        .N      LDR      r6,[pc,#60] ; [0x3f50] = 0x20000ab4
        0x00003f14:    6f70        po      LDR      r0,[r6,#0x74]
        0x00003f16:    4601        .F      MOV      r1,r0
        0x00003f18:    f002fe3c    ..<.    BL       __aeabi_fmul ; 0x6b94
        0x00003f1c:    4604        .F      MOV      r4,r0
        0x00003f1e:    6f30        0o      LDR      r0,[r6,#0x70]
        0x00003f20:    4601        .F      MOV      r1,r0
        0x00003f22:    f002fe37    ..7.    BL       __aeabi_fmul ; 0x6b94
        0x00003f26:    4605        .F      MOV      r5,r0
        0x00003f28:    6ef0        .n      LDR      r0,[r6,#0x6c]
        0x00003f2a:    4601        .F      MOV      r1,r0
        0x00003f2c:    f002fe32    ..2.    BL       __aeabi_fmul ; 0x6b94
        0x00003f30:    4629        )F      MOV      r1,r5
        0x00003f32:    f002fdbf    ....    BL       __aeabi_fadd ; 0x6ab4
        0x00003f36:    4621        !F      MOV      r1,r4
        0x00003f38:    f002fdbc    ....    BL       __aeabi_fadd ; 0x6ab4
        0x00003f3c:    f7fdf966    ..f.    BL       __aeabi_f2d ; 0x120c
        0x00003f40:    f002fcec    ....    BL       sqrt ; 0x691c
        0x00003f44:    f7fcfbc2    ....    BL       __aeabi_d2f ; 0x6cc
        0x00003f48:    4902        .I      LDR      r1,[pc,#8] ; [0x3f54] = 0x200006d0
        0x00003f4a:    6048        H`      STR      r0,[r1,#4]
        0x00003f4c:    bd70        p.      POP      {r4-r6,pc}
    $d
        0x00003f4e:    0000        ..      DCW    0
        0x00003f50:    20000ab4    ...     DCD    536873652
        0x00003f54:    200006d0    ...     DCD    536872656
    $t
    i.SetZWithoutG_Base
    SetZWithoutG_Base
        0x00003f58:    4901        .I      LDR      r1,[pc,#4] ; [0x3f60] = 0x200006bc
        0x00003f5a:    6088        .`      STR      r0,[r1,#8]
        0x00003f5c:    4770        pG      BX       lr
    $d
        0x00003f5e:    0000        ..      DCW    0
        0x00003f60:    200006bc    ...     DCD    536872636
    $t
    i.SetupSecurityID
    SetupSecurityID
        0x00003f64:    b570        p.      PUSH     {r4-r6,lr}
        0x00003f66:    2001        .       MOVS     r0,#1
        0x00003f68:    f3808810    ....    MSR      PRIMASK,r0
        0x00003f6c:    f7fffdc4    ....    BL       SYS_UnlockReg ; 0x3af8
        0x00003f70:    f7fefcb8    ....    BL       FMC_Open ; 0x28e4
        0x00003f74:    2000        .       MOVS     r0,#0
        0x00003f76:    4a14        .J      LDR      r2,[pc,#80] ; [0x3fc8] = 0x20000cdc
        0x00003f78:    2501        .%      MOVS     r5,#1
        0x00003f7a:    4c14        .L      LDR      r4,[pc,#80] ; [0x3fcc] = 0x5000c000
        0x00003f7c:    4603        .F      MOV      r3,r0
        0x00003f7e:    2604        .&      MOVS     r6,#4
        0x00003f80:    60e6        .`      STR      r6,[r4,#0xc]
        0x00003f82:    0081        ..      LSLS     r1,r0,#2
        0x00003f84:    6061        a`      STR      r1,[r4,#4]
        0x00003f86:    60a3        .`      STR      r3,[r4,#8]
        0x00003f88:    6125        %a      STR      r5,[r4,#0x10]
        0x00003f8a:    6921        !i      LDR      r1,[r4,#0x10]
        0x00003f8c:    2900        .)      CMP      r1,#0
        0x00003f8e:    d1fc        ..      BNE      0x3f8a ; SetupSecurityID + 38
        0x00003f90:    68a1        .h      LDR      r1,[r4,#8]
        0x00003f92:    1c40        @.      ADDS     r0,r0,#1
        0x00003f94:    c202        ..      STM      r2!,{r1}
        0x00003f96:    b2c0        ..      UXTB     r0,r0
        0x00003f98:    2803        .(      CMP      r0,#3
        0x00003f9a:    d3f1        ..      BCC      0x3f80 ; SetupSecurityID + 28
        0x00003f9c:    480c        .H      LDR      r0,[pc,#48] ; [0x3fd0] = 0x20000ce8
        0x00003f9e:    f7fefc6f    ..o.    BL       FMCReadUCID ; 0x2880
        0x00003fa2:    200c        .       MOVS     r0,#0xc
        0x00003fa4:    60e0        .`      STR      r0,[r4,#0xc]
        0x00003fa6:    6066        f`      STR      r6,[r4,#4]
        0x00003fa8:    6125        %a      STR      r5,[r4,#0x10]
        0x00003faa:    6920         i      LDR      r0,[r4,#0x10]
        0x00003fac:    07c0        ..      LSLS     r0,r0,#31
        0x00003fae:    d1fc        ..      BNE      0x3faa ; SetupSecurityID + 70
        0x00003fb0:    68a0        .h      LDR      r0,[r4,#8]
        0x00003fb2:    4908        .I      LDR      r1,[pc,#32] ; [0x3fd4] = 0x200006d8
        0x00003fb4:    6008        .`      STR      r0,[r1,#0]
        0x00003fb6:    f7fefc8b    ....    BL       FMC_Close ; 0x28d0
        0x00003fba:    f7fffd67    ..g.    BL       SYS_LockReg ; 0x3a8c
        0x00003fbe:    2000        .       MOVS     r0,#0
        0x00003fc0:    f3808810    ....    MSR      PRIMASK,r0
        0x00003fc4:    bd70        p.      POP      {r4-r6,pc}
    $d
        0x00003fc6:    0000        ..      DCW    0
        0x00003fc8:    20000cdc    ...     DCD    536874204
        0x00003fcc:    5000c000    ...P    DCD    1342226432
        0x00003fd0:    20000ce8    ...     DCD    536874216
        0x00003fd4:    200006d8    ...     DCD    536872664
    $t
    i.SysTick_Handler
    SysTick_Handler
        0x00003fd8:    b570        p.      PUSH     {r4-r6,lr}
        0x00003fda:    2400        .$      MOVS     r4,#0
        0x00003fdc:    4817        .H      LDR      r0,[pc,#92] ; [0x403c] = 0x50004040
        0x00003fde:    6880        .h      LDR      r0,[r0,#8]
        0x00003fe0:    0840        @.      LSRS     r0,r0,#1
        0x00003fe2:    0040        @.      LSLS     r0,r0,#1
        0x00003fe4:    4915        .I      LDR      r1,[pc,#84] ; [0x403c] = 0x50004040
        0x00003fe6:    6088        .`      STR      r0,[r1,#8]
        0x00003fe8:    217d        }!      MOVS     r1,#0x7d
        0x00003fea:    00c9        ..      LSLS     r1,r1,#3
        0x00003fec:    4814        .H      LDR      r0,[pc,#80] ; [0x4040] = 0x20000680
        0x00003fee:    6800        .h      LDR      r0,[r0,#0]
        0x00003ff0:    f7fcfa74    ..t.    BL       __aeabi_uidiv ; 0x4dc
        0x00003ff4:    2900        .)      CMP      r1,#0
        0x00003ff6:    d113        ..      BNE      0x4020 ; SysTick_Handler + 72
        0x00003ff8:    4812        .H      LDR      r0,[pc,#72] ; [0x4044] = 0x20000684
        0x00003ffa:    6800        .h      LDR      r0,[r0,#0]
        0x00003ffc:    4912        .I      LDR      r1,[pc,#72] ; [0x4048] = 0x2000069c
        0x00003ffe:    6809        .h      LDR      r1,[r1,#0]
        0x00004000:    1a44        D.      SUBS     r4,r0,r1
        0x00004002:    4620         F      MOV      r0,r4
        0x00004004:    f7fdfa3e    ..>.    BL       __aeabi_i2f ; 0x1484
        0x00004008:    4605        .F      MOV      r5,r0
        0x0000400a:    4629        )F      MOV      r1,r5
        0x0000400c:    207f        .       MOVS     r0,#0x7f
        0x0000400e:    05c0        ..      LSLS     r0,r0,#23
        0x00004010:    f7fdf926    ..&.    BL       __aeabi_fdiv ; 0x1260
        0x00004014:    490d        .I      LDR      r1,[pc,#52] ; [0x404c] = 0x2000067c
        0x00004016:    6008        .`      STR      r0,[r1,#0]
        0x00004018:    480a        .H      LDR      r0,[pc,#40] ; [0x4044] = 0x20000684
        0x0000401a:    6800        .h      LDR      r0,[r0,#0]
        0x0000401c:    490a        .I      LDR      r1,[pc,#40] ; [0x4048] = 0x2000069c
        0x0000401e:    6008        .`      STR      r0,[r1,#0]
        0x00004020:    4807        .H      LDR      r0,[pc,#28] ; [0x4040] = 0x20000680
        0x00004022:    6800        .h      LDR      r0,[r0,#0]
        0x00004024:    1c40        @.      ADDS     r0,r0,#1
        0x00004026:    4906        .I      LDR      r1,[pc,#24] ; [0x4040] = 0x20000680
        0x00004028:    6008        .`      STR      r0,[r1,#0]
        0x0000402a:    f001fc4b    ..K.    BL       nvtMillisecondTick ; 0x58c4
        0x0000402e:    4803        .H      LDR      r0,[pc,#12] ; [0x403c] = 0x50004040
        0x00004030:    6880        .h      LDR      r0,[r0,#8]
        0x00004032:    2101        .!      MOVS     r1,#1
        0x00004034:    4308        .C      ORRS     r0,r0,r1
        0x00004036:    4901        .I      LDR      r1,[pc,#4] ; [0x403c] = 0x50004040
        0x00004038:    6088        .`      STR      r0,[r1,#8]
        0x0000403a:    bd70        p.      POP      {r4-r6,pc}
    $d
        0x0000403c:    50004040    @@.P    DCD    1342193728
        0x00004040:    20000680    ...     DCD    536872576
        0x00004044:    20000684    ...     DCD    536872580
        0x00004048:    2000069c    ...     DCD    536872604
        0x0000404c:    2000067c    |..     DCD    536872572
    $t
    i.SystemCoreClockUpdate
    SystemCoreClockUpdate
        0x00004050:    b570        p.      PUSH     {r4-r6,lr}
        0x00004052:    4812        .H      LDR      r0,[pc,#72] ; [0x409c] = 0x50000200
        0x00004054:    6900        .i      LDR      r0,[r0,#0x10]
        0x00004056:    0740        @.      LSLS     r0,r0,#29
        0x00004058:    0ec0        ..      LSRS     r0,r0,#27
        0x0000405a:    4911        .I      LDR      r1,[pc,#68] ; [0x40a0] = 0x20000008
        0x0000405c:    580c        .X      LDR      r4,[r1,r0]
        0x0000405e:    4811        .H      LDR      r0,[pc,#68] ; [0x40a4] = 0x2ee0000
        0x00004060:    4284        .B      CMP      r4,r0
        0x00004062:    d107        ..      BNE      0x4074 ; SystemCoreClockUpdate + 36
        0x00004064:    480d        .H      LDR      r0,[pc,#52] ; [0x409c] = 0x50000200
        0x00004066:    6900        .i      LDR      r0,[r0,#0x10]
        0x00004068:    2140        @!      MOVS     r1,#0x40
        0x0000406a:    4008        .@      ANDS     r0,r0,r1
        0x0000406c:    0980        ..      LSRS     r0,r0,#6
        0x0000406e:    0080        ..      LSLS     r0,r0,#2
        0x00004070:    490d        .I      LDR      r1,[pc,#52] ; [0x40a8] = 0x20000014
        0x00004072:    580c        .X      LDR      r4,[r1,r0]
        0x00004074:    4809        .H      LDR      r0,[pc,#36] ; [0x409c] = 0x50000200
        0x00004076:    6980        .i      LDR      r0,[r0,#0x18]
        0x00004078:    0700        ..      LSLS     r0,r0,#28
        0x0000407a:    0f00        ..      LSRS     r0,r0,#28
        0x0000407c:    1c45        E.      ADDS     r5,r0,#1
        0x0000407e:    4629        )F      MOV      r1,r5
        0x00004080:    4620         F      MOV      r0,r4
        0x00004082:    f7fcfa2b    ..+.    BL       __aeabi_uidiv ; 0x4dc
        0x00004086:    4909        .I      LDR      r1,[pc,#36] ; [0x40ac] = 0x20000000
        0x00004088:    6008        .`      STR      r0,[r1,#0]
        0x0000408a:    4909        .I      LDR      r1,[pc,#36] ; [0x40b0] = 0xf4240
        0x0000408c:    4807        .H      LDR      r0,[pc,#28] ; [0x40ac] = 0x20000000
        0x0000408e:    6800        .h      LDR      r0,[r0,#0]
        0x00004090:    f7fcfa24    ..$.    BL       __aeabi_uidiv ; 0x4dc
        0x00004094:    4907        .I      LDR      r1,[pc,#28] ; [0x40b4] = 0x20000004
        0x00004096:    6008        .`      STR      r0,[r1,#0]
        0x00004098:    bd70        p.      POP      {r4-r6,pc}
    $d
        0x0000409a:    0000        ..      DCW    0
        0x0000409c:    50000200    ...P    DCD    1342177792
        0x000040a0:    20000008    ...     DCD    536870920
        0x000040a4:    02ee0000    ....    DCD    49152000
        0x000040a8:    20000014    ...     DCD    536870932
        0x000040ac:    20000000    ...     DCD    536870912
        0x000040b0:    000f4240    @B..    DCD    1000000
        0x000040b4:    20000004    ...     DCD    536870916
    $t
    i.TIMER_Init
    TIMER_Init
        0x000040b8:    2000        .       MOVS     r0,#0
        0x000040ba:    43c0        .C      MVNS     r0,r0
        0x000040bc:    06c2        ..      LSLS     r2,r0,#27
        0x000040be:    0ed2        ..      LSRS     r2,r2,#27
        0x000040c0:    2101        .!      MOVS     r1,#1
        0x000040c2:    4091        .@      LSLS     r1,r1,r2
        0x000040c4:    4a01        .J      LDR      r2,[pc,#4] ; [0x40cc] = 0xe000e100
        0x000040c6:    6011        .`      STR      r1,[r2,#0]
        0x000040c8:    bf00        ..      NOP      
        0x000040ca:    4770        pG      BX       lr
    $d
        0x000040cc:    e000e100    ....    DCD    3758153984
    $t
    i.TMR0_IRQHandler
    TMR0_IRQHandler
        0x000040d0:    b570        p.      PUSH     {r4-r6,lr}
        0x000040d2:    2400        .$      MOVS     r4,#0
        0x000040d4:    481a        .H      LDR      r0,[pc,#104] ; [0x4140] = 0x50004040
        0x000040d6:    6880        .h      LDR      r0,[r0,#8]
        0x000040d8:    0840        @.      LSRS     r0,r0,#1
        0x000040da:    0040        @.      LSLS     r0,r0,#1
        0x000040dc:    4918        .I      LDR      r1,[pc,#96] ; [0x4140] = 0x50004040
        0x000040de:    6088        .`      STR      r0,[r1,#8]
        0x000040e0:    bf00        ..      NOP      
        0x000040e2:    2001        .       MOVS     r0,#1
        0x000040e4:    4917        .I      LDR      r1,[pc,#92] ; [0x4144] = 0x40010000
        0x000040e6:    6088        .`      STR      r0,[r1,#8]
        0x000040e8:    bf00        ..      NOP      
        0x000040ea:    217d        }!      MOVS     r1,#0x7d
        0x000040ec:    00c9        ..      LSLS     r1,r1,#3
        0x000040ee:    4816        .H      LDR      r0,[pc,#88] ; [0x4148] = 0x20000680
        0x000040f0:    6800        .h      LDR      r0,[r0,#0]
        0x000040f2:    f7fcf9f3    ....    BL       __aeabi_uidiv ; 0x4dc
        0x000040f6:    2900        .)      CMP      r1,#0
        0x000040f8:    d113        ..      BNE      0x4122 ; TMR0_IRQHandler + 82
        0x000040fa:    4814        .H      LDR      r0,[pc,#80] ; [0x414c] = 0x20000684
        0x000040fc:    6800        .h      LDR      r0,[r0,#0]
        0x000040fe:    4914        .I      LDR      r1,[pc,#80] ; [0x4150] = 0x200006a0
        0x00004100:    6809        .h      LDR      r1,[r1,#0]
        0x00004102:    1a44        D.      SUBS     r4,r0,r1
        0x00004104:    4620         F      MOV      r0,r4
        0x00004106:    f7fdf9bd    ....    BL       __aeabi_i2f ; 0x1484
        0x0000410a:    4605        .F      MOV      r5,r0
        0x0000410c:    4629        )F      MOV      r1,r5
        0x0000410e:    207f        .       MOVS     r0,#0x7f
        0x00004110:    05c0        ..      LSLS     r0,r0,#23
        0x00004112:    f7fdf8a5    ....    BL       __aeabi_fdiv ; 0x1260
        0x00004116:    490f        .I      LDR      r1,[pc,#60] ; [0x4154] = 0x2000067c
        0x00004118:    6008        .`      STR      r0,[r1,#0]
        0x0000411a:    480c        .H      LDR      r0,[pc,#48] ; [0x414c] = 0x20000684
        0x0000411c:    6800        .h      LDR      r0,[r0,#0]
        0x0000411e:    490c        .I      LDR      r1,[pc,#48] ; [0x4150] = 0x200006a0
        0x00004120:    6008        .`      STR      r0,[r1,#0]
        0x00004122:    4809        .H      LDR      r0,[pc,#36] ; [0x4148] = 0x20000680
        0x00004124:    6800        .h      LDR      r0,[r0,#0]
        0x00004126:    1c40        @.      ADDS     r0,r0,#1
        0x00004128:    4907        .I      LDR      r1,[pc,#28] ; [0x4148] = 0x20000680
        0x0000412a:    6008        .`      STR      r0,[r1,#0]
        0x0000412c:    f001fbca    ....    BL       nvtMillisecondTick ; 0x58c4
        0x00004130:    4803        .H      LDR      r0,[pc,#12] ; [0x4140] = 0x50004040
        0x00004132:    6880        .h      LDR      r0,[r0,#8]
        0x00004134:    2101        .!      MOVS     r1,#1
        0x00004136:    4308        .C      ORRS     r0,r0,r1
        0x00004138:    4901        .I      LDR      r1,[pc,#4] ; [0x4140] = 0x50004040
        0x0000413a:    6088        .`      STR      r0,[r1,#8]
        0x0000413c:    bd70        p.      POP      {r4-r6,pc}
    $d
        0x0000413e:    0000        ..      DCW    0
        0x00004140:    50004040    @@.P    DCD    1342193728
        0x00004144:    40010000    ...@    DCD    1073807360
        0x00004148:    20000680    ...     DCD    536872576
        0x0000414c:    20000684    ...     DCD    536872580
        0x00004150:    200006a0    ...     DCD    536872608
        0x00004154:    2000067c    |..     DCD    536872572
    $t
    i.UART0_IRQHandler
    UART0_IRQHandler
        0x00004158:    b570        p.      PUSH     {r4-r6,lr}
        0x0000415a:    480d        .H      LDR      r0,[pc,#52] ; [0x4190] = 0x40050000
        0x0000415c:    69c5        .i      LDR      r5,[r0,#0x1c]
        0x0000415e:    69c0        .i      LDR      r0,[r0,#0x1c]
        0x00004160:    07c0        ..      LSLS     r0,r0,#31
        0x00004162:    0fc0        ..      LSRS     r0,r0,#31
        0x00004164:    4028        (@      ANDS     r0,r0,r5
        0x00004166:    2800        .(      CMP      r0,#0
        0x00004168:    d011        ..      BEQ      0x418e ; UART0_IRQHandler + 54
        0x0000416a:    2204        ."      MOVS     r2,#4
        0x0000416c:    4909        .I      LDR      r1,[pc,#36] ; [0x4194] = 0x20000057
        0x0000416e:    4808        .H      LDR      r0,[pc,#32] ; [0x4190] = 0x40050000
        0x00004170:    f000f880    ....    BL       UART_Read ; 0x4274
        0x00004174:    2400        .$      MOVS     r4,#0
        0x00004176:    e005        ..      B        0x4184 ; UART0_IRQHandler + 44
        0x00004178:    4806        .H      LDR      r0,[pc,#24] ; [0x4194] = 0x20000057
        0x0000417a:    5d00        .]      LDRB     r0,[r0,r4]
        0x0000417c:    4906        .I      LDR      r1,[pc,#24] ; [0x4198] = 0x2000005b
        0x0000417e:    5508        .U      STRB     r0,[r1,r4]
        0x00004180:    1c60        `.      ADDS     r0,r4,#1
        0x00004182:    b2c4        ..      UXTB     r4,r0
        0x00004184:    2c04        .,      CMP      r4,#4
        0x00004186:    dbf7        ..      BLT      0x4178 ; UART0_IRQHandler + 32
        0x00004188:    2001        .       MOVS     r0,#1
        0x0000418a:    4904        .I      LDR      r1,[pc,#16] ; [0x419c] = 0x2000005f
        0x0000418c:    7008        .p      STRB     r0,[r1,#0]
        0x0000418e:    bd70        p.      POP      {r4-r6,pc}
    $d
        0x00004190:    40050000    ...@    DCD    1074069504
        0x00004194:    20000057    W..     DCD    536870999
        0x00004198:    2000005b    [..     DCD    536871003
        0x0000419c:    2000005f    _..     DCD    536871007
    $t
    i.UART_Init
    UART_Init
        0x000041a0:    b510        ..      PUSH     {r4,lr}
        0x000041a2:    2005        .       MOVS     r0,#5
        0x000041a4:    0700        ..      LSLS     r0,r0,#28
        0x000041a6:    6b80        .k      LDR      r0,[r0,#0x38]
        0x000041a8:    2103        .!      MOVS     r1,#3
        0x000041aa:    0409        ..      LSLS     r1,r1,#16
        0x000041ac:    4388        .C      BICS     r0,r0,r1
        0x000041ae:    2101        .!      MOVS     r1,#1
        0x000041b0:    0409        ..      LSLS     r1,r1,#16
        0x000041b2:    1840        @.      ADDS     r0,r0,r1
        0x000041b4:    2105        .!      MOVS     r1,#5
        0x000041b6:    0709        ..      LSLS     r1,r1,#28
        0x000041b8:    6388        .c      STR      r0,[r1,#0x38]
        0x000041ba:    4608        .F      MOV      r0,r1
        0x000041bc:    6b80        .k      LDR      r0,[r0,#0x38]
        0x000041be:    2103        .!      MOVS     r1,#3
        0x000041c0:    0489        ..      LSLS     r1,r1,#18
        0x000041c2:    4388        .C      BICS     r0,r0,r1
        0x000041c4:    2101        .!      MOVS     r1,#1
        0x000041c6:    0489        ..      LSLS     r1,r1,#18
        0x000041c8:    1840        @.      ADDS     r0,r0,r1
        0x000041ca:    2105        .!      MOVS     r1,#5
        0x000041cc:    0709        ..      LSLS     r1,r1,#28
        0x000041ce:    6388        .c      STR      r0,[r1,#0x38]
        0x000041d0:    21e1        .!      MOVS     r1,#0xe1
        0x000041d2:    0249        I.      LSLS     r1,r1,#9
        0x000041d4:    480c        .H      LDR      r0,[pc,#48] ; [0x4208] = 0x40050000
        0x000041d6:    f000f819    ....    BL       UART_Open ; 0x420c
        0x000041da:    480b        .H      LDR      r0,[pc,#44] ; [0x4208] = 0x40050000
        0x000041dc:    6880        .h      LDR      r0,[r0,#8]
        0x000041de:    21f0        .!      MOVS     r1,#0xf0
        0x000041e0:    4388        .C      BICS     r0,r0,r1
        0x000041e2:    3010        .0      ADDS     r0,r0,#0x10
        0x000041e4:    4908        .I      LDR      r1,[pc,#32] ; [0x4208] = 0x40050000
        0x000041e6:    6088        .`      STR      r0,[r1,#8]
        0x000041e8:    4608        .F      MOV      r0,r1
        0x000041ea:    6840        @h      LDR      r0,[r0,#4]
        0x000041ec:    2101        .!      MOVS     r1,#1
        0x000041ee:    4308        .C      ORRS     r0,r0,r1
        0x000041f0:    4905        .I      LDR      r1,[pc,#20] ; [0x4208] = 0x40050000
        0x000041f2:    6048        H`      STR      r0,[r1,#4]
        0x000041f4:    4608        .F      MOV      r0,r1
        0x000041f6:    6880        .h      LDR      r0,[r0,#8]
        0x000041f8:    2102        .!      MOVS     r1,#2
        0x000041fa:    4308        .C      ORRS     r0,r0,r1
        0x000041fc:    4902        .I      LDR      r1,[pc,#8] ; [0x4208] = 0x40050000
        0x000041fe:    6088        .`      STR      r0,[r1,#8]
        0x00004200:    200c        .       MOVS     r0,#0xc
        0x00004202:    f7fffa51    ..Q.    BL       NVIC_EnableIRQ ; 0x36a8
        0x00004206:    bd10        ..      POP      {r4,pc}
    $d
        0x00004208:    40050000    ...@    DCD    1074069504
    $t
    i.UART_Open
    UART_Open
        0x0000420c:    b5f8        ..      PUSH     {r3-r7,lr}
        0x0000420e:    4604        .F      MOV      r4,r0
        0x00004210:    460d        .F      MOV      r5,r1
        0x00004212:    2000        .       MOVS     r0,#0
        0x00004214:    6320         c      STR      r0,[r4,#0x30]
        0x00004216:    2003        .       MOVS     r0,#3
        0x00004218:    60e0        .`      STR      r0,[r4,#0xc]
        0x0000421a:    2000        .       MOVS     r0,#0
        0x0000421c:    60a0        .`      STR      r0,[r4,#8]
        0x0000421e:    f7fdfe29    ..).    BL       CLK_GetHCLKFreq ; 0x1e74
        0x00004222:    9000        ..      STR      r0,[sp,#0]
        0x00004224:    4811        .H      LDR      r0,[pc,#68] ; [0x426c] = 0x50000200
        0x00004226:    6980        .i      LDR      r0,[r0,#0x18]
        0x00004228:    220f        ."      MOVS     r2,#0xf
        0x0000422a:    0212        ..      LSLS     r2,r2,#8
        0x0000422c:    4010        .@      ANDS     r0,r0,r2
        0x0000422e:    0a00        ..      LSRS     r0,r0,#8
        0x00004230:    1c41        A.      ADDS     r1,r0,#1
        0x00004232:    9800        ..      LDR      r0,[sp,#0]
        0x00004234:    f7fcf952    ..R.    BL       __aeabi_uidiv ; 0x4dc
        0x00004238:    4607        .F      MOV      r7,r0
        0x0000423a:    2d00        .-      CMP      r5,#0
        0x0000423c:    d015        ..      BEQ      0x426a ; UART_Open + 94
        0x0000423e:    0869        i.      LSRS     r1,r5,#1
        0x00004240:    19c8        ..      ADDS     r0,r1,r7
        0x00004242:    4629        )F      MOV      r1,r5
        0x00004244:    f7fcf94a    ..J.    BL       __aeabi_uidiv ; 0x4dc
        0x00004248:    1e86        ..      SUBS     r6,r0,#2
        0x0000424a:    4809        .H      LDR      r0,[pc,#36] ; [0x4270] = 0xffff
        0x0000424c:    4286        .B      CMP      r6,r0
        0x0000424e:    d908        ..      BLS      0x4262 ; UART_Open + 86
        0x00004250:    00e9        ..      LSLS     r1,r5,#3
        0x00004252:    19c8        ..      ADDS     r0,r1,r7
        0x00004254:    4629        )F      MOV      r1,r5
        0x00004256:    f7fcf941    ..A.    BL       __aeabi_uidiv ; 0x4dc
        0x0000425a:    0900        ..      LSRS     r0,r0,#4
        0x0000425c:    1e80        ..      SUBS     r0,r0,#2
        0x0000425e:    6260        `b      STR      r0,[r4,#0x24]
        0x00004260:    e003        ..      B        0x426a ; UART_Open + 94
        0x00004262:    2003        .       MOVS     r0,#3
        0x00004264:    0700        ..      LSLS     r0,r0,#28
        0x00004266:    4330        0C      ORRS     r0,r0,r6
        0x00004268:    6260        `b      STR      r0,[r4,#0x24]
        0x0000426a:    bdf8        ..      POP      {r3-r7,pc}
    $d
        0x0000426c:    50000200    ...P    DCD    1342177792
        0x00004270:    0000ffff    ....    DCD    65535
    $t
    i.UART_Read
    UART_Read
        0x00004274:    b530        0.      PUSH     {r4,r5,lr}
        0x00004276:    4603        .F      MOV      r3,r0
        0x00004278:    2000        .       MOVS     r0,#0
        0x0000427a:    e009        ..      B        0x4290 ; UART_Read + 28
        0x0000427c:    699c        .i      LDR      r4,[r3,#0x18]
        0x0000427e:    2501        .%      MOVS     r5,#1
        0x00004280:    03ad        ..      LSLS     r5,r5,#14
        0x00004282:    402c        ,@      ANDS     r4,r4,r5
        0x00004284:    2c00        .,      CMP      r4,#0
        0x00004286:    d000        ..      BEQ      0x428a ; UART_Read + 22
        0x00004288:    bd30        0.      POP      {r4,r5,pc}
        0x0000428a:    681c        .h      LDR      r4,[r3,#0]
        0x0000428c:    540c        .T      STRB     r4,[r1,r0]
        0x0000428e:    1c40        @.      ADDS     r0,r0,#1
        0x00004290:    4290        .B      CMP      r0,r2
        0x00004292:    d3f3        ..      BCC      0x427c ; UART_Read + 8
        0x00004294:    bf00        ..      NOP      
        0x00004296:    e7f7        ..      B        0x4288 ; UART_Read + 20
    i.UART_Write_Wecan
    UART_Write_Wecan
        0x00004298:    b570        p.      PUSH     {r4-r6,lr}
        0x0000429a:    4603        .F      MOV      r3,r0
        0x0000429c:    460c        .F      MOV      r4,r1
        0x0000429e:    2100        .!      MOVS     r1,#0
        0x000042a0:    e011        ..      B        0x42c6 ; UART_Write_Wecan + 46
        0x000042a2:    2500        .%      MOVS     r5,#0
        0x000042a4:    e006        ..      B        0x42b4 ; UART_Write_Wecan + 28
        0x000042a6:    1c6d        m.      ADDS     r5,r5,#1
        0x000042a8:    2001        .       MOVS     r0,#1
        0x000042aa:    0780        ..      LSLS     r0,r0,#30
        0x000042ac:    4285        .B      CMP      r5,r0
        0x000042ae:    d301        ..      BCC      0x42b4 ; UART_Write_Wecan + 28
        0x000042b0:    2000        .       MOVS     r0,#0
        0x000042b2:    bd70        p.      POP      {r4-r6,pc}
        0x000042b4:    6998        .i      LDR      r0,[r3,#0x18]
        0x000042b6:    2601        .&      MOVS     r6,#1
        0x000042b8:    0736        6.      LSLS     r6,r6,#28
        0x000042ba:    4030        0@      ANDS     r0,r0,r6
        0x000042bc:    2800        .(      CMP      r0,#0
        0x000042be:    d0f2        ..      BEQ      0x42a6 ; UART_Write_Wecan + 14
        0x000042c0:    5c60        `\      LDRB     r0,[r4,r1]
        0x000042c2:    6018        .`      STR      r0,[r3,#0]
        0x000042c4:    1c49        I.      ADDS     r1,r1,#1
        0x000042c6:    4291        .B      CMP      r1,r2
        0x000042c8:    d1eb        ..      BNE      0x42a2 ; UART_Write_Wecan + 10
        0x000042ca:    4608        .F      MOV      r0,r1
        0x000042cc:    e7f1        ..      B        0x42b2 ; UART_Write_Wecan + 26
        0x000042ce:    0000        ..      MOVS     r0,r0
    i.UpdateCalibrateInfoACC
    UpdateCalibrateInfoACC
        0x000042d0:    b510        ..      PUSH     {r4,lr}
        0x000042d2:    2001        .       MOVS     r0,#1
        0x000042d4:    f7fefbec    ....    BL       GetCalibrateParams ; 0x2ab0
        0x000042d8:    4908        .I      LDR      r1,[pc,#32] ; [0x42fc] = 0x20000808
        0x000042da:    6802        .h      LDR      r2,[r0,#0]
        0x000042dc:    600a        .`      STR      r2,[r1,#0]
        0x000042de:    6842        Bh      LDR      r2,[r0,#4]
        0x000042e0:    604a        J`      STR      r2,[r1,#4]
        0x000042e2:    6882        .h      LDR      r2,[r0,#8]
        0x000042e4:    608a        .`      STR      r2,[r1,#8]
        0x000042e6:    68c2        .h      LDR      r2,[r0,#0xc]
        0x000042e8:    60ca        .`      STR      r2,[r1,#0xc]
        0x000042ea:    6902        .i      LDR      r2,[r0,#0x10]
        0x000042ec:    610a        .a      STR      r2,[r1,#0x10]
        0x000042ee:    6940        @i      LDR      r0,[r0,#0x14]
        0x000042f0:    6148        Ha      STR      r0,[r1,#0x14]
        0x000042f2:    4903        .I      LDR      r1,[pc,#12] ; [0x4300] = 0x20000874
        0x000042f4:    2001        .       MOVS     r0,#1
        0x000042f6:    7008        .p      STRB     r0,[r1,#0]
        0x000042f8:    bd10        ..      POP      {r4,pc}
    $d
        0x000042fa:    0000        ..      DCW    0
        0x000042fc:    20000808    ...     DCD    536872968
        0x00004300:    20000874    t..     DCD    536873076
    $t
    i.__ARM_common_ll_muluu
    __ARM_common_ll_muluu
        0x00004304:    b4f0        ..      PUSH     {r4-r7}
        0x00004306:    0c04        ..      LSRS     r4,r0,#16
        0x00004308:    b28b        ..      UXTH     r3,r1
        0x0000430a:    4626        &F      MOV      r6,r4
        0x0000430c:    b282        ..      UXTH     r2,r0
        0x0000430e:    435e        ^C      MULS     r6,r3,r6
        0x00004310:    0c0d        ..      LSRS     r5,r1,#16
        0x00004312:    4610        .F      MOV      r0,r2
        0x00004314:    0c37        7.      LSRS     r7,r6,#16
        0x00004316:    4358        XC      MULS     r0,r3,r0
        0x00004318:    0436        6.      LSLS     r6,r6,#16
        0x0000431a:    1980        ..      ADDS     r0,r0,r6
        0x0000431c:    2100        .!      MOVS     r1,#0
        0x0000431e:    4179        yA      ADCS     r1,r1,r7
        0x00004320:    4616        .F      MOV      r6,r2
        0x00004322:    436e        nC      MULS     r6,r5,r6
        0x00004324:    0c37        7.      LSRS     r7,r6,#16
        0x00004326:    0436        6.      LSLS     r6,r6,#16
        0x00004328:    1980        ..      ADDS     r0,r0,r6
        0x0000432a:    4179        yA      ADCS     r1,r1,r7
        0x0000432c:    4626        &F      MOV      r6,r4
        0x0000432e:    436e        nC      MULS     r6,r5,r6
        0x00004330:    1989        ..      ADDS     r1,r1,r6
        0x00004332:    bcf0        ..      POP      {r4-r7}
        0x00004334:    4770        pG      BX       lr
        0x00004336:    0000        ..      MOVS     r0,r0
    i.__ARM_fpclassify
    __ARM_fpclassify
        0x00004338:    0049        I.      LSLS     r1,r1,#1
        0x0000433a:    02ca        ..      LSLS     r2,r1,#11
        0x0000433c:    4302        .C      ORRS     r2,r2,r0
        0x0000433e:    0010        ..      MOVS     r0,r2
        0x00004340:    d000        ..      BEQ      0x4344 ; __ARM_fpclassify + 12
        0x00004342:    2004        .       MOVS     r0,#4
        0x00004344:    0d4a        J.      LSRS     r2,r1,#21
        0x00004346:    d001        ..      BEQ      0x434c ; __ARM_fpclassify + 20
        0x00004348:    2201        ."      MOVS     r2,#1
        0x0000434a:    4310        .C      ORRS     r0,r0,r2
        0x0000434c:    4a04        .J      LDR      r2,[pc,#16] ; [0x4360] = 0x7ff
        0x0000434e:    0d49        I.      LSRS     r1,r1,#21
        0x00004350:    4291        .B      CMP      r1,r2
        0x00004352:    d101        ..      BNE      0x4358 ; __ARM_fpclassify + 32
        0x00004354:    2102        .!      MOVS     r1,#2
        0x00004356:    4308        .C      ORRS     r0,r0,r1
        0x00004358:    2801        .(      CMP      r0,#1
        0x0000435a:    d100        ..      BNE      0x435e ; __ARM_fpclassify + 38
        0x0000435c:    2005        .       MOVS     r0,#5
        0x0000435e:    4770        pG      BX       lr
    $d
        0x00004360:    000007ff    ....    DCD    2047
    $t
    i.__ieee754_rem_pio2
    __ieee754_rem_pio2
        0x00004364:    b5f7        ..      PUSH     {r0-r2,r4-r7,lr}
        0x00004366:    b096        ..      SUB      sp,sp,#0x58
        0x00004368:    9b18        ..      LDR      r3,[sp,#0x60]
        0x0000436a:    2100        .!      MOVS     r1,#0
        0x0000436c:    6099        .`      STR      r1,[r3,#8]
        0x0000436e:    60d9        .`      STR      r1,[r3,#0xc]
        0x00004370:    9917        ..      LDR      r1,[sp,#0x5c]
        0x00004372:    9108        ..      STR      r1,[sp,#0x20]
        0x00004374:    004c        L.      LSLS     r4,r1,#1
        0x00004376:    49cf        .I      LDR      r1,[pc,#828] ; [0x46b4] = 0x3fe921fb
        0x00004378:    0864        d.      LSRS     r4,r4,#1
        0x0000437a:    428c        .B      CMP      r4,r1
        0x0000437c:    dc06        ..      BGT      0x438c ; __ieee754_rem_pio2 + 40
        0x0000437e:    9a18        ..      LDR      r2,[sp,#0x60]
        0x00004380:    9917        ..      LDR      r1,[sp,#0x5c]
        0x00004382:    6051        Q`      STR      r1,[r2,#4]
        0x00004384:    6010        .`      STR      r0,[r2,#0]
        0x00004386:    2000        .       MOVS     r0,#0
        0x00004388:    b019        ..      ADD      sp,sp,#0x64
        0x0000438a:    bdf0        ..      POP      {r4-r7,pc}
        0x0000438c:    49ca        .I      LDR      r1,[pc,#808] ; [0x46b8] = 0x4002d97c
        0x0000438e:    2700        .'      MOVS     r7,#0
        0x00004390:    4dca        .M      LDR      r5,[pc,#808] ; [0x46bc] = 0x3ff921fb
        0x00004392:    43ff        .C      MVNS     r7,r7
        0x00004394:    428c        .B      CMP      r4,r1
        0x00004396:    da3b        ;.      BGE      0x4410 ; __ieee754_rem_pio2 + 172
        0x00004398:    26d3        .&      MOVS     r6,#0xd3
        0x0000439a:    9908        ..      LDR      r1,[sp,#0x20]
        0x0000439c:    0576        v.      LSLS     r6,r6,#21
        0x0000439e:    2900        .)      CMP      r1,#0
        0x000043a0:    4ac7        .J      LDR      r2,[pc,#796] ; [0x46c0] = 0x54400000
        0x000043a2:    9917        ..      LDR      r1,[sp,#0x5c]
        0x000043a4:    462b        +F      MOV      r3,r5
        0x000043a6:    dd19        ..      BLE      0x43dc ; __ieee754_rem_pio2 + 120
        0x000043a8:    f7fcfb55    ..U.    BL       __aeabi_dsub ; 0xa56
        0x000043ac:    42ac        .B      CMP      r4,r5
        0x000043ae:    d007        ..      BEQ      0x43c0 ; __ieee754_rem_pio2 + 92
        0x000043b0:    4ac4        .J      LDR      r2,[pc,#784] ; [0x46c4] = 0x1a626331
        0x000043b2:    4bc5        .K      LDR      r3,[pc,#788] ; [0x46c8] = 0x3dd0b461
        0x000043b4:    f7fcfb4f    ..O.    BL       __aeabi_dsub ; 0xa56
        0x000043b8:    9a18        ..      LDR      r2,[sp,#0x60]
        0x000043ba:    6051        Q`      STR      r1,[r2,#4]
        0x000043bc:    6010        .`      STR      r0,[r2,#0]
        0x000043be:    e00a        ..      B        0x43d6 ; __ieee754_rem_pio2 + 114
        0x000043c0:    4632        2F      MOV      r2,r6
        0x000043c2:    4bc1        .K      LDR      r3,[pc,#772] ; [0x46c8] = 0x3dd0b461
        0x000043c4:    f7fcfb47    ..G.    BL       __aeabi_dsub ; 0xa56
        0x000043c8:    4ac0        .J      LDR      r2,[pc,#768] ; [0x46cc] = 0x2e037073
        0x000043ca:    4bc1        .K      LDR      r3,[pc,#772] ; [0x46d0] = 0x3ba3198a
        0x000043cc:    f7fcfb43    ..C.    BL       __aeabi_dsub ; 0xa56
        0x000043d0:    9a18        ..      LDR      r2,[sp,#0x60]
        0x000043d2:    6051        Q`      STR      r1,[r2,#4]
        0x000043d4:    6010        .`      STR      r0,[r2,#0]
        0x000043d6:    2001        .       MOVS     r0,#1
        0x000043d8:    b019        ..      ADD      sp,sp,#0x64
        0x000043da:    bdf0        ..      POP      {r4-r7,pc}
        0x000043dc:    f7fcfb30    ..0.    BL       __aeabi_dadd ; 0xa40
        0x000043e0:    42ac        .B      CMP      r4,r5
        0x000043e2:    d007        ..      BEQ      0x43f4 ; __ieee754_rem_pio2 + 144
        0x000043e4:    4ab7        .J      LDR      r2,[pc,#732] ; [0x46c4] = 0x1a626331
        0x000043e6:    4bb8        .K      LDR      r3,[pc,#736] ; [0x46c8] = 0x3dd0b461
        0x000043e8:    f7fcfb2a    ..*.    BL       __aeabi_dadd ; 0xa40
        0x000043ec:    9a18        ..      LDR      r2,[sp,#0x60]
        0x000043ee:    6051        Q`      STR      r1,[r2,#4]
        0x000043f0:    6010        .`      STR      r0,[r2,#0]
        0x000043f2:    e00a        ..      B        0x440a ; __ieee754_rem_pio2 + 166
        0x000043f4:    4632        2F      MOV      r2,r6
        0x000043f6:    4bb4        .K      LDR      r3,[pc,#720] ; [0x46c8] = 0x3dd0b461
        0x000043f8:    f7fcfb22    ..".    BL       __aeabi_dadd ; 0xa40
        0x000043fc:    4ab3        .J      LDR      r2,[pc,#716] ; [0x46cc] = 0x2e037073
        0x000043fe:    4bb4        .K      LDR      r3,[pc,#720] ; [0x46d0] = 0x3ba3198a
        0x00004400:    f7fcfb1e    ....    BL       __aeabi_dadd ; 0xa40
        0x00004404:    9a18        ..      LDR      r2,[sp,#0x60]
        0x00004406:    6051        Q`      STR      r1,[r2,#4]
        0x00004408:    6010        .`      STR      r0,[r2,#0]
        0x0000440a:    4638        8F      MOV      r0,r7
        0x0000440c:    b019        ..      ADD      sp,sp,#0x64
        0x0000440e:    bdf0        ..      POP      {r4-r7,pc}
        0x00004410:    49b0        .I      LDR      r1,[pc,#704] ; [0x46d4] = 0x413921fb
        0x00004412:    428c        .B      CMP      r4,r1
        0x00004414:    9917        ..      LDR      r1,[sp,#0x5c]
        0x00004416:    dc7c        |.      BGT      0x4512 ; __ieee754_rem_pio2 + 430
        0x00004418:    0049        I.      LSLS     r1,r1,#1
        0x0000441a:    0849        I.      LSRS     r1,r1,#1
        0x0000441c:    4607        .F      MOV      r7,r0
        0x0000441e:    4aae        .J      LDR      r2,[pc,#696] ; [0x46d8] = 0x6dc9c883
        0x00004420:    4bae        .K      LDR      r3,[pc,#696] ; [0x46dc] = 0x3fe45f30
        0x00004422:    9103        ..      STR      r1,[sp,#0xc]
        0x00004424:    f7fcfdbe    ....    BL       __aeabi_dmul ; 0xfa4
        0x00004428:    2200        ."      MOVS     r2,#0
        0x0000442a:    4bad        .K      LDR      r3,[pc,#692] ; [0x46e0] = 0x3fe00000
        0x0000442c:    f7fcfb08    ....    BL       __aeabi_dadd ; 0xa40
        0x00004430:    f7fcfd56    ..V.    BL       __aeabi_d2iz ; 0xee0
        0x00004434:    9009        ..      STR      r0,[sp,#0x24]
        0x00004436:    f7fcfdaa    ....    BL       __aeabi_i2d ; 0xf8e
        0x0000443a:    4606        .F      MOV      r6,r0
        0x0000443c:    4aa0        .J      LDR      r2,[pc,#640] ; [0x46c0] = 0x54400000
        0x0000443e:    462b        +F      MOV      r3,r5
        0x00004440:    9107        ..      STR      r1,[sp,#0x1c]
        0x00004442:    f7fcfdaf    ....    BL       __aeabi_dmul ; 0xfa4
        0x00004446:    463a        :F      MOV      r2,r7
        0x00004448:    9b03        ..      LDR      r3,[sp,#0xc]
        0x0000444a:    f7fcfb0f    ....    BL       __aeabi_drsub ; 0xa6c
        0x0000444e:    4605        .F      MOV      r5,r0
        0x00004450:    460f        .F      MOV      r7,r1
        0x00004452:    4a9c        .J      LDR      r2,[pc,#624] ; [0x46c4] = 0x1a626331
        0x00004454:    4b9c        .K      LDR      r3,[pc,#624] ; [0x46c8] = 0x3dd0b461
        0x00004456:    4630        0F      MOV      r0,r6
        0x00004458:    9907        ..      LDR      r1,[sp,#0x1c]
        0x0000445a:    f7fcfda3    ....    BL       __aeabi_dmul ; 0xfa4
        0x0000445e:    0d22        ".      LSRS     r2,r4,#20
        0x00004460:    2401        .$      MOVS     r4,#1
        0x00004462:    920b        ..      STR      r2,[sp,#0x2c]
        0x00004464:    462a        *F      MOV      r2,r5
        0x00004466:    463b        ;F      MOV      r3,r7
        0x00004468:    f7fcfb00    ....    BL       __aeabi_drsub ; 0xa6c
        0x0000446c:    9a18        ..      LDR      r2,[sp,#0x60]
        0x0000446e:    2c03        .,      CMP      r4,#3
        0x00004470:    6051        Q`      STR      r1,[r2,#4]
        0x00004472:    6010        .`      STR      r0,[r2,#0]
        0x00004474:    d039        9.      BEQ      0x44ea ; __ieee754_rem_pio2 + 390
        0x00004476:    9818        ..      LDR      r0,[sp,#0x60]
        0x00004478:    6840        @h      LDR      r0,[r0,#4]
        0x0000447a:    0040        @.      LSLS     r0,r0,#1
        0x0000447c:    0d41        A.      LSRS     r1,r0,#21
        0x0000447e:    980b        ..      LDR      r0,[sp,#0x2c]
        0x00004480:    1a40        @.      SUBS     r0,r0,r1
        0x00004482:    0161        a.      LSLS     r1,r4,#5
        0x00004484:    1861        a.      ADDS     r1,r4,r1
        0x00004486:    3911        .9      SUBS     r1,r1,#0x11
        0x00004488:    4281        .B      CMP      r1,r0
        0x0000448a:    da2e        ..      BGE      0x44ea ; __ieee754_rem_pio2 + 390
        0x0000448c:    4995        .I      LDR      r1,[pc,#596] ; [0x46e4] = 0x2b74
        0x0000448e:    0120         .      LSLS     r0,r4,#4
        0x00004490:    4479        yD      ADD      r1,r1,pc
        0x00004492:    9502        ..      STR      r5,[sp,#8]
        0x00004494:    900c        ..      STR      r0,[sp,#0x30]
        0x00004496:    1808        ..      ADDS     r0,r1,r0
        0x00004498:    9703        ..      STR      r7,[sp,#0xc]
        0x0000449a:    6843        Ch      LDR      r3,[r0,#4]
        0x0000449c:    6802        .h      LDR      r2,[r0,#0]
        0x0000449e:    4630        0F      MOV      r0,r6
        0x000044a0:    9907        ..      LDR      r1,[sp,#0x1c]
        0x000044a2:    f7fcfd7f    ....    BL       __aeabi_dmul ; 0xfa4
        0x000044a6:    9101        ..      STR      r1,[sp,#4]
        0x000044a8:    9000        ..      STR      r0,[sp,#0]
        0x000044aa:    9b03        ..      LDR      r3,[sp,#0xc]
        0x000044ac:    9a02        ..      LDR      r2,[sp,#8]
        0x000044ae:    f7fcfadd    ....    BL       __aeabi_drsub ; 0xa6c
        0x000044b2:    4605        .F      MOV      r5,r0
        0x000044b4:    460f        .F      MOV      r7,r1
        0x000044b6:    9b03        ..      LDR      r3,[sp,#0xc]
        0x000044b8:    9a02        ..      LDR      r2,[sp,#8]
        0x000044ba:    f7fcfad7    ....    BL       __aeabi_drsub ; 0xa6c
        0x000044be:    9b01        ..      LDR      r3,[sp,#4]
        0x000044c0:    9a00        ..      LDR      r2,[sp,#0]
        0x000044c2:    f7fcfac8    ....    BL       __aeabi_dsub ; 0xa56
        0x000044c6:    9101        ..      STR      r1,[sp,#4]
        0x000044c8:    4987        .I      LDR      r1,[pc,#540] ; [0x46e8] = 0x2b38
        0x000044ca:    9000        ..      STR      r0,[sp,#0]
        0x000044cc:    4479        yD      ADD      r1,r1,pc
        0x000044ce:    980c        ..      LDR      r0,[sp,#0x30]
        0x000044d0:    1840        @.      ADDS     r0,r0,r1
        0x000044d2:    68c3        .h      LDR      r3,[r0,#0xc]
        0x000044d4:    6882        .h      LDR      r2,[r0,#8]
        0x000044d6:    4630        0F      MOV      r0,r6
        0x000044d8:    9907        ..      LDR      r1,[sp,#0x1c]
        0x000044da:    f7fcfd63    ..c.    BL       __aeabi_dmul ; 0xfa4
        0x000044de:    9b01        ..      LDR      r3,[sp,#4]
        0x000044e0:    9a00        ..      LDR      r2,[sp,#0]
        0x000044e2:    f7fcfab8    ....    BL       __aeabi_dsub ; 0xa56
        0x000044e6:    1c64        d.      ADDS     r4,r4,#1
        0x000044e8:    e7bc        ..      B        0x4464 ; __ieee754_rem_pio2 + 256
        0x000044ea:    9808        ..      LDR      r0,[sp,#0x20]
        0x000044ec:    2800        .(      CMP      r0,#0
        0x000044ee:    da0d        ..      BGE      0x450c ; __ieee754_rem_pio2 + 424
        0x000044f0:    9918        ..      LDR      r1,[sp,#0x60]
        0x000044f2:    2201        ."      MOVS     r2,#1
        0x000044f4:    6808        .h      LDR      r0,[r1,#0]
        0x000044f6:    6849        Ih      LDR      r1,[r1,#4]
        0x000044f8:    07d2        ..      LSLS     r2,r2,#31
        0x000044fa:    4051        Q@      EORS     r1,r1,r2
        0x000044fc:    9a18        ..      LDR      r2,[sp,#0x60]
        0x000044fe:    6051        Q`      STR      r1,[r2,#4]
        0x00004500:    6010        .`      STR      r0,[r2,#0]
        0x00004502:    9809        ..      LDR      r0,[sp,#0x24]
        0x00004504:    b019        ..      ADD      sp,sp,#0x64
        0x00004506:    4240        @B      RSBS     r0,r0,#0
        0x00004508:    bdf0        ..      POP      {r4-r7,pc}
        0x0000450a:    e002        ..      B        0x4512 ; __ieee754_rem_pio2 + 430
        0x0000450c:    9809        ..      LDR      r0,[sp,#0x24]
        0x0000450e:    b019        ..      ADD      sp,sp,#0x64
        0x00004510:    bdf0        ..      POP      {r4-r7,pc}
        0x00004512:    0309        ..      LSLS     r1,r1,#12
        0x00004514:    2201        ."      MOVS     r2,#1
        0x00004516:    0b09        ..      LSRS     r1,r1,#12
        0x00004518:    0512        ..      LSLS     r2,r2,#20
        0x0000451a:    900d        ..      STR      r0,[sp,#0x34]
        0x0000451c:    1889        ..      ADDS     r1,r1,r2
        0x0000451e:    9817        ..      LDR      r0,[sp,#0x5c]
        0x00004520:    9110        ..      STR      r1,[sp,#0x40]
        0x00004522:    0040        @.      LSLS     r0,r0,#1
        0x00004524:    4971        qI      LDR      r1,[pc,#452] ; [0x46ec] = 0xfffffc0b
        0x00004526:    0d40        @.      LSRS     r0,r0,#21
        0x00004528:    1840        @.      ADDS     r0,r0,r1
        0x0000452a:    1141        A.      ASRS     r1,r0,#5
        0x0000452c:    06c0        ..      LSLS     r0,r0,#27
        0x0000452e:    0ec0        ..      LSRS     r0,r0,#27
        0x00004530:    2220         "      MOVS     r2,#0x20
        0x00004532:    9012        ..      STR      r0,[sp,#0x48]
        0x00004534:    1a10        ..      SUBS     r0,r2,r0
        0x00004536:    9013        ..      STR      r0,[sp,#0x4c]
        0x00004538:    2000        .       MOVS     r0,#0
        0x0000453a:    9006        ..      STR      r0,[sp,#0x18]
        0x0000453c:    9007        ..      STR      r0,[sp,#0x1c]
        0x0000453e:    0088        ..      LSLS     r0,r1,#2
        0x00004540:    496b        kI      LDR      r1,[pc,#428] ; [0x46f0] = 0x2af2
        0x00004542:    4479        yD      ADD      r1,r1,pc
        0x00004544:    1845        E.      ADDS     r5,r0,r1
        0x00004546:    2006        .       MOVS     r0,#6
        0x00004548:    ac07        ..      ADD      r4,sp,#0x1c
        0x0000454a:    3514        .5      ADDS     r5,r5,#0x14
        0x0000454c:    9015        ..      STR      r0,[sp,#0x54]
        0x0000454e:    682f        /h      LDR      r7,[r5,#0]
        0x00004550:    9812        ..      LDR      r0,[sp,#0x48]
        0x00004552:    6869        ih      LDR      r1,[r5,#4]
        0x00004554:    4087        .@      LSLS     r7,r7,r0
        0x00004556:    9813        ..      LDR      r0,[sp,#0x4c]
        0x00004558:    40c1        .@      LSRS     r1,r1,r0
        0x0000455a:    430f        .C      ORRS     r7,r7,r1
        0x0000455c:    4638        8F      MOV      r0,r7
        0x0000455e:    9910        ..      LDR      r1,[sp,#0x40]
        0x00004560:    f7fffed0    ....    BL       __ARM_common_ll_muluu ; 0x4304
        0x00004564:    4606        .F      MOV      r6,r0
        0x00004566:    9111        ..      STR      r1,[sp,#0x44]
        0x00004568:    4638        8F      MOV      r0,r7
        0x0000456a:    990d        ..      LDR      r1,[sp,#0x34]
        0x0000456c:    f7fffeca    ....    BL       __ARM_common_ll_muluu ; 0x4304
        0x00004570:    6823        #h      LDR      r3,[r4,#0]
        0x00004572:    198a        ..      ADDS     r2,r1,r6
        0x00004574:    181b        ..      ADDS     r3,r3,r0
        0x00004576:    469c        .F      MOV      r12,r3
        0x00004578:    4283        .B      CMP      r3,r0
        0x0000457a:    d201        ..      BCS      0x4580 ; __ieee754_rem_pio2 + 540
        0x0000457c:    2601        .&      MOVS     r6,#1
        0x0000457e:    e000        ..      B        0x4582 ; __ieee754_rem_pio2 + 542
        0x00004580:    2600        .&      MOVS     r6,#0
        0x00004582:    4620         F      MOV      r0,r4
        0x00004584:    3880        .8      SUBS     r0,r0,#0x80
        0x00004586:    6fc3        .o      LDR      r3,[r0,#0x7c]
        0x00004588:    1997        ..      ADDS     r7,r2,r6
        0x0000458a:    19db        ..      ADDS     r3,r3,r7
        0x0000458c:    428a        .B      CMP      r2,r1
        0x0000458e:    d201        ..      BCS      0x4594 ; __ieee754_rem_pio2 + 560
        0x00004590:    2701        .'      MOVS     r7,#1
        0x00004592:    e000        ..      B        0x4596 ; __ieee754_rem_pio2 + 562
        0x00004594:    2700        .'      MOVS     r7,#0
        0x00004596:    9911        ..      LDR      r1,[sp,#0x44]
        0x00004598:    1879        y.      ADDS     r1,r7,r1
        0x0000459a:    2e00        ..      CMP      r6,#0
        0x0000459c:    d002        ..      BEQ      0x45a4 ; __ieee754_rem_pio2 + 576
        0x0000459e:    4293        .B      CMP      r3,r2
        0x000045a0:    d902        ..      BLS      0x45a8 ; __ieee754_rem_pio2 + 580
        0x000045a2:    e003        ..      B        0x45ac ; __ieee754_rem_pio2 + 584
        0x000045a4:    4293        .B      CMP      r3,r2
        0x000045a6:    d201        ..      BCS      0x45ac ; __ieee754_rem_pio2 + 584
        0x000045a8:    2201        ."      MOVS     r2,#1
        0x000045aa:    e000        ..      B        0x45ae ; __ieee754_rem_pio2 + 586
        0x000045ac:    2200        ."      MOVS     r2,#0
        0x000045ae:    1889        ..      ADDS     r1,r1,r2
        0x000045b0:    4662        bF      MOV      r2,r12
        0x000045b2:    6022        "`      STR      r2,[r4,#0]
        0x000045b4:    67c3        .g      STR      r3,[r0,#0x7c]
        0x000045b6:    6781        .g      STR      r1,[r0,#0x78]
        0x000045b8:    9815        ..      LDR      r0,[sp,#0x54]
        0x000045ba:    1f24        $.      SUBS     r4,r4,#4
        0x000045bc:    1e40        @.      SUBS     r0,r0,#1
        0x000045be:    1f2d        -.      SUBS     r5,r5,#4
        0x000045c0:    9015        ..      STR      r0,[sp,#0x54]
        0x000045c2:    2800        .(      CMP      r0,#0
        0x000045c4:    d1c3        ..      BNE      0x454e ; __ieee754_rem_pio2 + 490
        0x000045c6:    2101        .!      MOVS     r1,#1
        0x000045c8:    9802        ..      LDR      r0,[sp,#8]
        0x000045ca:    0749        I.      LSLS     r1,r1,#29
        0x000045cc:    1840        @.      ADDS     r0,r0,r1
        0x000045ce:    0f80        ..      LSRS     r0,r0,#30
        0x000045d0:    9011        ..      STR      r0,[sp,#0x44]
        0x000045d2:    9802        ..      LDR      r0,[sp,#8]
        0x000045d4:    9905        ..      LDR      r1,[sp,#0x14]
        0x000045d6:    0080        ..      LSLS     r0,r0,#2
        0x000045d8:    9d03        ..      LDR      r5,[sp,#0xc]
        0x000045da:    9c04        ..      LDR      r4,[sp,#0x10]
        0x000045dc:    910b        ..      STR      r1,[sp,#0x2c]
        0x000045de:    f7fcfcd6    ....    BL       __aeabi_i2d ; 0xf8e
        0x000045e2:    4606        .F      MOV      r6,r0
        0x000045e4:    460f        .F      MOV      r7,r1
        0x000045e6:    4628        (F      MOV      r0,r5
        0x000045e8:    f7fcfcd9    ....    BL       __aeabi_ui2d ; 0xf9e
        0x000045ec:    221d        ."      MOVS     r2,#0x1d
        0x000045ee:    43d2        .C      MVNS     r2,r2
        0x000045f0:    f7fdf868    ..h.    BL       __ARM_scalbn ; 0x16c4
        0x000045f4:    900a        ..      STR      r0,[sp,#0x28]
        0x000045f6:    910e        ..      STR      r1,[sp,#0x38]
        0x000045f8:    4620         F      MOV      r0,r4
        0x000045fa:    f7fcfcd0    ....    BL       __aeabi_ui2d ; 0xf9e
        0x000045fe:    223d        ="      MOVS     r2,#0x3d
        0x00004600:    43d2        .C      MVNS     r2,r2
        0x00004602:    f7fdf85f    .._.    BL       __ARM_scalbn ; 0x16c4
        0x00004606:    9012        ..      STR      r0,[sp,#0x48]
        0x00004608:    9109        ..      STR      r1,[sp,#0x24]
        0x0000460a:    980b        ..      LDR      r0,[sp,#0x2c]
        0x0000460c:    f7fcfcc7    ....    BL       __aeabi_ui2d ; 0xf9e
        0x00004610:    225d        ]"      MOVS     r2,#0x5d
        0x00004612:    43d2        .C      MVNS     r2,r2
        0x00004614:    f7fdf856    ..V.    BL       __ARM_scalbn ; 0x16c4
        0x00004618:    910d        ..      STR      r1,[sp,#0x34]
        0x0000461a:    9008        ..      STR      r0,[sp,#0x20]
        0x0000461c:    9b09        ..      LDR      r3,[sp,#0x24]
        0x0000461e:    9a12        ..      LDR      r2,[sp,#0x48]
        0x00004620:    f7fcfa0e    ....    BL       __aeabi_dadd ; 0xa40
        0x00004624:    9b0e        ..      LDR      r3,[sp,#0x38]
        0x00004626:    9a0a        ..      LDR      r2,[sp,#0x28]
        0x00004628:    f7fcfa0a    ....    BL       __aeabi_dadd ; 0xa40
        0x0000462c:    4632        2F      MOV      r2,r6
        0x0000462e:    463b        ;F      MOV      r3,r7
        0x00004630:    f7fcfa06    ....    BL       __aeabi_dadd ; 0xa40
        0x00004634:    2400        .$      MOVS     r4,#0
        0x00004636:    460d        .F      MOV      r5,r1
        0x00004638:    4632        2F      MOV      r2,r6
        0x0000463a:    463b        ;F      MOV      r3,r7
        0x0000463c:    4620         F      MOV      r0,r4
        0x0000463e:    f7fcfa0a    ....    BL       __aeabi_dsub ; 0xa56
        0x00004642:    9b0e        ..      LDR      r3,[sp,#0x38]
        0x00004644:    9a0a        ..      LDR      r2,[sp,#0x28]
        0x00004646:    f7fcfa06    ....    BL       __aeabi_dsub ; 0xa56
        0x0000464a:    9b09        ..      LDR      r3,[sp,#0x24]
        0x0000464c:    9a12        ..      LDR      r2,[sp,#0x48]
        0x0000464e:    f7fcfa02    ....    BL       __aeabi_dsub ; 0xa56
        0x00004652:    9b0d        ..      LDR      r3,[sp,#0x34]
        0x00004654:    9a08        ..      LDR      r2,[sp,#0x20]
        0x00004656:    f7fcfa09    ....    BL       __aeabi_drsub ; 0xa6c
        0x0000465a:    4a26        &J      LDR      r2,[pc,#152] ; [0x46f4] = 0x54442d18
        0x0000465c:    4b26        &K      LDR      r3,[pc,#152] ; [0x46f8] = 0x3df921fb
        0x0000465e:    f7fcfca1    ....    BL       __aeabi_dmul ; 0xfa4
        0x00004662:    4606        .F      MOV      r6,r0
        0x00004664:    460f        .F      MOV      r7,r1
        0x00004666:    4a25        %J      LDR      r2,[pc,#148] ; [0x46fc] = 0x11a62633
        0x00004668:    4b25        %K      LDR      r3,[pc,#148] ; [0x4700] = 0x3c110b46
        0x0000466a:    4629        )F      MOV      r1,r5
        0x0000466c:    4620         F      MOV      r0,r4
        0x0000466e:    f7fcfc99    ....    BL       __aeabi_dmul ; 0xfa4
        0x00004672:    4632        2F      MOV      r2,r6
        0x00004674:    463b        ;F      MOV      r3,r7
        0x00004676:    f7fcf9e3    ....    BL       __aeabi_dadd ; 0xa40
        0x0000467a:    4606        .F      MOV      r6,r0
        0x0000467c:    460f        .F      MOV      r7,r1
        0x0000467e:    2215        ."      MOVS     r2,#0x15
        0x00004680:    0692        ..      LSLS     r2,r2,#26
        0x00004682:    4b1d        .K      LDR      r3,[pc,#116] ; [0x46f8] = 0x3df921fb
        0x00004684:    4629        )F      MOV      r1,r5
        0x00004686:    4620         F      MOV      r0,r4
        0x00004688:    f7fcfc8c    ....    BL       __aeabi_dmul ; 0xfa4
        0x0000468c:    463b        ;F      MOV      r3,r7
        0x0000468e:    4632        2F      MOV      r2,r6
        0x00004690:    f7fcf9d6    ....    BL       __aeabi_dadd ; 0xa40
        0x00004694:    9a17        ..      LDR      r2,[sp,#0x5c]
        0x00004696:    2a00        .*      CMP      r2,#0
        0x00004698:    da05        ..      BGE      0x46a6 ; __ieee754_rem_pio2 + 834
        0x0000469a:    9a11        ..      LDR      r2,[sp,#0x44]
        0x0000469c:    4252        RB      RSBS     r2,r2,#0
        0x0000469e:    9211        ..      STR      r2,[sp,#0x44]
        0x000046a0:    2201        ."      MOVS     r2,#1
        0x000046a2:    07d2        ..      LSLS     r2,r2,#31
        0x000046a4:    4051        Q@      EORS     r1,r1,r2
        0x000046a6:    9a18        ..      LDR      r2,[sp,#0x60]
        0x000046a8:    6051        Q`      STR      r1,[r2,#4]
        0x000046aa:    6010        .`      STR      r0,[r2,#0]
        0x000046ac:    9811        ..      LDR      r0,[sp,#0x44]
        0x000046ae:    b019        ..      ADD      sp,sp,#0x64
        0x000046b0:    bdf0        ..      POP      {r4-r7,pc}
    $d
        0x000046b2:    0000        ..      DCW    0
        0x000046b4:    3fe921fb    .!.?    DCD    1072243195
        0x000046b8:    4002d97c    |..@    DCD    1073928572
        0x000046bc:    3ff921fb    .!.?    DCD    1073291771
        0x000046c0:    54400000    ..@T    DCD    1413480448
        0x000046c4:    1a626331    1cb.    DCD    442655537
        0x000046c8:    3dd0b461    a..=    DCD    1037087841
        0x000046cc:    2e037073    sp..    DCD    771977331
        0x000046d0:    3ba3198a    ...;    DCD    1000544650
        0x000046d4:    413921fb    .!9A    DCD    1094263291
        0x000046d8:    6dc9c883    ...m    DCD    1841940611
        0x000046dc:    3fe45f30    0_.?    DCD    1071931184
        0x000046e0:    3fe00000    ...?    DCD    1071644672
        0x000046e4:    00002b74    t+..    DCD    11124
        0x000046e8:    00002b38    8+..    DCD    11064
        0x000046ec:    fffffc0b    ....    DCD    4294966283
        0x000046f0:    00002af2    .*..    DCD    10994
        0x000046f4:    54442d18    .-DT    DCD    1413754136
        0x000046f8:    3df921fb    .!.=    DCD    1039737339
        0x000046fc:    11a62633    3&..    DCD    296101427
        0x00004700:    3c110b46    F..<    DCD    1007749958
    $t
    i.__kernel_cos
    __kernel_cos
        0x00004704:    b5f0        ..      PUSH     {r4-r7,lr}
        0x00004706:    b41f        ..      PUSH     {r0-r4}
        0x00004708:    004e        N.      LSLS     r6,r1,#1
        0x0000470a:    20f9        .       MOVS     r0,#0xf9
        0x0000470c:    0876        v.      LSRS     r6,r6,#1
        0x0000470e:    0580        ..      LSLS     r0,r0,#22
        0x00004710:    b084        ..      SUB      sp,sp,#0x10
        0x00004712:    460f        .F      MOV      r7,r1
        0x00004714:    4286        .B      CMP      r6,r0
        0x00004716:    da04        ..      BGE      0x4722 ; __kernel_cos + 30
        0x00004718:    9804        ..      LDR      r0,[sp,#0x10]
        0x0000471a:    f7fcfbe1    ....    BL       __aeabi_d2iz ; 0xee0
        0x0000471e:    2800        .(      CMP      r0,#0
        0x00004720:    d038        8.      BEQ      0x4794 ; __kernel_cos + 144
        0x00004722:    9a04        ..      LDR      r2,[sp,#0x10]
        0x00004724:    463b        ;F      MOV      r3,r7
        0x00004726:    4610        .F      MOV      r0,r2
        0x00004728:    4619        .F      MOV      r1,r3
        0x0000472a:    f7fcfc3b    ..;.    BL       __aeabi_dmul ; 0xfa4
        0x0000472e:    4604        .F      MOV      r4,r0
        0x00004730:    4602        .F      MOV      r2,r0
        0x00004732:    482c        ,H      LDR      r0,[pc,#176] ; [0x47e4] = 0x2892
        0x00004734:    460d        .F      MOV      r5,r1
        0x00004736:    460b        .F      MOV      r3,r1
        0x00004738:    2106        .!      MOVS     r1,#6
        0x0000473a:    4478        xD      ADD      r0,r0,pc
        0x0000473c:    f000f85c    ..\.    BL       __kernel_poly ; 0x47f8
        0x00004740:    4622        "F      MOV      r2,r4
        0x00004742:    462b        +F      MOV      r3,r5
        0x00004744:    f7fcfc2e    ....    BL       __aeabi_dmul ; 0xfa4
        0x00004748:    9101        ..      STR      r1,[sp,#4]
        0x0000474a:    9000        ..      STR      r0,[sp,#0]
        0x0000474c:    4639        9F      MOV      r1,r7
        0x0000474e:    9b07        ..      LDR      r3,[sp,#0x1c]
        0x00004750:    9a06        ..      LDR      r2,[sp,#0x18]
        0x00004752:    9804        ..      LDR      r0,[sp,#0x10]
        0x00004754:    f7fcfc26    ..&.    BL       __aeabi_dmul ; 0xfa4
        0x00004758:    4607        .F      MOV      r7,r0
        0x0000475a:    9102        ..      STR      r1,[sp,#8]
        0x0000475c:    4620         F      MOV      r0,r4
        0x0000475e:    4629        )F      MOV      r1,r5
        0x00004760:    9b01        ..      LDR      r3,[sp,#4]
        0x00004762:    9a00        ..      LDR      r2,[sp,#0]
        0x00004764:    f7fcfc1e    ....    BL       __aeabi_dmul ; 0xfa4
        0x00004768:    463a        :F      MOV      r2,r7
        0x0000476a:    9b02        ..      LDR      r3,[sp,#8]
        0x0000476c:    f7fcf973    ..s.    BL       __aeabi_dsub ; 0xa56
        0x00004770:    4607        .F      MOV      r7,r0
        0x00004772:    2200        ."      MOVS     r2,#0
        0x00004774:    9100        ..      STR      r1,[sp,#0]
        0x00004776:    43d2        .C      MVNS     r2,r2
        0x00004778:    4620         F      MOV      r0,r4
        0x0000477a:    4629        )F      MOV      r1,r5
        0x0000477c:    f7fcffa2    ....    BL       __ARM_scalbn ; 0x16c4
        0x00004780:    4a19        .J      LDR      r2,[pc,#100] ; [0x47e8] = 0x3fd33333
        0x00004782:    4296        .B      CMP      r6,r2
        0x00004784:    da0a        ..      BGE      0x479c ; __kernel_cos + 152
        0x00004786:    463a        :F      MOV      r2,r7
        0x00004788:    9b00        ..      LDR      r3,[sp,#0]
        0x0000478a:    f7fcf964    ..d.    BL       __aeabi_dsub ; 0xa56
        0x0000478e:    2200        ."      MOVS     r2,#0
        0x00004790:    4b16        .K      LDR      r3,[pc,#88] ; [0x47ec] = 0x3ff00000
        0x00004792:    e023        #.      B        0x47dc ; __kernel_cos + 216
        0x00004794:    2000        .       MOVS     r0,#0
        0x00004796:    4915        .I      LDR      r1,[pc,#84] ; [0x47ec] = 0x3ff00000
        0x00004798:    b009        ..      ADD      sp,sp,#0x24
        0x0000479a:    bdf0        ..      POP      {r4-r7,pc}
        0x0000479c:    4a14        .J      LDR      r2,[pc,#80] ; [0x47f0] = 0x3fe90000
        0x0000479e:    4296        .B      CMP      r6,r2
        0x000047a0:    dd02        ..      BLE      0x47a8 ; __kernel_cos + 164
        0x000047a2:    2400        .$      MOVS     r4,#0
        0x000047a4:    4d13        .M      LDR      r5,[pc,#76] ; [0x47f4] = 0x3fd20000
        0x000047a6:    e003        ..      B        0x47b0 ; __kernel_cos + 172
        0x000047a8:    2201        ."      MOVS     r2,#1
        0x000047aa:    0552        R.      LSLS     r2,r2,#21
        0x000047ac:    1ab5        ..      SUBS     r5,r6,r2
        0x000047ae:    2400        .$      MOVS     r4,#0
        0x000047b0:    4622        "F      MOV      r2,r4
        0x000047b2:    462b        +F      MOV      r3,r5
        0x000047b4:    f7fcf94f    ..O.    BL       __aeabi_dsub ; 0xa56
        0x000047b8:    4606        .F      MOV      r6,r0
        0x000047ba:    9101        ..      STR      r1,[sp,#4]
        0x000047bc:    4622        "F      MOV      r2,r4
        0x000047be:    462b        +F      MOV      r3,r5
        0x000047c0:    2000        .       MOVS     r0,#0
        0x000047c2:    490a        .I      LDR      r1,[pc,#40] ; [0x47ec] = 0x3ff00000
        0x000047c4:    f7fcf947    ..G.    BL       __aeabi_dsub ; 0xa56
        0x000047c8:    460d        .F      MOV      r5,r1
        0x000047ca:    4604        .F      MOV      r4,r0
        0x000047cc:    463a        :F      MOV      r2,r7
        0x000047ce:    4630        0F      MOV      r0,r6
        0x000047d0:    9b00        ..      LDR      r3,[sp,#0]
        0x000047d2:    9901        ..      LDR      r1,[sp,#4]
        0x000047d4:    f7fcf93f    ..?.    BL       __aeabi_dsub ; 0xa56
        0x000047d8:    4622        "F      MOV      r2,r4
        0x000047da:    462b        +F      MOV      r3,r5
        0x000047dc:    f7fcf946    ..F.    BL       __aeabi_drsub ; 0xa6c
        0x000047e0:    b009        ..      ADD      sp,sp,#0x24
        0x000047e2:    bdf0        ..      POP      {r4-r7,pc}
    $d
        0x000047e4:    00002892    .(..    DCD    10386
        0x000047e8:    3fd33333    33.?    DCD    1070805811
        0x000047ec:    3ff00000    ...?    DCD    1072693248
        0x000047f0:    3fe90000    ...?    DCD    1072234496
        0x000047f4:    3fd20000    ...?    DCD    1070727168
    $t
    i.__kernel_poly
    __kernel_poly
        0x000047f8:    b5f8        ..      PUSH     {r3-r7,lr}
        0x000047fa:    4604        .F      MOV      r4,r0
        0x000047fc:    1e4f        O.      SUBS     r7,r1,#1
        0x000047fe:    00c8        ..      LSLS     r0,r1,#3
        0x00004800:    3808        .8      SUBS     r0,r0,#8
        0x00004802:    1821        !.      ADDS     r1,r4,r0
        0x00004804:    4615        .F      MOV      r5,r2
        0x00004806:    461e        .F      MOV      r6,r3
        0x00004808:    6808        .h      LDR      r0,[r1,#0]
        0x0000480a:    6849        Ih      LDR      r1,[r1,#4]
        0x0000480c:    463a        :F      MOV      r2,r7
        0x0000480e:    2306        .#      MOVS     r3,#6
        0x00004810:    439a        .C      BICS     r2,r2,r3
        0x00004812:    d010        ..      BEQ      0x4836 ; __kernel_poly + 62
        0x00004814:    462a        *F      MOV      r2,r5
        0x00004816:    4633        3F      MOV      r3,r6
        0x00004818:    f7fcfbc4    ....    BL       __aeabi_dmul ; 0xfa4
        0x0000481c:    463a        :F      MOV      r2,r7
        0x0000481e:    00d2        ..      LSLS     r2,r2,#3
        0x00004820:    3a08        .:      SUBS     r2,r2,#8
        0x00004822:    18a3        ..      ADDS     r3,r4,r2
        0x00004824:    681a        .h      LDR      r2,[r3,#0]
        0x00004826:    1e7f        ..      SUBS     r7,r7,#1
        0x00004828:    685b        [h      LDR      r3,[r3,#4]
        0x0000482a:    f7fcf909    ....    BL       __aeabi_dadd ; 0xa40
        0x0000482e:    2206        ."      MOVS     r2,#6
        0x00004830:    463b        ;F      MOV      r3,r7
        0x00004832:    4393        .C      BICS     r3,r3,r2
        0x00004834:    d1ee        ..      BNE      0x4814 ; __kernel_poly + 28
        0x00004836:    2f02        ./      CMP      r7,#2
        0x00004838:    d023        #.      BEQ      0x4882 ; __kernel_poly + 138
        0x0000483a:    2f04        ./      CMP      r7,#4
        0x0000483c:    d011        ..      BEQ      0x4862 ; __kernel_poly + 106
        0x0000483e:    2f06        ./      CMP      r7,#6
        0x00004840:    d12f        /.      BNE      0x48a2 ; __kernel_poly + 170
        0x00004842:    462a        *F      MOV      r2,r5
        0x00004844:    4633        3F      MOV      r3,r6
        0x00004846:    f7fcfbad    ....    BL       __aeabi_dmul ; 0xfa4
        0x0000484a:    6ae3        .j      LDR      r3,[r4,#0x2c]
        0x0000484c:    6aa2        .j      LDR      r2,[r4,#0x28]
        0x0000484e:    f7fcf8f7    ....    BL       __aeabi_dadd ; 0xa40
        0x00004852:    462a        *F      MOV      r2,r5
        0x00004854:    4633        3F      MOV      r3,r6
        0x00004856:    f7fcfba5    ....    BL       __aeabi_dmul ; 0xfa4
        0x0000485a:    6a63        cj      LDR      r3,[r4,#0x24]
        0x0000485c:    6a22        "j      LDR      r2,[r4,#0x20]
        0x0000485e:    f7fcf8ef    ....    BL       __aeabi_dadd ; 0xa40
        0x00004862:    462a        *F      MOV      r2,r5
        0x00004864:    4633        3F      MOV      r3,r6
        0x00004866:    f7fcfb9d    ....    BL       __aeabi_dmul ; 0xfa4
        0x0000486a:    69e3        .i      LDR      r3,[r4,#0x1c]
        0x0000486c:    69a2        .i      LDR      r2,[r4,#0x18]
        0x0000486e:    f7fcf8e7    ....    BL       __aeabi_dadd ; 0xa40
        0x00004872:    462a        *F      MOV      r2,r5
        0x00004874:    4633        3F      MOV      r3,r6
        0x00004876:    f7fcfb95    ....    BL       __aeabi_dmul ; 0xfa4
        0x0000487a:    6963        ci      LDR      r3,[r4,#0x14]
        0x0000487c:    6922        "i      LDR      r2,[r4,#0x10]
        0x0000487e:    f7fcf8df    ....    BL       __aeabi_dadd ; 0xa40
        0x00004882:    462a        *F      MOV      r2,r5
        0x00004884:    4633        3F      MOV      r3,r6
        0x00004886:    f7fcfb8d    ....    BL       __aeabi_dmul ; 0xfa4
        0x0000488a:    68e3        .h      LDR      r3,[r4,#0xc]
        0x0000488c:    68a2        .h      LDR      r2,[r4,#8]
        0x0000488e:    f7fcf8d7    ....    BL       __aeabi_dadd ; 0xa40
        0x00004892:    462a        *F      MOV      r2,r5
        0x00004894:    4633        3F      MOV      r3,r6
        0x00004896:    f7fcfb85    ....    BL       __aeabi_dmul ; 0xfa4
        0x0000489a:    6863        ch      LDR      r3,[r4,#4]
        0x0000489c:    6822        "h      LDR      r2,[r4,#0]
        0x0000489e:    f7fcf8cf    ....    BL       __aeabi_dadd ; 0xa40
        0x000048a2:    bdf8        ..      POP      {r3-r7,pc}
    i.__kernel_sin
    __kernel_sin
        0x000048a4:    b5f0        ..      PUSH     {r4-r7,lr}
        0x000048a6:    b41f        ..      PUSH     {r0-r4}
        0x000048a8:    4605        .F      MOV      r5,r0
        0x000048aa:    0048        H.      LSLS     r0,r1,#1
        0x000048ac:    460c        .F      MOV      r4,r1
        0x000048ae:    21f9        .!      MOVS     r1,#0xf9
        0x000048b0:    0840        @.      LSRS     r0,r0,#1
        0x000048b2:    0589        ..      LSLS     r1,r1,#22
        0x000048b4:    b086        ..      SUB      sp,sp,#0x18
        0x000048b6:    4288        .B      CMP      r0,r1
        0x000048b8:    da0b        ..      BGE      0x48d2 ; __kernel_sin + 46
        0x000048ba:    4628        (F      MOV      r0,r5
        0x000048bc:    4621        !F      MOV      r1,r4
        0x000048be:    f7fffd3b    ..;.    BL       __ARM_fpclassify ; 0x4338
        0x000048c2:    2804        .(      CMP      r0,#4
        0x000048c4:    d101        ..      BNE      0x48ca ; __kernel_sin + 38
        0x000048c6:    f000f863    ..c.    BL       __mathlib_dbl_underflow ; 0x4990
        0x000048ca:    4628        (F      MOV      r0,r5
        0x000048cc:    4621        !F      MOV      r1,r4
        0x000048ce:    b00b        ..      ADD      sp,sp,#0x2c
        0x000048d0:    bdf0        ..      POP      {r4-r7,pc}
        0x000048d2:    462a        *F      MOV      r2,r5
        0x000048d4:    4623        #F      MOV      r3,r4
        0x000048d6:    4610        .F      MOV      r0,r2
        0x000048d8:    4619        .F      MOV      r1,r3
        0x000048da:    f7fcfb63    ..c.    BL       __aeabi_dmul ; 0xfa4
        0x000048de:    4606        .F      MOV      r6,r0
        0x000048e0:    460f        .F      MOV      r7,r1
        0x000048e2:    462a        *F      MOV      r2,r5
        0x000048e4:    4623        #F      MOV      r3,r4
        0x000048e6:    f7fcfb5d    ..].    BL       __aeabi_dmul ; 0xfa4
        0x000048ea:    9000        ..      STR      r0,[sp,#0]
        0x000048ec:    4825        %H      LDR      r0,[pc,#148] ; [0x4984] = 0x27d6
        0x000048ee:    9101        ..      STR      r1,[sp,#4]
        0x000048f0:    4632        2F      MOV      r2,r6
        0x000048f2:    463b        ;F      MOV      r3,r7
        0x000048f4:    2105        .!      MOVS     r1,#5
        0x000048f6:    4478        xD      ADD      r0,r0,pc
        0x000048f8:    f7ffff7e    ..~.    BL       __kernel_poly ; 0x47f8
        0x000048fc:    9002        ..      STR      r0,[sp,#8]
        0x000048fe:    9810        ..      LDR      r0,[sp,#0x40]
        0x00004900:    9103        ..      STR      r1,[sp,#0xc]
        0x00004902:    2800        .(      CMP      r0,#0
        0x00004904:    d029        ).      BEQ      0x495a ; __kernel_sin + 182
        0x00004906:    4a20         J      LDR      r2,[pc,#128] ; [0x4988] = 0x55555549
        0x00004908:    4b20         K      LDR      r3,[pc,#128] ; [0x498c] = 0xbfc55555
        0x0000490a:    9901        ..      LDR      r1,[sp,#4]
        0x0000490c:    9800        ..      LDR      r0,[sp,#0]
        0x0000490e:    f7fcfb49    ..I.    BL       __aeabi_dmul ; 0xfa4
        0x00004912:    9004        ..      STR      r0,[sp,#0x10]
        0x00004914:    9105        ..      STR      r1,[sp,#0x14]
        0x00004916:    4668        hF      MOV      r0,sp
        0x00004918:    c80f        ..      LDM      r0,{r0-r3}
        0x0000491a:    f7fcfb43    ..C.    BL       __aeabi_dmul ; 0xfa4
        0x0000491e:    2200        ."      MOVS     r2,#0
        0x00004920:    9101        ..      STR      r1,[sp,#4]
        0x00004922:    9000        ..      STR      r0,[sp,#0]
        0x00004924:    43d2        .C      MVNS     r2,r2
        0x00004926:    9909        ..      LDR      r1,[sp,#0x24]
        0x00004928:    9808        ..      LDR      r0,[sp,#0x20]
        0x0000492a:    f7fcfecb    ....    BL       __ARM_scalbn ; 0x16c4
        0x0000492e:    9b01        ..      LDR      r3,[sp,#4]
        0x00004930:    9a00        ..      LDR      r2,[sp,#0]
        0x00004932:    f7fcf890    ....    BL       __aeabi_dsub ; 0xa56
        0x00004936:    4632        2F      MOV      r2,r6
        0x00004938:    463b        ;F      MOV      r3,r7
        0x0000493a:    f7fcfb33    ..3.    BL       __aeabi_dmul ; 0xfa4
        0x0000493e:    9b09        ..      LDR      r3,[sp,#0x24]
        0x00004940:    9a08        ..      LDR      r2,[sp,#0x20]
        0x00004942:    f7fcf888    ....    BL       __aeabi_dsub ; 0xa56
        0x00004946:    9b05        ..      LDR      r3,[sp,#0x14]
        0x00004948:    9a04        ..      LDR      r2,[sp,#0x10]
        0x0000494a:    f7fcf884    ....    BL       __aeabi_dsub ; 0xa56
        0x0000494e:    462a        *F      MOV      r2,r5
        0x00004950:    4623        #F      MOV      r3,r4
        0x00004952:    f7fcf88b    ....    BL       __aeabi_drsub ; 0xa6c
        0x00004956:    b00b        ..      ADD      sp,sp,#0x2c
        0x00004958:    bdf0        ..      POP      {r4-r7,pc}
        0x0000495a:    460b        .F      MOV      r3,r1
        0x0000495c:    4630        0F      MOV      r0,r6
        0x0000495e:    4639        9F      MOV      r1,r7
        0x00004960:    9a02        ..      LDR      r2,[sp,#8]
        0x00004962:    f7fcfb1f    ....    BL       __aeabi_dmul ; 0xfa4
        0x00004966:    4a08        .J      LDR      r2,[pc,#32] ; [0x4988] = 0x55555549
        0x00004968:    4b08        .K      LDR      r3,[pc,#32] ; [0x498c] = 0xbfc55555
        0x0000496a:    f7fcf869    ..i.    BL       __aeabi_dadd ; 0xa40
        0x0000496e:    9b01        ..      LDR      r3,[sp,#4]
        0x00004970:    9a00        ..      LDR      r2,[sp,#0]
        0x00004972:    f7fcfb17    ....    BL       __aeabi_dmul ; 0xfa4
        0x00004976:    462a        *F      MOV      r2,r5
        0x00004978:    4623        #F      MOV      r3,r4
        0x0000497a:    f7fcf861    ..a.    BL       __aeabi_dadd ; 0xa40
        0x0000497e:    b00b        ..      ADD      sp,sp,#0x2c
        0x00004980:    bdf0        ..      POP      {r4-r7,pc}
    $d
        0x00004982:    0000        ..      DCW    0
        0x00004984:    000027d6    .'..    DCD    10198
        0x00004988:    55555549    IUUU    DCD    1431655753
        0x0000498c:    bfc55555    UU..    DCD    3217380693
    $t
    i.__mathlib_dbl_underflow
    __mathlib_dbl_underflow
        0x00004990:    4a03        .J      LDR      r2,[pc,#12] ; [0x49a0] = 0xfffffd01
        0x00004992:    b510        ..      PUSH     {r4,lr}
        0x00004994:    2000        .       MOVS     r0,#0
        0x00004996:    0711        ..      LSLS     r1,r2,#28
        0x00004998:    f7fcfe94    ....    BL       __ARM_scalbn ; 0x16c4
        0x0000499c:    bd10        ..      POP      {r4,pc}
    $d
        0x0000499e:    0000        ..      DCW    0
        0x000049a0:    fffffd01    ....    DCD    4294966529
    $t
    i._is_digit
    _is_digit
        0x000049a4:    3830        08      SUBS     r0,r0,#0x30
        0x000049a6:    280a        .(      CMP      r0,#0xa
        0x000049a8:    d201        ..      BCS      0x49ae ; _is_digit + 10
        0x000049aa:    2001        .       MOVS     r0,#1
        0x000049ac:    4770        pG      BX       lr
        0x000049ae:    2000        .       MOVS     r0,#0
        0x000049b0:    4770        pG      BX       lr
        0x000049b2:    0000        ..      MOVS     r0,r0
    i.atan
    atan
        0x000049b4:    b5f0        ..      PUSH     {r4-r7,lr}
        0x000049b6:    b089        ..      SUB      sp,sp,#0x24
        0x000049b8:    4604        .F      MOV      r4,r0
        0x000049ba:    460d        .F      MOV      r5,r1
        0x000049bc:    0048        H.      LSLS     r0,r1,#1
        0x000049be:    9106        ..      STR      r1,[sp,#0x18]
        0x000049c0:    4973        sI      LDR      r1,[pc,#460] ; [0x4b90] = 0x44100000
        0x000049c2:    0840        @.      LSRS     r0,r0,#1
        0x000049c4:    4288        .B      CMP      r0,r1
        0x000049c6:    db16        ..      BLT      0x49f6 ; atan + 66
        0x000049c8:    4972        rI      LDR      r1,[pc,#456] ; [0x4b94] = 0x7ff00000
        0x000049ca:    4288        .B      CMP      r0,r1
        0x000049cc:    dc03        ..      BGT      0x49d6 ; atan + 34
        0x000049ce:    4288        .B      CMP      r0,r1
        0x000049d0:    d108        ..      BNE      0x49e4 ; atan + 48
        0x000049d2:    2c00        .,      CMP      r4,#0
        0x000049d4:    d006        ..      BEQ      0x49e4 ; atan + 48
        0x000049d6:    2201        ."      MOVS     r2,#1
        0x000049d8:    4620         F      MOV      r0,r4
        0x000049da:    4629        )F      MOV      r1,r5
        0x000049dc:    f7fcfe72    ..r.    BL       __ARM_scalbn ; 0x16c4
        0x000049e0:    b009        ..      ADD      sp,sp,#0x24
        0x000049e2:    bdf0        ..      POP      {r4-r7,pc}
        0x000049e4:    486c        lH      LDR      r0,[pc,#432] ; [0x4b98] = 0x54442d18
        0x000049e6:    2d00        .-      CMP      r5,#0
        0x000049e8:    dd02        ..      BLE      0x49f0 ; atan + 60
        0x000049ea:    496c        lI      LDR      r1,[pc,#432] ; [0x4b9c] = 0x3ff921fb
        0x000049ec:    b009        ..      ADD      sp,sp,#0x24
        0x000049ee:    bdf0        ..      POP      {r4-r7,pc}
        0x000049f0:    496b        kI      LDR      r1,[pc,#428] ; [0x4ba0] = 0xbff921fb
        0x000049f2:    b009        ..      ADD      sp,sp,#0x24
        0x000049f4:    bdf0        ..      POP      {r4-r7,pc}
        0x000049f6:    496b        kI      LDR      r1,[pc,#428] ; [0x4ba4] = 0x3fdc0000
        0x000049f8:    4288        .B      CMP      r0,r1
        0x000049fa:    da11        ..      BGE      0x4a20 ; atan + 108
        0x000049fc:    496a        jI      LDR      r1,[pc,#424] ; [0x4ba8] = 0x3e200000
        0x000049fe:    4288        .B      CMP      r0,r1
        0x00004a00:    da0b        ..      BGE      0x4a1a ; atan + 102
        0x00004a02:    4620         F      MOV      r0,r4
        0x00004a04:    4629        )F      MOV      r1,r5
        0x00004a06:    f7fffc97    ....    BL       __ARM_fpclassify ; 0x4338
        0x00004a0a:    2804        .(      CMP      r0,#4
        0x00004a0c:    d101        ..      BNE      0x4a12 ; atan + 94
        0x00004a0e:    f7ffffbf    ....    BL       __mathlib_dbl_underflow ; 0x4990
        0x00004a12:    4620         F      MOV      r0,r4
        0x00004a14:    4629        )F      MOV      r1,r5
        0x00004a16:    b009        ..      ADD      sp,sp,#0x24
        0x00004a18:    bdf0        ..      POP      {r4-r7,pc}
        0x00004a1a:    2600        .&      MOVS     r6,#0
        0x00004a1c:    43f6        .C      MVNS     r6,r6
        0x00004a1e:    e05d        ].      B        0x4adc ; atan + 296
        0x00004a20:    006d        m.      LSLS     r5,r5,#1
        0x00004a22:    4962        bI      LDR      r1,[pc,#392] ; [0x4bac] = 0x3ff30000
        0x00004a24:    086d        m.      LSRS     r5,r5,#1
        0x00004a26:    4288        .B      CMP      r0,r1
        0x00004a28:    da32        2.      BGE      0x4a90 ; atan + 220
        0x00004a2a:    4961        aI      LDR      r1,[pc,#388] ; [0x4bb0] = 0x3fe60000
        0x00004a2c:    4288        .B      CMP      r0,r1
        0x00004a2e:    da19        ..      BGE      0x4a64 ; atan + 176
        0x00004a30:    2600        .&      MOVS     r6,#0
        0x00004a32:    2301        .#      MOVS     r3,#1
        0x00004a34:    4632        2F      MOV      r2,r6
        0x00004a36:    079b        ..      LSLS     r3,r3,#30
        0x00004a38:    4620         F      MOV      r0,r4
        0x00004a3a:    4629        )F      MOV      r1,r5
        0x00004a3c:    f7fcf800    ....    BL       __aeabi_dadd ; 0xa40
        0x00004a40:    4607        .F      MOV      r7,r0
        0x00004a42:    9101        ..      STR      r1,[sp,#4]
        0x00004a44:    2201        ."      MOVS     r2,#1
        0x00004a46:    4620         F      MOV      r0,r4
        0x00004a48:    4629        )F      MOV      r1,r5
        0x00004a4a:    f7fcfe3b    ..;.    BL       __ARM_scalbn ; 0x16c4
        0x00004a4e:    2200        ."      MOVS     r2,#0
        0x00004a50:    4b58        XK      LDR      r3,[pc,#352] ; [0x4bb4] = 0x3ff00000
        0x00004a52:    f7fcf800    ....    BL       __aeabi_dsub ; 0xa56
        0x00004a56:    463a        :F      MOV      r2,r7
        0x00004a58:    9b01        ..      LDR      r3,[sp,#4]
        0x00004a5a:    f7fcf81d    ....    BL       __aeabi_ddiv ; 0xa98
        0x00004a5e:    4604        .F      MOV      r4,r0
        0x00004a60:    460d        .F      MOV      r5,r1
        0x00004a62:    e03b        ;.      B        0x4adc ; atan + 296
        0x00004a64:    2601        .&      MOVS     r6,#1
        0x00004a66:    2200        ."      MOVS     r2,#0
        0x00004a68:    4b52        RK      LDR      r3,[pc,#328] ; [0x4bb4] = 0x3ff00000
        0x00004a6a:    4620         F      MOV      r0,r4
        0x00004a6c:    4629        )F      MOV      r1,r5
        0x00004a6e:    f7fbffe7    ....    BL       __aeabi_dadd ; 0xa40
        0x00004a72:    4607        .F      MOV      r7,r0
        0x00004a74:    9100        ..      STR      r1,[sp,#0]
        0x00004a76:    2200        ."      MOVS     r2,#0
        0x00004a78:    4b4e        NK      LDR      r3,[pc,#312] ; [0x4bb4] = 0x3ff00000
        0x00004a7a:    4620         F      MOV      r0,r4
        0x00004a7c:    4629        )F      MOV      r1,r5
        0x00004a7e:    f7fbffea    ....    BL       __aeabi_dsub ; 0xa56
        0x00004a82:    463a        :F      MOV      r2,r7
        0x00004a84:    9b00        ..      LDR      r3,[sp,#0]
        0x00004a86:    f7fcf807    ....    BL       __aeabi_ddiv ; 0xa98
        0x00004a8a:    4604        .F      MOV      r4,r0
        0x00004a8c:    460d        .F      MOV      r5,r1
        0x00004a8e:    e025        %.      B        0x4adc ; atan + 296
        0x00004a90:    4949        II      LDR      r1,[pc,#292] ; [0x4bb8] = 0x40038000
        0x00004a92:    4288        .B      CMP      r0,r1
        0x00004a94:    da19        ..      BGE      0x4aca ; atan + 278
        0x00004a96:    2602        .&      MOVS     r6,#2
        0x00004a98:    2200        ."      MOVS     r2,#0
        0x00004a9a:    4b48        HK      LDR      r3,[pc,#288] ; [0x4bbc] = 0x3ff80000
        0x00004a9c:    4620         F      MOV      r0,r4
        0x00004a9e:    4629        )F      MOV      r1,r5
        0x00004aa0:    f7fcfa80    ....    BL       __aeabi_dmul ; 0xfa4
        0x00004aa4:    2200        ."      MOVS     r2,#0
        0x00004aa6:    4b43        CK      LDR      r3,[pc,#268] ; [0x4bb4] = 0x3ff00000
        0x00004aa8:    f7fbffca    ....    BL       __aeabi_dadd ; 0xa40
        0x00004aac:    4607        .F      MOV      r7,r0
        0x00004aae:    9102        ..      STR      r1,[sp,#8]
        0x00004ab0:    2200        ."      MOVS     r2,#0
        0x00004ab2:    4b42        BK      LDR      r3,[pc,#264] ; [0x4bbc] = 0x3ff80000
        0x00004ab4:    4620         F      MOV      r0,r4
        0x00004ab6:    4629        )F      MOV      r1,r5
        0x00004ab8:    f7fbffcd    ....    BL       __aeabi_dsub ; 0xa56
        0x00004abc:    463a        :F      MOV      r2,r7
        0x00004abe:    9b02        ..      LDR      r3,[sp,#8]
        0x00004ac0:    f7fbffea    ....    BL       __aeabi_ddiv ; 0xa98
        0x00004ac4:    4604        .F      MOV      r4,r0
        0x00004ac6:    460d        .F      MOV      r5,r1
        0x00004ac8:    e008        ..      B        0x4adc ; atan + 296
        0x00004aca:    2603        .&      MOVS     r6,#3
        0x00004acc:    4622        "F      MOV      r2,r4
        0x00004ace:    462b        +F      MOV      r3,r5
        0x00004ad0:    2000        .       MOVS     r0,#0
        0x00004ad2:    493b        ;I      LDR      r1,[pc,#236] ; [0x4bc0] = 0xbff00000
        0x00004ad4:    f7fbffe0    ....    BL       __aeabi_ddiv ; 0xa98
        0x00004ad8:    4604        .F      MOV      r4,r0
        0x00004ada:    460d        .F      MOV      r5,r1
        0x00004adc:    4622        "F      MOV      r2,r4
        0x00004ade:    462b        +F      MOV      r3,r5
        0x00004ae0:    4610        .F      MOV      r0,r2
        0x00004ae2:    4619        .F      MOV      r1,r3
        0x00004ae4:    f7fcfa5e    ..^.    BL       __aeabi_dmul ; 0xfa4
        0x00004ae8:    4607        .F      MOV      r7,r0
        0x00004aea:    460b        .F      MOV      r3,r1
        0x00004aec:    4602        .F      MOV      r2,r0
        0x00004aee:    9101        ..      STR      r1,[sp,#4]
        0x00004af0:    f7fcfa58    ..X.    BL       __aeabi_dmul ; 0xfa4
        0x00004af4:    4602        .F      MOV      r2,r0
        0x00004af6:    9002        ..      STR      r0,[sp,#8]
        0x00004af8:    4832        2H      LDR      r0,[pc,#200] ; [0x4bc4] = 0x249c
        0x00004afa:    460b        .F      MOV      r3,r1
        0x00004afc:    9103        ..      STR      r1,[sp,#0xc]
        0x00004afe:    2106        .!      MOVS     r1,#6
        0x00004b00:    4478        xD      ADD      r0,r0,pc
        0x00004b02:    f7fffe79    ..y.    BL       __kernel_poly ; 0x47f8
        0x00004b06:    463a        :F      MOV      r2,r7
        0x00004b08:    9b01        ..      LDR      r3,[sp,#4]
        0x00004b0a:    f7fcfa4b    ..K.    BL       __aeabi_dmul ; 0xfa4
        0x00004b0e:    9000        ..      STR      r0,[sp,#0]
        0x00004b10:    482d        -H      LDR      r0,[pc,#180] ; [0x4bc8] = 0x245e
        0x00004b12:    9101        ..      STR      r1,[sp,#4]
        0x00004b14:    2105        .!      MOVS     r1,#5
        0x00004b16:    4478        xD      ADD      r0,r0,pc
        0x00004b18:    9b03        ..      LDR      r3,[sp,#0xc]
        0x00004b1a:    9a02        ..      LDR      r2,[sp,#8]
        0x00004b1c:    f7fffe6c    ..l.    BL       __kernel_poly ; 0x47f8
        0x00004b20:    9b03        ..      LDR      r3,[sp,#0xc]
        0x00004b22:    9a02        ..      LDR      r2,[sp,#8]
        0x00004b24:    f7fcfa3e    ..>.    BL       __aeabi_dmul ; 0xfa4
        0x00004b28:    4602        .F      MOV      r2,r0
        0x00004b2a:    460b        .F      MOV      r3,r1
        0x00004b2c:    9901        ..      LDR      r1,[sp,#4]
        0x00004b2e:    9800        ..      LDR      r0,[sp,#0]
        0x00004b30:    2e00        ..      CMP      r6,#0
        0x00004b32:    da0b        ..      BGE      0x4b4c ; atan + 408
        0x00004b34:    f7fbff84    ....    BL       __aeabi_dadd ; 0xa40
        0x00004b38:    4622        "F      MOV      r2,r4
        0x00004b3a:    462b        +F      MOV      r3,r5
        0x00004b3c:    f7fcfa32    ..2.    BL       __aeabi_dmul ; 0xfa4
        0x00004b40:    4622        "F      MOV      r2,r4
        0x00004b42:    462b        +F      MOV      r3,r5
        0x00004b44:    f7fbff92    ....    BL       __aeabi_drsub ; 0xa6c
        0x00004b48:    b009        ..      ADD      sp,sp,#0x24
        0x00004b4a:    bdf0        ..      POP      {r4-r7,pc}
        0x00004b4c:    f7fbff78    ..x.    BL       __aeabi_dadd ; 0xa40
        0x00004b50:    4622        "F      MOV      r2,r4
        0x00004b52:    462b        +F      MOV      r3,r5
        0x00004b54:    f7fcfa26    ..&.    BL       __aeabi_dmul ; 0xfa4
        0x00004b58:    4a1c        .J      LDR      r2,[pc,#112] ; [0x4bcc] = 0x23f8
        0x00004b5a:    00f6        ..      LSLS     r6,r6,#3
        0x00004b5c:    447a        zD      ADD      r2,r2,pc
        0x00004b5e:    1993        ..      ADDS     r3,r2,r6
        0x00004b60:    681a        .h      LDR      r2,[r3,#0]
        0x00004b62:    685b        [h      LDR      r3,[r3,#4]
        0x00004b64:    f7fbff77    ..w.    BL       __aeabi_dsub ; 0xa56
        0x00004b68:    4622        "F      MOV      r2,r4
        0x00004b6a:    462b        +F      MOV      r3,r5
        0x00004b6c:    f7fbff73    ..s.    BL       __aeabi_dsub ; 0xa56
        0x00004b70:    4a17        .J      LDR      r2,[pc,#92] ; [0x4bd0] = 0x23c2
        0x00004b72:    447a        zD      ADD      r2,r2,pc
        0x00004b74:    1993        ..      ADDS     r3,r2,r6
        0x00004b76:    681a        .h      LDR      r2,[r3,#0]
        0x00004b78:    685b        [h      LDR      r3,[r3,#4]
        0x00004b7a:    f7fbff77    ..w.    BL       __aeabi_drsub ; 0xa6c
        0x00004b7e:    9a06        ..      LDR      r2,[sp,#0x18]
        0x00004b80:    2a00        .*      CMP      r2,#0
        0x00004b82:    dae1        ..      BGE      0x4b48 ; atan + 404
        0x00004b84:    2201        ."      MOVS     r2,#1
        0x00004b86:    07d2        ..      LSLS     r2,r2,#31
        0x00004b88:    4051        Q@      EORS     r1,r1,r2
        0x00004b8a:    b009        ..      ADD      sp,sp,#0x24
        0x00004b8c:    bdf0        ..      POP      {r4-r7,pc}
    $d
        0x00004b8e:    0000        ..      DCW    0
        0x00004b90:    44100000    ...D    DCD    1141899264
        0x00004b94:    7ff00000    ....    DCD    2146435072
        0x00004b98:    54442d18    .-DT    DCD    1413754136
        0x00004b9c:    3ff921fb    .!.?    DCD    1073291771
        0x00004ba0:    bff921fb    .!..    DCD    3220775419
        0x00004ba4:    3fdc0000    ...?    DCD    1071382528
        0x00004ba8:    3e200000    .. >    DCD    1042284544
        0x00004bac:    3ff30000    ...?    DCD    1072889856
        0x00004bb0:    3fe60000    ...?    DCD    1072037888
        0x00004bb4:    3ff00000    ...?    DCD    1072693248
        0x00004bb8:    40038000    ...@    DCD    1073971200
        0x00004bbc:    3ff80000    ...?    DCD    1073217536
        0x00004bc0:    bff00000    ....    DCD    3220176896
        0x00004bc4:    0000249c    .$..    DCD    9372
        0x00004bc8:    0000245e    ^$..    DCD    9310
        0x00004bcc:    000023f8    .#..    DCD    9208
        0x00004bd0:    000023c2    .#..    DCD    9154
    $t
    i.atan2
    atan2
        0x00004bd4:    b5f0        ..      PUSH     {r4-r7,lr}
        0x00004bd6:    b41f        ..      PUSH     {r0-r4}
        0x00004bd8:    9b03        ..      LDR      r3,[sp,#0xc]
        0x00004bda:    4254        TB      RSBS     r4,r2,#0
        0x00004bdc:    005d        ].      LSLS     r5,r3,#1
        0x00004bde:    4616        .F      MOV      r6,r2
        0x00004be0:    4326        &C      ORRS     r6,r6,r4
        0x00004be2:    469c        .F      MOV      r12,r3
        0x00004be4:    0ff4        ..      LSRS     r4,r6,#31
        0x00004be6:    086d        m.      LSRS     r5,r5,#1
        0x00004be8:    004b        K.      LSLS     r3,r1,#1
        0x00004bea:    4e4e        NN      LDR      r6,[pc,#312] ; [0x4d24] = 0x7ff00000
        0x00004bec:    085b        [.      LSRS     r3,r3,#1
        0x00004bee:    432c        ,C      ORRS     r4,r4,r5
        0x00004bf0:    468e        .F      MOV      lr,r1
        0x00004bf2:    42b4        .B      CMP      r4,r6
        0x00004bf4:    d805        ..      BHI      0x4c02 ; atan2 + 46
        0x00004bf6:    4247        GB      RSBS     r7,r0,#0
        0x00004bf8:    4307        .C      ORRS     r7,r7,r0
        0x00004bfa:    0ffc        ..      LSRS     r4,r7,#31
        0x00004bfc:    431c        .C      ORRS     r4,r4,r3
        0x00004bfe:    42b4        .B      CMP      r4,r6
        0x00004c00:    d904        ..      BLS      0x4c0c ; atan2 + 56
        0x00004c02:    4663        cF      MOV      r3,r12
        0x00004c04:    f7fbff1c    ....    BL       __aeabi_dadd ; 0xa40
        0x00004c08:    b005        ..      ADD      sp,sp,#0x14
        0x00004c0a:    bdf0        ..      POP      {r4-r7,pc}
        0x00004c0c:    4e46        FN      LDR      r6,[pc,#280] ; [0x4d28] = 0xc0100000
        0x00004c0e:    4466        fD      ADD      r6,r6,r12
        0x00004c10:    4316        .C      ORRS     r6,r6,r2
        0x00004c12:    d009        ..      BEQ      0x4c28 ; atan2 + 84
        0x00004c14:    0fcc        ..      LSRS     r4,r1,#31
        0x00004c16:    4666        fF      MOV      r6,r12
        0x00004c18:    17b6        ..      ASRS     r6,r6,#30
        0x00004c1a:    2702        .'      MOVS     r7,#2
        0x00004c1c:    403e        >@      ANDS     r6,r6,r7
        0x00004c1e:    4326        &C      ORRS     r6,r6,r4
        0x00004c20:    4604        .F      MOV      r4,r0
        0x00004c22:    431c        .C      ORRS     r4,r4,r3
        0x00004c24:    d004        ..      BEQ      0x4c30 ; atan2 + 92
        0x00004c26:    e00b        ..      B        0x4c40 ; atan2 + 108
        0x00004c28:    f7fffec4    ....    BL       atan ; 0x49b4
        0x00004c2c:    b005        ..      ADD      sp,sp,#0x14
        0x00004c2e:    bdf0        ..      POP      {r4-r7,pc}
        0x00004c30:    2e00        ..      CMP      r6,#0
        0x00004c32:    d0fb        ..      BEQ      0x4c2c ; atan2 + 88
        0x00004c34:    2e01        ..      CMP      r6,#1
        0x00004c36:    d0f9        ..      BEQ      0x4c2c ; atan2 + 88
        0x00004c38:    2e02        ..      CMP      r6,#2
        0x00004c3a:    d032        2.      BEQ      0x4ca2 ; atan2 + 206
        0x00004c3c:    2e03        ..      CMP      r6,#3
        0x00004c3e:    d034        4.      BEQ      0x4caa ; atan2 + 214
        0x00004c40:    4614        .F      MOV      r4,r2
        0x00004c42:    432c        ,C      ORRS     r4,r4,r5
        0x00004c44:    d00b        ..      BEQ      0x4c5e ; atan2 + 138
        0x00004c46:    4c37        7L      LDR      r4,[pc,#220] ; [0x4d24] = 0x7ff00000
        0x00004c48:    42a5        .B      CMP      r5,r4
        0x00004c4a:    d116        ..      BNE      0x4c7a ; atan2 + 166
        0x00004c4c:    42a3        .B      CMP      r3,r4
        0x00004c4e:    d10a        ..      BNE      0x4c66 ; atan2 + 146
        0x00004c50:    2101        .!      MOVS     r1,#1
        0x00004c52:    0789        ..      LSLS     r1,r1,#30
        0x00004c54:    438d        .C      BICS     r5,r5,r1
        0x00004c56:    438b        .C      BICS     r3,r3,r1
        0x00004c58:    4619        .F      MOV      r1,r3
        0x00004c5a:    9503        ..      STR      r5,[sp,#0xc]
        0x00004c5c:    e00d        ..      B        0x4c7a ; atan2 + 166
        0x00004c5e:    4670        pF      MOV      r0,lr
        0x00004c60:    2800        .(      CMP      r0,#0
        0x00004c62:    db0f        ..      BLT      0x4c84 ; atan2 + 176
        0x00004c64:    e025        %.      B        0x4cb2 ; atan2 + 222
        0x00004c66:    4f31        1O      LDR      r7,[pc,#196] ; [0x4d2c] = 0x2394
        0x00004c68:    447f        .D      ADD      r7,r7,pc
        0x00004c6a:    2e00        ..      CMP      r6,#0
        0x00004c6c:    d00e        ..      BEQ      0x4c8c ; atan2 + 184
        0x00004c6e:    2e01        ..      CMP      r6,#1
        0x00004c70:    d010        ..      BEQ      0x4c94 ; atan2 + 192
        0x00004c72:    2e02        ..      CMP      r6,#2
        0x00004c74:    d015        ..      BEQ      0x4ca2 ; atan2 + 206
        0x00004c76:    2e03        ..      CMP      r6,#3
        0x00004c78:    d017        ..      BEQ      0x4caa ; atan2 + 214
        0x00004c7a:    42a3        .B      CMP      r3,r4
        0x00004c7c:    d11d        ..      BNE      0x4cba ; atan2 + 230
        0x00004c7e:    4670        pF      MOV      r0,lr
        0x00004c80:    2800        .(      CMP      r0,#0
        0x00004c82:    da16        ..      BGE      0x4cb2 ; atan2 + 222
        0x00004c84:    482a        *H      LDR      r0,[pc,#168] ; [0x4d30] = 0x54442d18
        0x00004c86:    492b        +I      LDR      r1,[pc,#172] ; [0x4d34] = 0xbff921fb
        0x00004c88:    b005        ..      ADD      sp,sp,#0x14
        0x00004c8a:    bdf0        ..      POP      {r4-r7,pc}
        0x00004c8c:    6879        yh      LDR      r1,[r7,#4]
        0x00004c8e:    6838        8h      LDR      r0,[r7,#0]
        0x00004c90:    b005        ..      ADD      sp,sp,#0x14
        0x00004c92:    bdf0        ..      POP      {r4-r7,pc}
        0x00004c94:    2201        ."      MOVS     r2,#1
        0x00004c96:    6879        yh      LDR      r1,[r7,#4]
        0x00004c98:    07d2        ..      LSLS     r2,r2,#31
        0x00004c9a:    6838        8h      LDR      r0,[r7,#0]
        0x00004c9c:    4051        Q@      EORS     r1,r1,r2
        0x00004c9e:    b005        ..      ADD      sp,sp,#0x14
        0x00004ca0:    bdf0        ..      POP      {r4-r7,pc}
        0x00004ca2:    4823        #H      LDR      r0,[pc,#140] ; [0x4d30] = 0x54442d18
        0x00004ca4:    4924        $I      LDR      r1,[pc,#144] ; [0x4d38] = 0x400921fb
        0x00004ca6:    b005        ..      ADD      sp,sp,#0x14
        0x00004ca8:    bdf0        ..      POP      {r4-r7,pc}
        0x00004caa:    4821        !H      LDR      r0,[pc,#132] ; [0x4d30] = 0x54442d18
        0x00004cac:    4923        #I      LDR      r1,[pc,#140] ; [0x4d3c] = 0xc00921fb
        0x00004cae:    b005        ..      ADD      sp,sp,#0x14
        0x00004cb0:    bdf0        ..      POP      {r4-r7,pc}
        0x00004cb2:    481f        .H      LDR      r0,[pc,#124] ; [0x4d30] = 0x54442d18
        0x00004cb4:    4922        "I      LDR      r1,[pc,#136] ; [0x4d40] = 0x3ff921fb
        0x00004cb6:    b005        ..      ADD      sp,sp,#0x14
        0x00004cb8:    bdf0        ..      POP      {r4-r7,pc}
        0x00004cba:    1b5b        [.      SUBS     r3,r3,r5
        0x00004cbc:    151b        ..      ASRS     r3,r3,#20
        0x00004cbe:    2b3c        <+      CMP      r3,#0x3c
        0x00004cc0:    dd02        ..      BLE      0x4cc8 ; atan2 + 244
        0x00004cc2:    481b        .H      LDR      r0,[pc,#108] ; [0x4d30] = 0x54442d18
        0x00004cc4:    491e        .I      LDR      r1,[pc,#120] ; [0x4d40] = 0x3ff921fb
        0x00004cc6:    e00f        ..      B        0x4ce8 ; atan2 + 276
        0x00004cc8:    4664        dF      MOV      r4,r12
        0x00004cca:    2c00        .,      CMP      r4,#0
        0x00004ccc:    da05        ..      BGE      0x4cda ; atan2 + 262
        0x00004cce:    243c        <$      MOVS     r4,#0x3c
        0x00004cd0:    42e3        .B      CMN      r3,r4
        0x00004cd2:    da02        ..      BGE      0x4cda ; atan2 + 262
        0x00004cd4:    2000        .       MOVS     r0,#0
        0x00004cd6:    4601        .F      MOV      r1,r0
        0x00004cd8:    e006        ..      B        0x4ce8 ; atan2 + 276
        0x00004cda:    9b03        ..      LDR      r3,[sp,#0xc]
        0x00004cdc:    f7fbfedc    ....    BL       __aeabi_ddiv ; 0xa98
        0x00004ce0:    0049        I.      LSLS     r1,r1,#1
        0x00004ce2:    0849        I.      LSRS     r1,r1,#1
        0x00004ce4:    f7fffe66    ..f.    BL       atan ; 0x49b4
        0x00004ce8:    2e00        ..      CMP      r6,#0
        0x00004cea:    d0e4        ..      BEQ      0x4cb6 ; atan2 + 226
        0x00004cec:    2e01        ..      CMP      r6,#1
        0x00004cee:    d00b        ..      BEQ      0x4d08 ; atan2 + 308
        0x00004cf0:    4a14        .J      LDR      r2,[pc,#80] ; [0x4d44] = 0x33145c07
        0x00004cf2:    4b15        .K      LDR      r3,[pc,#84] ; [0x4d48] = 0x3ca1a626
        0x00004cf4:    2e02        ..      CMP      r6,#2
        0x00004cf6:    d00c        ..      BEQ      0x4d12 ; atan2 + 318
        0x00004cf8:    f7fbfead    ....    BL       __aeabi_dsub ; 0xa56
        0x00004cfc:    4a0c        .J      LDR      r2,[pc,#48] ; [0x4d30] = 0x54442d18
        0x00004cfe:    4b0e        .K      LDR      r3,[pc,#56] ; [0x4d38] = 0x400921fb
        0x00004d00:    f7fbfea9    ....    BL       __aeabi_dsub ; 0xa56
        0x00004d04:    b005        ..      ADD      sp,sp,#0x14
        0x00004d06:    bdf0        ..      POP      {r4-r7,pc}
        0x00004d08:    2201        ."      MOVS     r2,#1
        0x00004d0a:    07d2        ..      LSLS     r2,r2,#31
        0x00004d0c:    4051        Q@      EORS     r1,r1,r2
        0x00004d0e:    b005        ..      ADD      sp,sp,#0x14
        0x00004d10:    bdf0        ..      POP      {r4-r7,pc}
        0x00004d12:    f7fbfea0    ....    BL       __aeabi_dsub ; 0xa56
        0x00004d16:    4a06        .J      LDR      r2,[pc,#24] ; [0x4d30] = 0x54442d18
        0x00004d18:    4b07        .K      LDR      r3,[pc,#28] ; [0x4d38] = 0x400921fb
        0x00004d1a:    f7fbfea7    ....    BL       __aeabi_drsub ; 0xa6c
        0x00004d1e:    b005        ..      ADD      sp,sp,#0x14
        0x00004d20:    bdf0        ..      POP      {r4-r7,pc}
    $d
        0x00004d22:    0000        ..      DCW    0
        0x00004d24:    7ff00000    ....    DCD    2146435072
        0x00004d28:    c0100000    ....    DCD    3222274048
        0x00004d2c:    00002394    .#..    DCD    9108
        0x00004d30:    54442d18    .-DT    DCD    1413754136
        0x00004d34:    bff921fb    .!..    DCD    3220775419
        0x00004d38:    400921fb    .!.@    DCD    1074340347
        0x00004d3c:    c00921fb    .!..    DCD    3221823995
        0x00004d40:    3ff921fb    .!.?    DCD    1073291771
        0x00004d44:    33145c07    .\.3    DCD    856972295
        0x00004d48:    3ca1a626    &..<    DCD    1017226790
    $t
    i.calibrate_model_acc
    calibrate_model_acc
        0x00004d4c:    b5f3        ..      PUSH     {r0,r1,r4-r7,lr}
        0x00004d4e:    2000        .       MOVS     r0,#0
        0x00004d50:    b085        ..      SUB      sp,sp,#0x14
        0x00004d52:    9002        ..      STR      r0,[sp,#8]
        0x00004d54:    4851        QH      LDR      r0,[pc,#324] ; [0x4e9c] = 0x3089705f
        0x00004d56:    9000        ..      STR      r0,[sp,#0]
        0x00004d58:    4851        QH      LDR      r0,[pc,#324] ; [0x4ea0] = 0x42c80000
        0x00004d5a:    2414        .$      MOVS     r4,#0x14
        0x00004d5c:    9001        ..      STR      r0,[sp,#4]
        0x00004d5e:    e07d        }.      B        0x4e5c ; calibrate_model_acc + 272
        0x00004d60:    9f05        ..      LDR      r7,[sp,#0x14]
        0x00004d62:    9e06        ..      LDR      r6,[sp,#0x18]
        0x00004d64:    f000ff24    ..$.    BL       reset_calibration_matrices ; 0x5bb0
        0x00004d68:    2500        .%      MOVS     r5,#0
        0x00004d6a:    2e00        ..      CMP      r6,#0
        0x00004d6c:    dd09        ..      BLE      0x4d82 ; calibrate_model_acc + 54
        0x00004d6e:    2006        .       MOVS     r0,#6
        0x00004d70:    4368        hC      MULS     r0,r5,r0
        0x00004d72:    217f        .!      MOVS     r1,#0x7f
        0x00004d74:    19c0        ..      ADDS     r0,r0,r7
        0x00004d76:    05c9        ..      LSLS     r1,r1,#23
        0x00004d78:    f001fe02    ....    BL       update_calibration_matrices ; 0x6980
        0x00004d7c:    1c6d        m.      ADDS     r5,r5,#1
        0x00004d7e:    42b5        .B      CMP      r5,r6
        0x00004d80:    dbf5        ..      BLT      0x4d6e ; calibrate_model_acc + 34
        0x00004d82:    2006        .       MOVS     r0,#6
        0x00004d84:    f000f956    ..V.    BL       find_delta ; 0x5034
        0x00004d88:    4e46        FN      LDR      r6,[pc,#280] ; [0x4ea4] = 0x200017e8
        0x00004d8a:    6970        pi      LDR      r0,[r6,#0x14]
        0x00004d8c:    4601        .F      MOV      r1,r0
        0x00004d8e:    f001ff01    ....    BL       __aeabi_fmul ; 0x6b94
        0x00004d92:    4d45        EM      LDR      r5,[pc,#276] ; [0x4ea8] = 0x200019b8
        0x00004d94:    4607        .F      MOV      r7,r0
        0x00004d96:    6968        hi      LDR      r0,[r5,#0x14]
        0x00004d98:    4601        .F      MOV      r1,r0
        0x00004d9a:    f001fefb    ....    BL       __aeabi_fmul ; 0x6b94
        0x00004d9e:    4639        9F      MOV      r1,r7
        0x00004da0:    f7fcfa5e    ..^.    BL       __aeabi_fdiv ; 0x1260
        0x00004da4:    9004        ..      STR      r0,[sp,#0x10]
        0x00004da6:    6930        0i      LDR      r0,[r6,#0x10]
        0x00004da8:    4601        .F      MOV      r1,r0
        0x00004daa:    f001fef3    ....    BL       __aeabi_fmul ; 0x6b94
        0x00004dae:    4607        .F      MOV      r7,r0
        0x00004db0:    6928        (i      LDR      r0,[r5,#0x10]
        0x00004db2:    4601        .F      MOV      r1,r0
        0x00004db4:    f001feee    ....    BL       __aeabi_fmul ; 0x6b94
        0x00004db8:    4639        9F      MOV      r1,r7
        0x00004dba:    f7fcfa51    ..Q.    BL       __aeabi_fdiv ; 0x1260
        0x00004dbe:    4607        .F      MOV      r7,r0
        0x00004dc0:    68f0        .h      LDR      r0,[r6,#0xc]
        0x00004dc2:    4601        .F      MOV      r1,r0
        0x00004dc4:    f001fee6    ....    BL       __aeabi_fmul ; 0x6b94
        0x00004dc8:    4606        .F      MOV      r6,r0
        0x00004dca:    68e8        .h      LDR      r0,[r5,#0xc]
        0x00004dcc:    4601        .F      MOV      r1,r0
        0x00004dce:    f001fee1    ....    BL       __aeabi_fmul ; 0x6b94
        0x00004dd2:    4631        1F      MOV      r1,r6
        0x00004dd4:    f7fcfa44    ..D.    BL       __aeabi_fdiv ; 0x1260
        0x00004dd8:    4606        .F      MOV      r6,r0
        0x00004dda:    68a8        .h      LDR      r0,[r5,#8]
        0x00004ddc:    4601        .F      MOV      r1,r0
        0x00004dde:    f001fed9    ....    BL       __aeabi_fmul ; 0x6b94
        0x00004de2:    9003        ..      STR      r0,[sp,#0xc]
        0x00004de4:    6868        hh      LDR      r0,[r5,#4]
        0x00004de6:    4601        .F      MOV      r1,r0
        0x00004de8:    f001fed4    ....    BL       __aeabi_fmul ; 0x6b94
        0x00004dec:    9001        ..      STR      r0,[sp,#4]
        0x00004dee:    6828        (h      LDR      r0,[r5,#0]
        0x00004df0:    4601        .F      MOV      r1,r0
        0x00004df2:    f001fecf    ....    BL       __aeabi_fmul ; 0x6b94
        0x00004df6:    9901        ..      LDR      r1,[sp,#4]
        0x00004df8:    f001fe5c    ..\.    BL       __aeabi_fadd ; 0x6ab4
        0x00004dfc:    9903        ..      LDR      r1,[sp,#0xc]
        0x00004dfe:    f001fe59    ..Y.    BL       __aeabi_fadd ; 0x6ab4
        0x00004e02:    4631        1F      MOV      r1,r6
        0x00004e04:    f001fe56    ..V.    BL       __aeabi_fadd ; 0x6ab4
        0x00004e08:    4639        9F      MOV      r1,r7
        0x00004e0a:    f001fe53    ..S.    BL       __aeabi_fadd ; 0x6ab4
        0x00004e0e:    9904        ..      LDR      r1,[sp,#0x10]
        0x00004e10:    f001fe50    ..P.    BL       __aeabi_fadd ; 0x6ab4
        0x00004e14:    9001        ..      STR      r0,[sp,#4]
        0x00004e16:    2000        .       MOVS     r0,#0
        0x00004e18:    1c40        @.      ADDS     r0,r0,#1
        0x00004e1a:    2806        .(      CMP      r0,#6
        0x00004e1c:    dbfc        ..      BLT      0x4e18 ; calibrate_model_acc + 204
        0x00004e1e:    4f23        #O      LDR      r7,[pc,#140] ; [0x4eac] = 0x20001770
        0x00004e20:    2600        .&      MOVS     r6,#0
        0x00004e22:    4821        !H      LDR      r0,[pc,#132] ; [0x4ea8] = 0x200019b8
        0x00004e24:    00b5        ..      LSLS     r5,r6,#2
        0x00004e26:    5941        AY      LDR      r1,[r0,r5]
        0x00004e28:    5978        xY      LDR      r0,[r7,r5]
        0x00004e2a:    f001ff43    ..C.    BL       __aeabi_fsub ; 0x6cb4
        0x00004e2e:    1c76        v.      ADDS     r6,r6,#1
        0x00004e30:    5178        xQ      STR      r0,[r7,r5]
        0x00004e32:    2e06        ..      CMP      r6,#6
        0x00004e34:    dbf5        ..      BLT      0x4e22 ; calibrate_model_acc + 214
        0x00004e36:    2100        .!      MOVS     r1,#0
        0x00004e38:    4f1d        .O      LDR      r7,[pc,#116] ; [0x4eb0] = 0x20001990
        0x00004e3a:    4e1e        .N      LDR      r6,[pc,#120] ; [0x4eb4] = 0x20001800
        0x00004e3c:    460a        .F      MOV      r2,r1
        0x00004e3e:    0088        ..      LSLS     r0,r1,#2
        0x00004e40:    503a        :P      STR      r2,[r7,r0]
        0x00004e42:    2528        (%      MOVS     r5,#0x28
        0x00004e44:    460b        .F      MOV      r3,r1
        0x00004e46:    2000        .       MOVS     r0,#0
        0x00004e48:    436b        kC      MULS     r3,r5,r3
        0x00004e4a:    199b        ..      ADDS     r3,r3,r6
        0x00004e4c:    0085        ..      LSLS     r5,r0,#2
        0x00004e4e:    1c40        @.      ADDS     r0,r0,#1
        0x00004e50:    515a        ZQ      STR      r2,[r3,r5]
        0x00004e52:    280a        .(      CMP      r0,#0xa
        0x00004e54:    dbfa        ..      BLT      0x4e4c ; calibrate_model_acc + 256
        0x00004e56:    1c49        I.      ADDS     r1,r1,#1
        0x00004e58:    290a        .)      CMP      r1,#0xa
        0x00004e5a:    dbf0        ..      BLT      0x4e3e ; calibrate_model_acc + 242
        0x00004e5c:    1e64        d.      SUBS     r4,r4,#1
        0x00004e5e:    d405        ..      BMI      0x4e6c ; calibrate_model_acc + 288
        0x00004e60:    9900        ..      LDR      r1,[sp,#0]
        0x00004e62:    9801        ..      LDR      r0,[sp,#4]
        0x00004e64:    f001feee    ....    BL       __aeabi_cfrcmple ; 0x6c44
        0x00004e68:    d200        ..      BCS      0x4e6c ; calibrate_model_acc + 288
        0x00004e6a:    e779        y.      B        0x4d60 ; calibrate_model_acc + 20
        0x00004e6c:    4b0d        .K      LDR      r3,[pc,#52] ; [0x4ea4] = 0x200017e8
        0x00004e6e:    4a0f        .J      LDR      r2,[pc,#60] ; [0x4eac] = 0x20001770
        0x00004e70:    2000        .       MOVS     r0,#0
        0x00004e72:    0081        ..      LSLS     r1,r0,#2
        0x00004e74:    5854        TX      LDR      r4,[r2,r1]
        0x00004e76:    1c40        @.      ADDS     r0,r0,#1
        0x00004e78:    505c        \P      STR      r4,[r3,r1]
        0x00004e7a:    2806        .(      CMP      r0,#6
        0x00004e7c:    dbf9        ..      BLT      0x4e72 ; calibrate_model_acc + 294
        0x00004e7e:    2000        .       MOVS     r0,#0
        0x00004e80:    1c40        @.      ADDS     r0,r0,#1
        0x00004e82:    2806        .(      CMP      r0,#6
        0x00004e84:    dbfc        ..      BLT      0x4e80 ; calibrate_model_acc + 308
        0x00004e86:    2400        .$      MOVS     r4,#0
        0x00004e88:    2000        .       MOVS     r0,#0
        0x00004e8a:    1c40        @.      ADDS     r0,r0,#1
        0x00004e8c:    2803        .(      CMP      r0,#3
        0x00004e8e:    dbfc        ..      BLT      0x4e8a ; calibrate_model_acc + 318
        0x00004e90:    1c64        d.      ADDS     r4,r4,#1
        0x00004e92:    2c3c        <,      CMP      r4,#0x3c
        0x00004e94:    dbf8        ..      BLT      0x4e88 ; calibrate_model_acc + 316
        0x00004e96:    9802        ..      LDR      r0,[sp,#8]
        0x00004e98:    b007        ..      ADD      sp,sp,#0x1c
        0x00004e9a:    bdf0        ..      POP      {r4-r7,pc}
    $d
        0x00004e9c:    3089705f    _p.0    DCD    814313567
        0x00004ea0:    42c80000    ...B    DCD    1120403456
        0x00004ea4:    200017e8    ...     DCD    536877032
        0x00004ea8:    200019b8    ...     DCD    536877496
        0x00004eac:    20001770    p..     DCD    536876912
        0x00004eb0:    20001990    ...     DCD    536877456
        0x00004eb4:    20001800    ...     DCD    536877056
    $t
    i.checkMagFail
    checkMagFail
        0x00004eb8:    b5f7        ..      PUSH     {r0-r2,r4-r7,lr}
        0x00004eba:    b082        ..      SUB      sp,sp,#8
        0x00004ebc:    9802        ..      LDR      r0,[sp,#8]
        0x00004ebe:    4616        .F      MOV      r6,r2
        0x00004ec0:    0040        @.      LSLS     r0,r0,#1
        0x00004ec2:    460f        .F      MOV      r7,r1
        0x00004ec4:    0e00        ..      LSRS     r0,r0,#24
        0x00004ec6:    d105        ..      BNE      0x4ed4 ; checkMagFail + 28
        0x00004ec8:    0078        x.      LSLS     r0,r7,#1
        0x00004eca:    0e00        ..      LSRS     r0,r0,#24
        0x00004ecc:    d102        ..      BNE      0x4ed4 ; checkMagFail + 28
        0x00004ece:    0070        p.      LSLS     r0,r6,#1
        0x00004ed0:    0e00        ..      LSRS     r0,r0,#24
        0x00004ed2:    d03d        =.      BEQ      0x4f50 ; checkMagFail + 152
        0x00004ed4:    4611        .F      MOV      r1,r2
        0x00004ed6:    4608        .F      MOV      r0,r1
        0x00004ed8:    f001fe5c    ..\.    BL       __aeabi_fmul ; 0x6b94
        0x00004edc:    4605        .F      MOV      r5,r0
        0x00004ede:    4639        9F      MOV      r1,r7
        0x00004ee0:    4608        .F      MOV      r0,r1
        0x00004ee2:    f001fe57    ..W.    BL       __aeabi_fmul ; 0x6b94
        0x00004ee6:    9902        ..      LDR      r1,[sp,#8]
        0x00004ee8:    4604        .F      MOV      r4,r0
        0x00004eea:    4608        .F      MOV      r0,r1
        0x00004eec:    f001fe52    ..R.    BL       __aeabi_fmul ; 0x6b94
        0x00004ef0:    4621        !F      MOV      r1,r4
        0x00004ef2:    f001fddf    ....    BL       __aeabi_fadd ; 0x6ab4
        0x00004ef6:    4629        )F      MOV      r1,r5
        0x00004ef8:    f001fddc    ....    BL       __aeabi_fadd ; 0x6ab4
        0x00004efc:    f7fcf986    ....    BL       __aeabi_f2d ; 0x120c
        0x00004f00:    f001fd0c    ....    BL       sqrt ; 0x691c
        0x00004f04:    f7fbfbe2    ....    BL       __aeabi_d2f ; 0x6cc
        0x00004f08:    9000        ..      STR      r0,[sp,#0]
        0x00004f0a:    f7fdfdeb    ....    BL       GetMagGuass ; 0x2ae4
        0x00004f0e:    f7fcf97d    ..}.    BL       __aeabi_f2d ; 0x120c
        0x00004f12:    4604        .F      MOV      r4,r0
        0x00004f14:    460d        .F      MOV      r5,r1
        0x00004f16:    f7fdfde5    ....    BL       GetMagGuass ; 0x2ae4
        0x00004f1a:    9900        ..      LDR      r1,[sp,#0]
        0x00004f1c:    f001feca    ....    BL       __aeabi_fsub ; 0x6cb4
        0x00004f20:    0040        @.      LSLS     r0,r0,#1
        0x00004f22:    0840        @.      LSRS     r0,r0,#1
        0x00004f24:    f7fcf972    ..r.    BL       __aeabi_f2d ; 0x120c
        0x00004f28:    4622        "F      MOV      r2,r4
        0x00004f2a:    462b        +F      MOV      r3,r5
        0x00004f2c:    f7fbfdb4    ....    BL       __aeabi_ddiv ; 0xa98
        0x00004f30:    2201        ."      MOVS     r2,#1
        0x00004f32:    0792        ..      LSLS     r2,r2,#30
        0x00004f34:    4b09        .K      LDR      r3,[pc,#36] ; [0x4f5c] = 0x3fc33333
        0x00004f36:    f001fd89    ....    BL       __aeabi_cdrcmple ; 0x6a4c
        0x00004f3a:    d309        ..      BCC      0x4f50 ; checkMagFail + 152
        0x00004f3c:    4631        1F      MOV      r1,r6
        0x00004f3e:    9802        ..      LDR      r0,[sp,#8]
        0x00004f40:    f001fdfe    ....    BL       __aeabi_cfcmple ; 0x6b40
        0x00004f44:    d207        ..      BCS      0x4f56 ; checkMagFail + 158
        0x00004f46:    4639        9F      MOV      r1,r7
        0x00004f48:    4630        0F      MOV      r0,r6
        0x00004f4a:    f001fe7b    ..{.    BL       __aeabi_cfrcmple ; 0x6c44
        0x00004f4e:    d202        ..      BCS      0x4f56 ; checkMagFail + 158
        0x00004f50:    2001        .       MOVS     r0,#1
        0x00004f52:    b005        ..      ADD      sp,sp,#0x14
        0x00004f54:    bdf0        ..      POP      {r4-r7,pc}
        0x00004f56:    2000        .       MOVS     r0,#0
        0x00004f58:    b005        ..      ADD      sp,sp,#0x14
        0x00004f5a:    bdf0        ..      POP      {r4-r7,pc}
    $d
        0x00004f5c:    3fc33333    33.?    DCD    1069757235
    $t
    i.clear_LCD
    clear_LCD
        0x00004f60:    b530        0.      PUSH     {r4,r5,lr}
        0x00004f62:    2400        .$      MOVS     r4,#0
        0x00004f64:    e00e        ..      B        0x4f84 ; clear_LCD + 36
        0x00004f66:    b2e1        ..      UXTB     r1,r4
        0x00004f68:    2000        .       MOVS     r0,#0
        0x00004f6a:    f000fd5d    ..].    BL       oled_address ; 0x5a28
        0x00004f6e:    2500        .%      MOVS     r5,#0
        0x00004f70:    e004        ..      B        0x4f7c ; clear_LCD + 28
        0x00004f72:    2000        .       MOVS     r0,#0
        0x00004f74:    f000fd51    ..Q.    BL       oledWriteData ; 0x5a1a
        0x00004f78:    1c68        h.      ADDS     r0,r5,#1
        0x00004f7a:    b205        ..      SXTH     r5,r0
        0x00004f7c:    2d80        .-      CMP      r5,#0x80
        0x00004f7e:    dbf8        ..      BLT      0x4f72 ; clear_LCD + 18
        0x00004f80:    1c60        `.      ADDS     r0,r4,#1
        0x00004f82:    b204        ..      SXTH     r4,r0
        0x00004f84:    2c08        .,      CMP      r4,#8
        0x00004f86:    dbee        ..      BLT      0x4f66 ; clear_LCD + 6
        0x00004f88:    bd30        0.      POP      {r4,r5,pc}
        0x00004f8a:    0000        ..      MOVS     r0,r0
    i.cos
    cos
        0x00004f8c:    b500        ..      PUSH     {lr}
        0x00004f8e:    004a        J.      LSLS     r2,r1,#1
        0x00004f90:    4b24        $K      LDR      r3,[pc,#144] ; [0x5024] = 0x3fe921fb
        0x00004f92:    0852        R.      LSRS     r2,r2,#1
        0x00004f94:    b087        ..      SUB      sp,sp,#0x1c
        0x00004f96:    429a        .B      CMP      r2,r3
        0x00004f98:    dc02        ..      BGT      0x4fa0 ; cos + 20
        0x00004f9a:    2200        ."      MOVS     r2,#0
        0x00004f9c:    4613        .F      MOV      r3,r2
        0x00004f9e:    e02a        *.      B        0x4ff6 ; cos + 106
        0x00004fa0:    4b21        !K      LDR      r3,[pc,#132] ; [0x5028] = 0x7ff00000
        0x00004fa2:    429a        .B      CMP      r2,r3
        0x00004fa4:    d10c        ..      BNE      0x4fc0 ; cos + 52
        0x00004fa6:    2800        .(      CMP      r0,#0
        0x00004fa8:    d10c        ..      BNE      0x4fc4 ; cos + 56
        0x00004faa:    2001        .       MOVS     r0,#1
        0x00004fac:    f7fcfa9d    ....    BL       __set_errno ; 0x14ea
        0x00004fb0:    2200        ."      MOVS     r2,#0
        0x00004fb2:    4613        .F      MOV      r3,r2
        0x00004fb4:    4610        .F      MOV      r0,r2
        0x00004fb6:    4611        .F      MOV      r1,r2
        0x00004fb8:    f7fbfd6e    ..n.    BL       __aeabi_ddiv ; 0xa98
        0x00004fbc:    b007        ..      ADD      sp,sp,#0x1c
        0x00004fbe:    bd00        ..      POP      {pc}
        0x00004fc0:    429a        .B      CMP      r2,r3
        0x00004fc2:    db04        ..      BLT      0x4fce ; cos + 66
        0x00004fc4:    2201        ."      MOVS     r2,#1
        0x00004fc6:    f7fcfb7d    ..}.    BL       __ARM_scalbn ; 0x16c4
        0x00004fca:    b007        ..      ADD      sp,sp,#0x1c
        0x00004fcc:    bd00        ..      POP      {pc}
        0x00004fce:    aa02        ..      ADD      r2,sp,#8
        0x00004fd0:    f7fff9c8    ....    BL       __ieee754_rem_pio2 ; 0x4364
        0x00004fd4:    0781        ..      LSLS     r1,r0,#30
        0x00004fd6:    0f89        ..      LSRS     r1,r1,#30
        0x00004fd8:    d00b        ..      BEQ      0x4ff2 ; cos + 102
        0x00004fda:    2001        .       MOVS     r0,#1
        0x00004fdc:    2901        .)      CMP      r1,#1
        0x00004fde:    d00e        ..      BEQ      0x4ffe ; cos + 114
        0x00004fe0:    2902        .)      CMP      r1,#2
        0x00004fe2:    d016        ..      BEQ      0x5012 ; cos + 134
        0x00004fe4:    9000        ..      STR      r0,[sp,#0]
        0x00004fe6:    a802        ..      ADD      r0,sp,#8
        0x00004fe8:    c80f        ..      LDM      r0,{r0-r3}
        0x00004fea:    f7fffc5b    ..[.    BL       __kernel_sin ; 0x48a4
        0x00004fee:    b007        ..      ADD      sp,sp,#0x1c
        0x00004ff0:    bd00        ..      POP      {pc}
        0x00004ff2:    a802        ..      ADD      r0,sp,#8
        0x00004ff4:    c80f        ..      LDM      r0,{r0-r3}
        0x00004ff6:    f7fffb85    ....    BL       __kernel_cos ; 0x4704
        0x00004ffa:    b007        ..      ADD      sp,sp,#0x1c
        0x00004ffc:    bd00        ..      POP      {pc}
        0x00004ffe:    9000        ..      STR      r0,[sp,#0]
        0x00005000:    a802        ..      ADD      r0,sp,#8
        0x00005002:    c80f        ..      LDM      r0,{r0-r3}
        0x00005004:    f7fffc4e    ..N.    BL       __kernel_sin ; 0x48a4
        0x00005008:    2201        ."      MOVS     r2,#1
        0x0000500a:    07d2        ..      LSLS     r2,r2,#31
        0x0000500c:    4051        Q@      EORS     r1,r1,r2
        0x0000500e:    b007        ..      ADD      sp,sp,#0x1c
        0x00005010:    bd00        ..      POP      {pc}
        0x00005012:    a802        ..      ADD      r0,sp,#8
        0x00005014:    c80f        ..      LDM      r0,{r0-r3}
        0x00005016:    f7fffb75    ..u.    BL       __kernel_cos ; 0x4704
        0x0000501a:    2201        ."      MOVS     r2,#1
        0x0000501c:    07d2        ..      LSLS     r2,r2,#31
        0x0000501e:    4051        Q@      EORS     r1,r1,r2
        0x00005020:    b007        ..      ADD      sp,sp,#0x1c
        0x00005022:    bd00        ..      POP      {pc}
    $d
        0x00005024:    3fe921fb    .!.?    DCD    1072243195
        0x00005028:    7ff00000    ....    DCD    2146435072
    $t
    i.ferror
    ferror
        0x0000502c:    4601        .F      MOV      r1,r0
        0x0000502e:    2000        .       MOVS     r0,#0
        0x00005030:    43c0        .C      MVNS     r0,r0
        0x00005032:    4770        pG      BX       lr
    i.find_delta
    find_delta
        0x00005034:    b5f0        ..      PUSH     {r4-r7,lr}
        0x00005036:    4606        .F      MOV      r6,r0
        0x00005038:    2000        .       MOVS     r0,#0
        0x0000503a:    b085        ..      SUB      sp,sp,#0x14
        0x0000503c:    9002        ..      STR      r0,[sp,#8]
        0x0000503e:    2e00        ..      CMP      r6,#0
        0x00005040:    dd42        B.      BLE      0x50c8 ; find_delta + 148
        0x00005042:    1c47        G.      ADDS     r7,r0,#1
        0x00005044:    42b7        .B      CMP      r7,r6
        0x00005046:    da3a        :.      BGE      0x50be ; find_delta + 138
        0x00005048:    0080        ..      LSLS     r0,r0,#2
        0x0000504a:    9001        ..      STR      r0,[sp,#4]
        0x0000504c:    9802        ..      LDR      r0,[sp,#8]
        0x0000504e:    2128        (!      MOVS     r1,#0x28
        0x00005050:    4348        HC      MULS     r0,r1,r0
        0x00005052:    493b        ;I      LDR      r1,[pc,#236] ; [0x5140] = 0x20001800
        0x00005054:    1840        @.      ADDS     r0,r0,r1
        0x00005056:    9000        ..      STR      r0,[sp,#0]
        0x00005058:    9901        ..      LDR      r1,[sp,#4]
        0x0000505a:    00bd        ..      LSLS     r5,r7,#2
        0x0000505c:    5841        AX      LDR      r1,[r0,r1]
        0x0000505e:    5940        @Y      LDR      r0,[r0,r5]
        0x00005060:    f7fcf8fe    ....    BL       __aeabi_fdiv ; 0x1260
        0x00005064:    9003        ..      STR      r0,[sp,#0xc]
        0x00005066:    0040        @.      LSLS     r0,r0,#1
        0x00005068:    0e00        ..      LSRS     r0,r0,#24
        0x0000506a:    d023        #.      BEQ      0x50b4 ; find_delta + 128
        0x0000506c:    4c35        5L      LDR      r4,[pc,#212] ; [0x5144] = 0x20001990
        0x0000506e:    9801        ..      LDR      r0,[sp,#4]
        0x00005070:    5821        !X      LDR      r1,[r4,r0]
        0x00005072:    9803        ..      LDR      r0,[sp,#0xc]
        0x00005074:    f001fd8e    ....    BL       __aeabi_fmul ; 0x6b94
        0x00005078:    5961        aY      LDR      r1,[r4,r5]
        0x0000507a:    f001fe0f    ....    BL       __aeabi_frsub ; 0x6c9c
        0x0000507e:    5160        `Q      STR      r0,[r4,r5]
        0x00005080:    463c        <F      MOV      r4,r7
        0x00005082:    42b7        .B      CMP      r7,r6
        0x00005084:    da16        ..      BGE      0x50b4 ; find_delta + 128
        0x00005086:    2028        (       MOVS     r0,#0x28
        0x00005088:    4621        !F      MOV      r1,r4
        0x0000508a:    4341        AC      MULS     r1,r0,r1
        0x0000508c:    482c        ,H      LDR      r0,[pc,#176] ; [0x5140] = 0x20001800
        0x0000508e:    1808        ..      ADDS     r0,r1,r0
        0x00005090:    9901        ..      LDR      r1,[sp,#4]
        0x00005092:    9004        ..      STR      r0,[sp,#0x10]
        0x00005094:    5841        AX      LDR      r1,[r0,r1]
        0x00005096:    9803        ..      LDR      r0,[sp,#0xc]
        0x00005098:    f001fd7c    ..|.    BL       __aeabi_fmul ; 0x6b94
        0x0000509c:    4602        .F      MOV      r2,r0
        0x0000509e:    9804        ..      LDR      r0,[sp,#0x10]
        0x000050a0:    5941        AY      LDR      r1,[r0,r5]
        0x000050a2:    4610        .F      MOV      r0,r2
        0x000050a4:    f001fdfa    ....    BL       __aeabi_frsub ; 0x6c9c
        0x000050a8:    4601        .F      MOV      r1,r0
        0x000050aa:    9804        ..      LDR      r0,[sp,#0x10]
        0x000050ac:    1c64        d.      ADDS     r4,r4,#1
        0x000050ae:    5141        AQ      STR      r1,[r0,r5]
        0x000050b0:    42b4        .B      CMP      r4,r6
        0x000050b2:    dbe8        ..      BLT      0x5086 ; find_delta + 82
        0x000050b4:    1c7f        ..      ADDS     r7,r7,#1
        0x000050b6:    42b7        .B      CMP      r7,r6
        0x000050b8:    da01        ..      BGE      0x50be ; find_delta + 138
        0x000050ba:    9800        ..      LDR      r0,[sp,#0]
        0x000050bc:    e7cc        ..      B        0x5058 ; find_delta + 36
        0x000050be:    9802        ..      LDR      r0,[sp,#8]
        0x000050c0:    1c40        @.      ADDS     r0,r0,#1
        0x000050c2:    9002        ..      STR      r0,[sp,#8]
        0x000050c4:    42b0        .B      CMP      r0,r6
        0x000050c6:    dbbc        ..      BLT      0x5042 ; find_delta + 14
        0x000050c8:    1e74        t.      SUBS     r4,r6,#1
        0x000050ca:    d42b        +.      BMI      0x5124 ; find_delta + 240
        0x000050cc:    2028        (       MOVS     r0,#0x28
        0x000050ce:    4621        !F      MOV      r1,r4
        0x000050d0:    4341        AC      MULS     r1,r0,r1
        0x000050d2:    481b        .H      LDR      r0,[pc,#108] ; [0x5140] = 0x20001800
        0x000050d4:    00a5        ..      LSLS     r5,r4,#2
        0x000050d6:    180f        ..      ADDS     r7,r1,r0
        0x000050d8:    9700        ..      STR      r7,[sp,#0]
        0x000050da:    9501        ..      STR      r5,[sp,#4]
        0x000050dc:    4819        .H      LDR      r0,[pc,#100] ; [0x5144] = 0x20001990
        0x000050de:    5979        yY      LDR      r1,[r7,r5]
        0x000050e0:    5940        @Y      LDR      r0,[r0,r5]
        0x000050e2:    f7fcf8bd    ....    BL       __aeabi_fdiv ; 0x1260
        0x000050e6:    4917        .I      LDR      r1,[pc,#92] ; [0x5144] = 0x20001990
        0x000050e8:    5148        HQ      STR      r0,[r1,r5]
        0x000050ea:    207f        .       MOVS     r0,#0x7f
        0x000050ec:    05c0        ..      LSLS     r0,r0,#23
        0x000050ee:    5178        xQ      STR      r0,[r7,r5]
        0x000050f0:    2500        .%      MOVS     r5,#0
        0x000050f2:    2c00        .,      CMP      r4,#0
        0x000050f4:    dd14        ..      BLE      0x5120 ; find_delta + 236
        0x000050f6:    9800        ..      LDR      r0,[sp,#0]
        0x000050f8:    00af        ..      LSLS     r7,r5,#2
        0x000050fa:    59c2        .Y      LDR      r2,[r0,r7]
        0x000050fc:    4911        .I      LDR      r1,[pc,#68] ; [0x5144] = 0x20001990
        0x000050fe:    9801        ..      LDR      r0,[sp,#4]
        0x00005100:    5809        .X      LDR      r1,[r1,r0]
        0x00005102:    4610        .F      MOV      r0,r2
        0x00005104:    f001fd46    ..F.    BL       __aeabi_fmul ; 0x6b94
        0x00005108:    490e        .I      LDR      r1,[pc,#56] ; [0x5144] = 0x20001990
        0x0000510a:    59c9        .Y      LDR      r1,[r1,r7]
        0x0000510c:    f001fdc6    ....    BL       __aeabi_frsub ; 0x6c9c
        0x00005110:    490c        .I      LDR      r1,[pc,#48] ; [0x5144] = 0x20001990
        0x00005112:    1c6d        m.      ADDS     r5,r5,#1
        0x00005114:    51c8        .Q      STR      r0,[r1,r7]
        0x00005116:    2000        .       MOVS     r0,#0
        0x00005118:    9900        ..      LDR      r1,[sp,#0]
        0x0000511a:    42a5        .B      CMP      r5,r4
        0x0000511c:    51c8        .Q      STR      r0,[r1,r7]
        0x0000511e:    dbea        ..      BLT      0x50f6 ; find_delta + 194
        0x00005120:    1e64        d.      SUBS     r4,r4,#1
        0x00005122:    d5d3        ..      BPL      0x50cc ; find_delta + 152
        0x00005124:    2000        .       MOVS     r0,#0
        0x00005126:    2e00        ..      CMP      r6,#0
        0x00005128:    dd07        ..      BLE      0x513a ; find_delta + 262
        0x0000512a:    4a06        .J      LDR      r2,[pc,#24] ; [0x5144] = 0x20001990
        0x0000512c:    4b06        .K      LDR      r3,[pc,#24] ; [0x5148] = 0x200019b8
        0x0000512e:    0081        ..      LSLS     r1,r0,#2
        0x00005130:    5854        TX      LDR      r4,[r2,r1]
        0x00005132:    1c40        @.      ADDS     r0,r0,#1
        0x00005134:    505c        \P      STR      r4,[r3,r1]
        0x00005136:    42b0        .B      CMP      r0,r6
        0x00005138:    dbf9        ..      BLT      0x512e ; find_delta + 250
        0x0000513a:    b005        ..      ADD      sp,sp,#0x14
        0x0000513c:    bdf0        ..      POP      {r4-r7,pc}
    $d
        0x0000513e:    0000        ..      DCW    0
        0x00005140:    20001800    ...     DCD    536877056
        0x00005144:    20001990    ...     DCD    536877456
        0x00005148:    200019b8    ...     DCD    536877496
    $t
    i.fputc
    fputc
        0x0000514c:    b530        0.      PUSH     {r4,r5,lr}
        0x0000514e:    4604        .F      MOV      r4,r0
        0x00005150:    460d        .F      MOV      r5,r1
        0x00005152:    4620         F      MOV      r0,r4
        0x00005154:    f7fefda8    ....    BL       SendChar ; 0x3ca8
        0x00005158:    4620         F      MOV      r0,r4
        0x0000515a:    bd30        0.      POP      {r4,r5,pc}
    i.getTickCount
    getTickCount
        0x0000515c:    4801        .H      LDR      r0,[pc,#4] ; [0x5164] = 0x20000680
        0x0000515e:    6800        .h      LDR      r0,[r0,#0]
        0x00005160:    4770        pG      BX       lr
    $d
        0x00005162:    0000        ..      DCW    0
        0x00005164:    20000680    ...     DCD    536872576
    $t
    i.invSqrt
    invSqrt
        0x00005168:    b510        ..      PUSH     {r4,lr}
        0x0000516a:    2100        .!      MOVS     r1,#0
        0x0000516c:    4604        .F      MOV      r4,r0
        0x0000516e:    43c9        .C      MVNS     r1,r1
        0x00005170:    f7fcf994    ....    BL       __ARM_scalbnf ; 0x149c
        0x00005174:    4a08        .J      LDR      r2,[pc,#32] ; [0x5198] = 0x5f3759df
        0x00005176:    1061        a.      ASRS     r1,r4,#1
        0x00005178:    1a54        T.      SUBS     r4,r2,r1
        0x0000517a:    4621        !F      MOV      r1,r4
        0x0000517c:    f001fd0a    ....    BL       __aeabi_fmul ; 0x6b94
        0x00005180:    4621        !F      MOV      r1,r4
        0x00005182:    f001fd07    ....    BL       __aeabi_fmul ; 0x6b94
        0x00005186:    21ff        .!      MOVS     r1,#0xff
        0x00005188:    0589        ..      LSLS     r1,r1,#22
        0x0000518a:    f001fd87    ....    BL       __aeabi_frsub ; 0x6c9c
        0x0000518e:    4621        !F      MOV      r1,r4
        0x00005190:    f001fd00    ....    BL       __aeabi_fmul ; 0x6b94
        0x00005194:    bd10        ..      POP      {r4,pc}
    $d
        0x00005196:    0000        ..      DCW    0
        0x00005198:    5f3759df    .Y7_    DCD    1597463007
    $t
    i.main
    main
        0x0000519c:    b088        ..      SUB      sp,sp,#0x20
        0x0000519e:    2000        .       MOVS     r0,#0
        0x000051a0:    9003        ..      STR      r0,[sp,#0xc]
        0x000051a2:    bf00        ..      NOP      
        0x000051a4:    bf00        ..      NOP      
        0x000051a6:    bf00        ..      NOP      
        0x000051a8:    2400        .$      MOVS     r4,#0
        0x000051aa:    48df        .H      LDR      r0,[pc,#892] ; [0x5528] = 0x50000100
        0x000051ac:    6800        .h      LDR      r0,[r0,#0]
        0x000051ae:    2801        .(      CMP      r0,#1
        0x000051b0:    d101        ..      BNE      0x51b6 ; main + 26
        0x000051b2:    f7fefc6b    ..k.    BL       SYS_LockReg ; 0x3a8c
        0x000051b6:    f7fefc01    ....    BL       SYS_Init ; 0x39bc
        0x000051ba:    f7fefff1    ....    BL       UART_Init ; 0x41a0
        0x000051be:    f7fef84b    ..K.    BL       Init_GPIO ; 0x3258
        0x000051c2:    48da        .H      LDR      r0,[pc,#872] ; [0x552c] = 0x50004040
        0x000051c4:    6880        .h      LDR      r0,[r0,#8]
        0x000051c6:    2101        .!      MOVS     r1,#1
        0x000051c8:    4308        .C      ORRS     r0,r0,r1
        0x000051ca:    49d8        .I      LDR      r1,[pc,#864] ; [0x552c] = 0x50004040
        0x000051cc:    6088        .`      STR      r0,[r1,#8]
        0x000051ce:    2201        ."      MOVS     r2,#1
        0x000051d0:    4611        .F      MOV      r1,r2
        0x000051d2:    48d6        .H      LDR      r0,[pc,#856] ; [0x552c] = 0x50004040
        0x000051d4:    f7fdfc2b    ..+.    BL       GPIO_SetMode ; 0x2a2e
        0x000051d8:    f7fef8b4    ....    BL       Init_KEY ; 0x3344
        0x000051dc:    49d4        .I      LDR      r1,[pc,#848] ; [0x5530] = 0x61a80
        0x000051de:    48d5        .H      LDR      r0,[pc,#852] ; [0x5534] = 0x40020000
        0x000051e0:    f7fdffbe    ....    BL       I2C_Open ; 0x3160
        0x000051e4:    48d3        .H      LDR      r0,[pc,#844] ; [0x5534] = 0x40020000
        0x000051e6:    f7fdfd7a    ..z.    BL       I2C_EnableInt ; 0x2cde
        0x000051ea:    2012        .       MOVS     r0,#0x12
        0x000051ec:    f7fefa5c    ..\.    BL       NVIC_EnableIRQ ; 0x36a8
        0x000051f0:    2100        .!      MOVS     r1,#0
        0x000051f2:    2012        .       MOVS     r0,#0x12
        0x000051f4:    f7fefa62    ..b.    BL       NVIC_SetPriority ; 0x36bc
        0x000051f8:    f7fef94e    ..N.    BL       Init_MPU6050 ; 0x3498
        0x000051fc:    f7fef8f6    ....    BL       Init_LCD ; 0x33ec
        0x00005200:    f7fffeae    ....    BL       clear_LCD ; 0x4f60
        0x00005204:    a1cc        ..      ADR      r1,{pc}+0x334 ; 0x5538
        0x00005206:    2000        .       MOVS     r0,#0
        0x00005208:    f000fc4a    ..J.    BL       print_Line ; 0x5aa0
        0x0000520c:    f7fef88a    ....    BL       Init_HDC1000 ; 0x3324
        0x00005210:    f7fcfc64    ..d.    BL       ADC_Init ; 0x1adc
        0x00005214:    f7fdffe4    ....    BL       Init_AHRS ; 0x31e0
        0x00005218:    f7fdfc70    ..p.    BL       GyroCalibrate ; 0x2afc
        0x0000521c:    f7fcfd6c    ..l.    BL       AccCalibrationZ ; 0x1cf8
        0x00005220:    4aca        .J      LDR      r2,[pc,#808] ; [0x554c] = 0x6d84
        0x00005222:    69d1        .i      LDR      r1,[r2,#0x1c]
        0x00005224:    6990        .i      LDR      r0,[r2,#0x18]
        0x00005226:    f7fdfc2b    ..+.    BL       GPIO_SetPinOutLow ; 0x2a80
        0x0000522a:    4ac8        .J      LDR      r2,[pc,#800] ; [0x554c] = 0x6d84
        0x0000522c:    6d91        .m      LDR      r1,[r2,#0x58]
        0x0000522e:    6d50        Pm      LDR      r0,[r2,#0x54]
        0x00005230:    f7fdfc26    ..&.    BL       GPIO_SetPinOutLow ; 0x2a80
        0x00005234:    4ac5        .J      LDR      r2,[pc,#788] ; [0x554c] = 0x6d84
        0x00005236:    6c11        .l      LDR      r1,[r2,#0x40]
        0x00005238:    6bd0        .k      LDR      r0,[r2,#0x3c]
        0x0000523a:    f7fdfc21    ..!.    BL       GPIO_SetPinOutLow ; 0x2a80
        0x0000523e:    4ac3        .J      LDR      r2,[pc,#780] ; [0x554c] = 0x6d84
        0x00005240:    6cd1        .l      LDR      r1,[r2,#0x4c]
        0x00005242:    6c90        .l      LDR      r0,[r2,#0x48]
        0x00005244:    f7fdfc1c    ....    BL       GPIO_SetPinOutLow ; 0x2a80
        0x00005248:    e16d        m.      B        0x5526 ; main + 906
        0x0000524a:    2001        .       MOVS     r0,#1
        0x0000524c:    9003        ..      STR      r0,[sp,#0xc]
        0x0000524e:    48c0        .H      LDR      r0,[pc,#768] ; [0x5550] = 0x20000061
        0x00005250:    7800        .x      LDRB     r0,[r0,#0]
        0x00005252:    2800        .(      CMP      r0,#0
        0x00005254:    d00b        ..      BEQ      0x526e ; main + 210
        0x00005256:    2000        .       MOVS     r0,#0
        0x00005258:    49bd        .I      LDR      r1,[pc,#756] ; [0x5550] = 0x20000061
        0x0000525a:    7008        .p      STRB     r0,[r1,#0]
        0x0000525c:    a1bd        ..      ADR      r1,{pc}+0x2f8 ; 0x5554
        0x0000525e:    48c1        .H      LDR      r0,[pc,#772] ; [0x5564] = 0x20000784
        0x00005260:    f7faffcc    ....    BL       __2sprintf ; 0x1fc
        0x00005264:    49bf        .I      LDR      r1,[pc,#764] ; [0x5564] = 0x20000784
        0x00005266:    2003        .       MOVS     r0,#3
        0x00005268:    f000fc1a    ....    BL       print_Line ; 0x5aa0
        0x0000526c:    e01e        ..      B        0x52ac ; main + 272
        0x0000526e:    48be        .H      LDR      r0,[pc,#760] ; [0x5568] = 0x20000062
        0x00005270:    7800        .x      LDRB     r0,[r0,#0]
        0x00005272:    2800        .(      CMP      r0,#0
        0x00005274:    d00b        ..      BEQ      0x528e ; main + 242
        0x00005276:    2000        .       MOVS     r0,#0
        0x00005278:    49bb        .I      LDR      r1,[pc,#748] ; [0x5568] = 0x20000062
        0x0000527a:    7008        .p      STRB     r0,[r1,#0]
        0x0000527c:    a1bb        ..      ADR      r1,{pc}+0x2f0 ; 0x556c
        0x0000527e:    48b9        .H      LDR      r0,[pc,#740] ; [0x5564] = 0x20000784
        0x00005280:    f7faffbc    ....    BL       __2sprintf ; 0x1fc
        0x00005284:    49b7        .I      LDR      r1,[pc,#732] ; [0x5564] = 0x20000784
        0x00005286:    2003        .       MOVS     r0,#3
        0x00005288:    f000fc0a    ....    BL       print_Line ; 0x5aa0
        0x0000528c:    e00e        ..      B        0x52ac ; main + 272
        0x0000528e:    48bb        .H      LDR      r0,[pc,#748] ; [0x557c] = 0x20000063
        0x00005290:    7800        .x      LDRB     r0,[r0,#0]
        0x00005292:    2800        .(      CMP      r0,#0
        0x00005294:    d00a        ..      BEQ      0x52ac ; main + 272
        0x00005296:    2000        .       MOVS     r0,#0
        0x00005298:    49b8        .I      LDR      r1,[pc,#736] ; [0x557c] = 0x20000063
        0x0000529a:    7008        .p      STRB     r0,[r1,#0]
        0x0000529c:    a1b8        ..      ADR      r1,{pc}+0x2e4 ; 0x5580
        0x0000529e:    48b1        .H      LDR      r0,[pc,#708] ; [0x5564] = 0x20000784
        0x000052a0:    f7faffac    ....    BL       __2sprintf ; 0x1fc
        0x000052a4:    49af        .I      LDR      r1,[pc,#700] ; [0x5564] = 0x20000784
        0x000052a6:    2003        .       MOVS     r0,#3
        0x000052a8:    f000fbfa    ....    BL       print_Line ; 0x5aa0
        0x000052ac:    9803        ..      LDR      r0,[sp,#0xc]
        0x000052ae:    2800        .(      CMP      r0,#0
        0x000052b0:    d07e        ~.      BEQ      0x53b0 ; main + 532
        0x000052b2:    48b7        .H      LDR      r0,[pc,#732] ; [0x5590] = 0x1001
        0x000052b4:    f7fcfcae    ....    BL       ADC_SetGPIOChannel ; 0x1c14
        0x000052b8:    f7fcfce2    ....    BL       ADC_SingleModeTest ; 0x1c80
        0x000052bc:    49b5        .I      LDR      r1,[pc,#724] ; [0x5594] = 0x2000006c
        0x000052be:    6008        .`      STR      r0,[r1,#0]
        0x000052c0:    48b5        .H      LDR      r0,[pc,#724] ; [0x5598] = 0x2002
        0x000052c2:    f7fcfca7    ....    BL       ADC_SetGPIOChannel ; 0x1c14
        0x000052c6:    f7fcfcdb    ....    BL       ADC_SingleModeTest ; 0x1c80
        0x000052ca:    49b4        .I      LDR      r1,[pc,#720] ; [0x559c] = 0x20000064
        0x000052cc:    6008        .`      STR      r0,[r1,#0]
        0x000052ce:    48b4        .H      LDR      r0,[pc,#720] ; [0x55a0] = 0x10010
        0x000052d0:    f7fcfca0    ....    BL       ADC_SetGPIOChannel ; 0x1c14
        0x000052d4:    f7fcfcd4    ....    BL       ADC_SingleModeTest ; 0x1c80
        0x000052d8:    49b2        .I      LDR      r1,[pc,#712] ; [0x55a4] = 0x20000068
        0x000052da:    6008        .`      STR      r0,[r1,#0]
        0x000052dc:    2000        .       MOVS     r0,#0
        0x000052de:    9004        ..      STR      r0,[sp,#0x10]
        0x000052e0:    9005        ..      STR      r0,[sp,#0x14]
        0x000052e2:    9006        ..      STR      r0,[sp,#0x18]
        0x000052e4:    9007        ..      STR      r0,[sp,#0x1c]
        0x000052e6:    48ad        .H      LDR      r0,[pc,#692] ; [0x559c] = 0x20000064
        0x000052e8:    a1af        ..      ADR      r1,{pc}+0x2c0 ; 0x55a8
        0x000052ea:    6802        .h      LDR      r2,[r0,#0]
        0x000052ec:    a804        ..      ADD      r0,sp,#0x10
        0x000052ee:    f7faff85    ....    BL       __2sprintf ; 0x1fc
        0x000052f2:    a904        ..      ADD      r1,sp,#0x10
        0x000052f4:    2002        .       MOVS     r0,#2
        0x000052f6:    f000fbd3    ....    BL       print_Line ; 0x5aa0
        0x000052fa:    2000        .       MOVS     r0,#0
        0x000052fc:    9004        ..      STR      r0,[sp,#0x10]
        0x000052fe:    9005        ..      STR      r0,[sp,#0x14]
        0x00005300:    9006        ..      STR      r0,[sp,#0x18]
        0x00005302:    9007        ..      STR      r0,[sp,#0x1c]
        0x00005304:    48a3        .H      LDR      r0,[pc,#652] ; [0x5594] = 0x2000006c
        0x00005306:    6803        .h      LDR      r3,[r0,#0]
        0x00005308:    48a6        .H      LDR      r0,[pc,#664] ; [0x55a4] = 0x20000068
        0x0000530a:    a1aa        ..      ADR      r1,{pc}+0x2aa ; 0x55b4
        0x0000530c:    6802        .h      LDR      r2,[r0,#0]
        0x0000530e:    a804        ..      ADD      r0,sp,#0x10
        0x00005310:    f7faff74    ..t.    BL       __2sprintf ; 0x1fc
        0x00005314:    a904        ..      ADD      r1,sp,#0x10
        0x00005316:    2003        .       MOVS     r0,#3
        0x00005318:    f000fbc2    ....    BL       print_Line ; 0x5aa0
        0x0000531c:    f7fefb06    ....    BL       Read_MPU6050_AccX ; 0x392c
        0x00005320:    b200        ..      SXTH     r0,r0
        0x00005322:    49a8        .I      LDR      r1,[pc,#672] ; [0x55c4] = 0x200006aa
        0x00005324:    8008        ..      STRH     r0,[r1,#0]
        0x00005326:    f7fefb0d    ....    BL       Read_MPU6050_AccY ; 0x3944
        0x0000532a:    b200        ..      SXTH     r0,r0
        0x0000532c:    49a5        .I      LDR      r1,[pc,#660] ; [0x55c4] = 0x200006aa
        0x0000532e:    8048        H.      STRH     r0,[r1,#2]
        0x00005330:    f7fefb14    ....    BL       Read_MPU6050_AccZ ; 0x395c
        0x00005334:    b200        ..      SXTH     r0,r0
        0x00005336:    49a3        .I      LDR      r1,[pc,#652] ; [0x55c4] = 0x200006aa
        0x00005338:    8088        ..      STRH     r0,[r1,#4]
        0x0000533a:    f7fefb1b    ....    BL       Read_MPU6050_GyroX ; 0x3974
        0x0000533e:    b200        ..      SXTH     r0,r0
        0x00005340:    49a1        .I      LDR      r1,[pc,#644] ; [0x55c8] = 0x200006a4
        0x00005342:    8008        ..      STRH     r0,[r1,#0]
        0x00005344:    f7fefb22    ..".    BL       Read_MPU6050_GyroY ; 0x398c
        0x00005348:    b200        ..      SXTH     r0,r0
        0x0000534a:    499f        .I      LDR      r1,[pc,#636] ; [0x55c8] = 0x200006a4
        0x0000534c:    8048        H.      STRH     r0,[r1,#2]
        0x0000534e:    f7fefb29    ..).    BL       Read_MPU6050_GyroZ ; 0x39a4
        0x00005352:    b200        ..      SXTH     r0,r0
        0x00005354:    499c        .I      LDR      r1,[pc,#624] ; [0x55c8] = 0x200006a4
        0x00005356:    8088        ..      STRH     r0,[r1,#4]
        0x00005358:    489a        .H      LDR      r0,[pc,#616] ; [0x55c4] = 0x200006aa
        0x0000535a:    f000fa5f    .._.    BL       nvtInputSensorRawACC ; 0x581c
        0x0000535e:    489a        .H      LDR      r0,[pc,#616] ; [0x55c8] = 0x200006a4
        0x00005360:    f000fa84    ....    BL       nvtInputSensorRawGYRO ; 0x586c
        0x00005364:    2003        .       MOVS     r0,#3
        0x00005366:    f000faed    ....    BL       nvtUpdateAHRS ; 0x5944
        0x0000536a:    4668        hF      MOV      r0,sp
        0x0000536c:    f000fa08    ....    BL       nvtGetEulerRPY ; 0x5780
        0x00005370:    2400        .$      MOVS     r4,#0
        0x00005372:    e00a        ..      B        0x538a ; main + 494
        0x00005374:    00a1        ..      LSLS     r1,r4,#2
        0x00005376:    466a        jF      MOV      r2,sp
        0x00005378:    5850        PX      LDR      r0,[r2,r1]
        0x0000537a:    f7fcf821    ..!.    BL       __aeabi_f2iz ; 0x13c0
        0x0000537e:    b200        ..      SXTH     r0,r0
        0x00005380:    0061        a.      LSLS     r1,r4,#1
        0x00005382:    4a92        .J      LDR      r2,[pc,#584] ; [0x55cc] = 0x2000001c
        0x00005384:    5250        PR      STRH     r0,[r2,r1]
        0x00005386:    1c60        `.      ADDS     r0,r4,#1
        0x00005388:    b2c4        ..      UXTB     r4,r0
        0x0000538a:    2c03        .,      CMP      r4,#3
        0x0000538c:    dbf2        ..      BLT      0x5374 ; main + 472
        0x0000538e:    f7fefac6    ....    BL       Read_HDC1000_Temperature ; 0x391e
        0x00005392:    4605        .F      MOV      r5,r0
        0x00005394:    488e        .H      LDR      r0,[pc,#568] ; [0x55d0] = 0x4074
        0x00005396:    4368        hC      MULS     r0,r5,r0
        0x00005398:    0c00        ..      LSRS     r0,r0,#16
        0x0000539a:    217d        }!      MOVS     r1,#0x7d
        0x0000539c:    0149        I.      LSLS     r1,r1,#5
        0x0000539e:    1a45        E.      SUBS     r5,r0,r1
        0x000053a0:    2164        d!      MOVS     r1,#0x64
        0x000053a2:    4628        (F      MOV      r0,r5
        0x000053a4:    f7fbf89a    ....    BL       __aeabi_uidiv ; 0x4dc
        0x000053a8:    b2c6        ..      UXTB     r6,r0
        0x000053aa:    2164        d!      MOVS     r1,#0x64
        0x000053ac:    4628        (F      MOV      r0,r5
        0x000053ae:    e000        ..      B        0x53b2 ; main + 534
        0x000053b0:    e02d        -.      B        0x540e ; main + 626
        0x000053b2:    f7fbf893    ....    BL       __aeabi_uidiv ; 0x4dc
        0x000053b6:    460f        .F      MOV      r7,r1
        0x000053b8:    0230        0.      LSLS     r0,r6,#8
        0x000053ba:    4338        8C      ORRS     r0,r0,r7
        0x000053bc:    4985        .I      LDR      r1,[pc,#532] ; [0x55d4] = 0x20000070
        0x000053be:    8048        H.      STRH     r0,[r1,#2]
        0x000053c0:    f7fefaa6    ....    BL       Read_HDC1000_Humidity ; 0x3910
        0x000053c4:    4605        .F      MOV      r5,r0
        0x000053c6:    4884        .H      LDR      r0,[pc,#528] ; [0x55d8] = 0x2710
        0x000053c8:    4368        hC      MULS     r0,r5,r0
        0x000053ca:    0c05        ..      LSRS     r5,r0,#16
        0x000053cc:    2164        d!      MOVS     r1,#0x64
        0x000053ce:    4628        (F      MOV      r0,r5
        0x000053d0:    f7fbf884    ....    BL       __aeabi_uidiv ; 0x4dc
        0x000053d4:    b2c6        ..      UXTB     r6,r0
        0x000053d6:    2164        d!      MOVS     r1,#0x64
        0x000053d8:    4628        (F      MOV      r0,r5
        0x000053da:    f7fbf87f    ....    BL       __aeabi_uidiv ; 0x4dc
        0x000053de:    460f        .F      MOV      r7,r1
        0x000053e0:    0230        0.      LSLS     r0,r6,#8
        0x000053e2:    4338        8C      ORRS     r0,r0,r7
        0x000053e4:    497b        {I      LDR      r1,[pc,#492] ; [0x55d4] = 0x20000070
        0x000053e6:    8008        ..      STRH     r0,[r1,#0]
        0x000053e8:    2000        .       MOVS     r0,#0
        0x000053ea:    9004        ..      STR      r0,[sp,#0x10]
        0x000053ec:    9005        ..      STR      r0,[sp,#0x14]
        0x000053ee:    9006        ..      STR      r0,[sp,#0x18]
        0x000053f0:    9007        ..      STR      r0,[sp,#0x1c]
        0x000053f2:    4608        .F      MOV      r0,r1
        0x000053f4:    8800        ..      LDRH     r0,[r0,#0]
        0x000053f6:    1203        ..      ASRS     r3,r0,#8
        0x000053f8:    4608        .F      MOV      r0,r1
        0x000053fa:    8840        @.      LDRH     r0,[r0,#2]
        0x000053fc:    1202        ..      ASRS     r2,r0,#8
        0x000053fe:    a177        w.      ADR      r1,{pc}+0x1de ; 0x55dc
        0x00005400:    a804        ..      ADD      r0,sp,#0x10
        0x00005402:    f7fafefb    ....    BL       __2sprintf ; 0x1fc
        0x00005406:    a904        ..      ADD      r1,sp,#0x10
        0x00005408:    2001        .       MOVS     r0,#1
        0x0000540a:    f000fb49    ..I.    BL       print_Line ; 0x5aa0
        0x0000540e:    4878        xH      LDR      r0,[pc,#480] ; [0x55f0] = 0x2000005f
        0x00005410:    7800        .x      LDRB     r0,[r0,#0]
        0x00005412:    2800        .(      CMP      r0,#0
        0x00005414:    d075        u.      BEQ      0x5502 ; main + 870
        0x00005416:    2204        ."      MOVS     r2,#4
        0x00005418:    a176        v.      ADR      r1,{pc}+0x1dc ; 0x55f4
        0x0000541a:    4878        xH      LDR      r0,[pc,#480] ; [0x55fc] = 0x2000005b
        0x0000541c:    f7fbf80e    ....    BL       strncmp ; 0x43c
        0x00005420:    2800        .(      CMP      r0,#0
        0x00005422:    d108        ..      BNE      0x5436 ; main + 666
        0x00005424:    a176        v.      ADR      r1,{pc}+0x1dc ; 0x5600
        0x00005426:    4878        xH      LDR      r0,[pc,#480] ; [0x5608] = 0x20000053
        0x00005428:    f7fafee8    ....    BL       __2sprintf ; 0x1fc
        0x0000542c:    2204        ."      MOVS     r2,#4
        0x0000542e:    4976        vI      LDR      r1,[pc,#472] ; [0x5608] = 0x20000053
        0x00005430:    4876        vH      LDR      r0,[pc,#472] ; [0x560c] = 0x40050000
        0x00005432:    f7feff31    ..1.    BL       UART_Write_Wecan ; 0x4298
        0x00005436:    2204        ."      MOVS     r2,#4
        0x00005438:    a175        u.      ADR      r1,{pc}+0x1d8 ; 0x5610
        0x0000543a:    4870        pH      LDR      r0,[pc,#448] ; [0x55fc] = 0x2000005b
        0x0000543c:    f7fafffe    ....    BL       strncmp ; 0x43c
        0x00005440:    2800        .(      CMP      r0,#0
        0x00005442:    d10a        ..      BNE      0x545a ; main + 702
        0x00005444:    a174        t.      ADR      r1,{pc}+0x1d4 ; 0x5618
        0x00005446:    4870        pH      LDR      r0,[pc,#448] ; [0x5608] = 0x20000053
        0x00005448:    f7fafed8    ....    BL       __2sprintf ; 0x1fc
        0x0000544c:    2204        ."      MOVS     r2,#4
        0x0000544e:    496e        nI      LDR      r1,[pc,#440] ; [0x5608] = 0x20000053
        0x00005450:    486e        nH      LDR      r0,[pc,#440] ; [0x560c] = 0x40050000
        0x00005452:    f7feff21    ..!.    BL       UART_Write_Wecan ; 0x4298
        0x00005456:    f7fefc47    ..G.    BL       Send_Data ; 0x3ce8
        0x0000545a:    2204        ."      MOVS     r2,#4
        0x0000545c:    a170        p.      ADR      r1,{pc}+0x1c4 ; 0x5620
        0x0000545e:    4867        gH      LDR      r0,[pc,#412] ; [0x55fc] = 0x2000005b
        0x00005460:    f7faffec    ....    BL       strncmp ; 0x43c
        0x00005464:    2800        .(      CMP      r0,#0
        0x00005466:    d108        ..      BNE      0x547a ; main + 734
        0x00005468:    a16f        o.      ADR      r1,{pc}+0x1c0 ; 0x5628
        0x0000546a:    4867        gH      LDR      r0,[pc,#412] ; [0x5608] = 0x20000053
        0x0000546c:    f7fafec6    ....    BL       __2sprintf ; 0x1fc
        0x00005470:    2204        ."      MOVS     r2,#4
        0x00005472:    4965        eI      LDR      r1,[pc,#404] ; [0x5608] = 0x20000053
        0x00005474:    4865        eH      LDR      r0,[pc,#404] ; [0x560c] = 0x40050000
        0x00005476:    f7feff0f    ....    BL       UART_Write_Wecan ; 0x4298
        0x0000547a:    2203        ."      MOVS     r2,#3
        0x0000547c:    a16c        l.      ADR      r1,{pc}+0x1b4 ; 0x5630
        0x0000547e:    485f        _H      LDR      r0,[pc,#380] ; [0x55fc] = 0x2000005b
        0x00005480:    f7faffdc    ....    BL       strncmp ; 0x43c
        0x00005484:    2800        .(      CMP      r0,#0
        0x00005486:    d14b        K.      BNE      0x5520 ; main + 900
        0x00005488:    486a        jH      LDR      r0,[pc,#424] ; [0x5634] = 0x20000057
        0x0000548a:    78c0        .x      LDRB     r0,[r0,#3]
        0x0000548c:    496a        jI      LDR      r1,[pc,#424] ; [0x5638] = 0x20000060
        0x0000548e:    7008        .p      STRB     r0,[r1,#0]
        0x00005490:    4608        .F      MOV      r0,r1
        0x00005492:    7800        .x      LDRB     r0,[r0,#0]
        0x00005494:    07c0        ..      LSLS     r0,r0,#31
        0x00005496:    0fc0        ..      LSRS     r0,r0,#31
        0x00005498:    2800        .(      CMP      r0,#0
        0x0000549a:    d004        ..      BEQ      0x54a6 ; main + 778
        0x0000549c:    4608        .F      MOV      r0,r1
        0x0000549e:    7800        .x      LDRB     r0,[r0,#0]
        0x000054a0:    0840        @.      LSRS     r0,r0,#1
        0x000054a2:    0040        @.      LSLS     r0,r0,#1
        0x000054a4:    7008        .p      STRB     r0,[r1,#0]
        0x000054a6:    4864        dH      LDR      r0,[pc,#400] ; [0x5638] = 0x20000060
        0x000054a8:    7800        .x      LDRB     r0,[r0,#0]
        0x000054aa:    2102        .!      MOVS     r1,#2
        0x000054ac:    4008        .@      ANDS     r0,r0,r1
        0x000054ae:    2800        .(      CMP      r0,#0
        0x000054b0:    d005        ..      BEQ      0x54be ; main + 802
        0x000054b2:    4a26        &J      LDR      r2,[pc,#152] ; [0x554c] = 0x6d84
        0x000054b4:    69d1        .i      LDR      r1,[r2,#0x1c]
        0x000054b6:    6990        .i      LDR      r0,[r2,#0x18]
        0x000054b8:    f7fdfae2    ....    BL       GPIO_SetPinOutLow ; 0x2a80
        0x000054bc:    e004        ..      B        0x54c8 ; main + 812
        0x000054be:    4a23        #J      LDR      r2,[pc,#140] ; [0x554c] = 0x6d84
        0x000054c0:    69d1        .i      LDR      r1,[r2,#0x1c]
        0x000054c2:    6990        .i      LDR      r0,[r2,#0x18]
        0x000054c4:    f7fdfaca    ....    BL       GPIO_SetPinOutHigh ; 0x2a5c
        0x000054c8:    485b        [H      LDR      r0,[pc,#364] ; [0x5638] = 0x20000060
        0x000054ca:    7800        .x      LDRB     r0,[r0,#0]
        0x000054cc:    2104        .!      MOVS     r1,#4
        0x000054ce:    4008        .@      ANDS     r0,r0,r1
        0x000054d0:    2800        .(      CMP      r0,#0
        0x000054d2:    d005        ..      BEQ      0x54e0 ; main + 836
        0x000054d4:    4a1d        .J      LDR      r2,[pc,#116] ; [0x554c] = 0x6d84
        0x000054d6:    6a91        .j      LDR      r1,[r2,#0x28]
        0x000054d8:    6a50        Pj      LDR      r0,[r2,#0x24]
        0x000054da:    f7fdfad1    ....    BL       GPIO_SetPinOutLow ; 0x2a80
        0x000054de:    e004        ..      B        0x54ea ; main + 846
        0x000054e0:    4a1a        .J      LDR      r2,[pc,#104] ; [0x554c] = 0x6d84
        0x000054e2:    6a91        .j      LDR      r1,[r2,#0x28]
        0x000054e4:    6a50        Pj      LDR      r0,[r2,#0x24]
        0x000054e6:    f7fdfab9    ....    BL       GPIO_SetPinOutHigh ; 0x2a5c
        0x000054ea:    4853        SH      LDR      r0,[pc,#332] ; [0x5638] = 0x20000060
        0x000054ec:    7800        .x      LDRB     r0,[r0,#0]
        0x000054ee:    2108        .!      MOVS     r1,#8
        0x000054f0:    4008        .@      ANDS     r0,r0,r1
        0x000054f2:    2800        .(      CMP      r0,#0
        0x000054f4:    d006        ..      BEQ      0x5504 ; main + 872
        0x000054f6:    4a15        .J      LDR      r2,[pc,#84] ; [0x554c] = 0x6d84
        0x000054f8:    6b51        Qk      LDR      r1,[r2,#0x34]
        0x000054fa:    6b10        .k      LDR      r0,[r2,#0x30]
        0x000054fc:    f7fdfac0    ....    BL       GPIO_SetPinOutLow ; 0x2a80
        0x00005500:    e005        ..      B        0x550e ; main + 882
        0x00005502:    e010        ..      B        0x5526 ; main + 906
        0x00005504:    4a11        .J      LDR      r2,[pc,#68] ; [0x554c] = 0x6d84
        0x00005506:    6b51        Qk      LDR      r1,[r2,#0x34]
        0x00005508:    6b10        .k      LDR      r0,[r2,#0x30]
        0x0000550a:    f7fdfaa7    ....    BL       GPIO_SetPinOutHigh ; 0x2a5c
        0x0000550e:    a14b        K.      ADR      r1,{pc}+0x12e ; 0x563c
        0x00005510:    483d        =H      LDR      r0,[pc,#244] ; [0x5608] = 0x20000053
        0x00005512:    f7fafe73    ..s.    BL       __2sprintf ; 0x1fc
        0x00005516:    2204        ."      MOVS     r2,#4
        0x00005518:    493b        ;I      LDR      r1,[pc,#236] ; [0x5608] = 0x20000053
        0x0000551a:    483c        <H      LDR      r0,[pc,#240] ; [0x560c] = 0x40050000
        0x0000551c:    f7fefebc    ....    BL       UART_Write_Wecan ; 0x4298
        0x00005520:    2000        .       MOVS     r0,#0
        0x00005522:    4933        3I      LDR      r1,[pc,#204] ; [0x55f0] = 0x2000005f
        0x00005524:    7008        .p      STRB     r0,[r1,#0]
        0x00005526:    e690        ..      B        0x524a ; main + 174
    $d
        0x00005528:    50000100    ...P    DCD    1342177536
        0x0000552c:    50004040    @@.P    DCD    1342193728
        0x00005530:    00061a80    ....    DCD    400000
        0x00005534:    40020000    ...@    DCD    1073872896
        0x00005538:    6163734f    Osca    DCD    1633907535
        0x0000553c:    754e2072    r Nu    DCD    1968054386
        0x00005540:    656b616d    make    DCD    1701536109
        0x00005544:    30562072    r V0    DCD    810950770
        0x00005548:    00000000    ....    DCD    0
        0x0000554c:    00006d84    .m..    DCD    28036
        0x00005550:    20000061    a..     DCD    536871009
        0x00005554:    3259454b    KEY2    DCD    844711243
        0x00005558:    65725020     Pre    DCD    1701990432
        0x0000555c:    64657373    ssed    DCD    1684370291
        0x00005560:    00000000    ....    DCD    0
        0x00005564:    20000784    ...     DCD    536872836
        0x00005568:    20000062    b..     DCD    536871010
        0x0000556c:    3159454b    KEY1    DCD    827934027
        0x00005570:    65725020     Pre    DCD    1701990432
        0x00005574:    64657373    ssed    DCD    1684370291
        0x00005578:    00000000    ....    DCD    0
        0x0000557c:    20000063    c..     DCD    536871011
        0x00005580:    3059454b    KEY0    DCD    811156811
        0x00005584:    65725020     Pre    DCD    1701990432
        0x00005588:    64657373    ssed    DCD    1684370291
        0x0000558c:    00000000    ....    DCD    0
        0x00005590:    00001001    ....    DCD    4097
        0x00005594:    2000006c    l..     DCD    536871020
        0x00005598:    00002002    . ..    DCD    8194
        0x0000559c:    20000064    d..     DCD    536871012
        0x000055a0:    00010010    ....    DCD    65552
        0x000055a4:    20000068    h..     DCD    536871016
        0x000055a8:    6867694c    Ligh    DCD    1751607628
        0x000055ac:    78253a74    t:%x    DCD    2015705716
        0x000055b0:    00000020     ...    DCD    32
        0x000055b4:    3a736147    Gas:    DCD    980640071
        0x000055b8:    49207825    %x I    DCD    1226864677
        0x000055bc:    78253a52    R:%x    DCD    2015705682
        0x000055c0:    00000000    ....    DCD    0
        0x000055c4:    200006aa    ...     DCD    536872618
        0x000055c8:    200006a4    ...     DCD    536872612
        0x000055cc:    2000001c    ...     DCD    536870940
        0x000055d0:    00004074    t@..    DCD    16500
        0x000055d4:    20000070    p..     DCD    536871024
        0x000055d8:    00002710    .'..    DCD    10000
        0x000055dc:    64253a54    T:%d    DCD    1680161364
        0x000055e0:    20204320     C      DCD    538985248
        0x000055e4:    253a4820     H:%    DCD    624576544
        0x000055e8:    20252564    d%%     DCD    539305316
        0x000055ec:    00000020     ...    DCD    32
        0x000055f0:    2000005f    _..     DCD    536871007
        0x000055f4:    41545340    @STA    DCD    1096045376
        0x000055f8:    00000000    ....    DCD    0
        0x000055fc:    2000005b    [..     DCD    536871003
        0x00005600:    534b4140    @AKS    DCD    1397440832
        0x00005604:    00000000    ....    DCD    0
        0x00005608:    20000053    S..     DCD    536870995
        0x0000560c:    40050000    ...@    DCD    1074069504
        0x00005610:    54414440    @DAT    DCD    1413563456
        0x00005614:    00000000    ....    DCD    0
        0x00005618:    444b4140    @AKD    DCD    1145782592
        0x0000561c:    00000000    ....    DCD    0
        0x00005620:    50545340    @STP    DCD    1347703616
        0x00005624:    00000000    ....    DCD    0
        0x00005628:    504b4140    @AKP    DCD    1347109184
        0x0000562c:    00000000    ....    DCD    0
        0x00005630:    00424c40    @LB.    DCD    4344896
        0x00005634:    20000057    W..     DCD    536870999
        0x00005638:    20000060    `..     DCD    536871008
        0x0000563c:    4c4b4140    @AKL    DCD    1280000320
        0x00005640:    00000000    ....    DCD    0
    $t
    i.nvtAHRSInit
    nvtAHRSInit
        0x00005644:    b510        ..      PUSH     {r4,lr}
        0x00005646:    f7fefc8d    ....    BL       SetupSecurityID ; 0x3f64
        0x0000564a:    f7fcfe0b    ....    BL       CheckSecurityID ; 0x2264
        0x0000564e:    2800        .(      CMP      r0,#0
        0x00005650:    d10b        ..      BNE      0x566a ; nvtAHRSInit + 38
        0x00005652:    f7fefbd9    ....    BL       SensorStateInit ; 0x3e08
        0x00005656:    f7fcfc79    ..y.    BL       CalInfoInit ; 0x1f4c
        0x0000565a:    4804        .H      LDR      r0,[pc,#16] ; [0x566c] = 0x20000aa4
        0x0000565c:    2100        .!      MOVS     r1,#0
        0x0000565e:    6001        .`      STR      r1,[r0,#0]
        0x00005660:    6041        A`      STR      r1,[r0,#4]
        0x00005662:    6081        .`      STR      r1,[r0,#8]
        0x00005664:    60c1        .`      STR      r1,[r0,#0xc]
        0x00005666:    f7fcfb6b    ..k.    BL       AccFilterInit ; 0x1d40
        0x0000566a:    bd10        ..      POP      {r4,pc}
    $d
        0x0000566c:    20000aa4    ...     DCD    536873636
    $t
    i.nvtCalACCBufferFill
    nvtCalACCBufferFill
        0x00005670:    b5f8        ..      PUSH     {r3-r7,lr}
        0x00005672:    4604        .F      MOV      r4,r0
        0x00005674:    f7fefa50    ..P.    BL       SampleFilter ; 0x3b18
        0x00005678:    4601        .F      MOV      r1,r0
        0x0000567a:    4f1d        .O      LDR      r7,[pc,#116] ; [0x56f0] = 0x20000c94
        0x0000567c:    0060        `.      LSLS     r0,r4,#1
        0x0000567e:    2900        .)      CMP      r1,#0
        0x00005680:    d012        ..      BEQ      0x56a8 ; nvtCalACCBufferFill + 56
        0x00005682:    210a        .!      MOVS     r1,#0xa
        0x00005684:    5a3a        :Z      LDRH     r2,[r7,r0]
        0x00005686:    4361        aC      MULS     r1,r4,r1
        0x00005688:    1889        ..      ADDS     r1,r1,r2
        0x0000568a:    004b        K.      LSLS     r3,r1,#1
        0x0000568c:    18c9        ..      ADDS     r1,r1,r3
        0x0000568e:    4e19        .N      LDR      r6,[pc,#100] ; [0x56f4] = 0x20000ca0
        0x00005690:    b209        ..      SXTH     r1,r1
        0x00005692:    4b19        .K      LDR      r3,[pc,#100] ; [0x56f8] = 0x20000b2c
        0x00005694:    8eb5        ..      LDRH     r5,[r6,#0x34]
        0x00005696:    0049        I.      LSLS     r1,r1,#1
        0x00005698:    525d        ]R      STRH     r5,[r3,r1]
        0x0000569a:    18c9        ..      ADDS     r1,r1,r3
        0x0000569c:    8ef5        ..      LDRH     r5,[r6,#0x36]
        0x0000569e:    804d        M.      STRH     r5,[r1,#2]
        0x000056a0:    8f33        3.      LDRH     r3,[r6,#0x38]
        0x000056a2:    808b        ..      STRH     r3,[r1,#4]
        0x000056a4:    1c52        R.      ADDS     r2,r2,#1
        0x000056a6:    523a        :R      STRH     r2,[r7,r0]
        0x000056a8:    5e38        8^      LDRSH    r0,[r7,r0]
        0x000056aa:    280a        .(      CMP      r0,#0xa
        0x000056ac:    db1c        ..      BLT      0x56e8 ; nvtCalACCBufferFill + 120
        0x000056ae:    4913        .I      LDR      r1,[pc,#76] ; [0x56fc] = 0x200006ce
        0x000056b0:    2001        .       MOVS     r0,#1
        0x000056b2:    780a        .x      LDRB     r2,[r1,#0]
        0x000056b4:    40a0        .@      LSLS     r0,r0,r4
        0x000056b6:    4310        .C      ORRS     r0,r0,r2
        0x000056b8:    b240        @.      SXTB     r0,r0
        0x000056ba:    7008        .p      STRB     r0,[r1,#0]
        0x000056bc:    283f        ?(      CMP      r0,#0x3f
        0x000056be:    d003        ..      BEQ      0x56c8 ; nvtCalACCBufferFill + 88
        0x000056c0:    2c00        .,      CMP      r4,#0
        0x000056c2:    d009        ..      BEQ      0x56d8 ; nvtCalACCBufferFill + 104
        0x000056c4:    2000        .       MOVS     r0,#0
        0x000056c6:    bdf8        ..      POP      {r3-r7,pc}
        0x000056c8:    213c        <!      MOVS     r1,#0x3c
        0x000056ca:    480b        .H      LDR      r0,[pc,#44] ; [0x56f8] = 0x20000b2c
        0x000056cc:    f7fcfafc    ....    BL       AccCalibrate ; 0x1cc8
        0x000056d0:    f7fefdfe    ....    BL       UpdateCalibrateInfoACC ; 0x42d0
        0x000056d4:    2001        .       MOVS     r0,#1
        0x000056d6:    bdf8        ..      POP      {r3-r7,pc}
        0x000056d8:    210a        .!      MOVS     r1,#0xa
        0x000056da:    4807        .H      LDR      r0,[pc,#28] ; [0x56f8] = 0x20000b2c
        0x000056dc:    f7fcfb58    ..X.    BL       AccZCalibrate ; 0x1d90
        0x000056e0:    f7fefdf6    ....    BL       UpdateCalibrateInfoACC ; 0x42d0
        0x000056e4:    2000        .       MOVS     r0,#0
        0x000056e6:    bdf8        ..      POP      {r3-r7,pc}
        0x000056e8:    2000        .       MOVS     r0,#0
        0x000056ea:    43c0        .C      MVNS     r0,r0
        0x000056ec:    bdf8        ..      POP      {r3-r7,pc}
    $d
        0x000056ee:    0000        ..      DCW    0
        0x000056f0:    20000c94    ...     DCD    536874132
        0x000056f4:    20000ca0    ...     DCD    536874144
        0x000056f8:    20000b2c    ,..     DCD    536873772
        0x000056fc:    200006ce    ...     DCD    536872654
    $t
    i.nvtCalACCInit
    nvtCalACCInit
        0x00005700:    2000        .       MOVS     r0,#0
        0x00005702:    4a06        .J      LDR      r2,[pc,#24] ; [0x571c] = 0x20000c94
        0x00005704:    4601        .F      MOV      r1,r0
        0x00005706:    0043        C.      LSLS     r3,r0,#1
        0x00005708:    1c40        @.      ADDS     r0,r0,#1
        0x0000570a:    52d1        .R      STRH     r1,[r2,r3]
        0x0000570c:    2806        .(      CMP      r0,#6
        0x0000570e:    dbfa        ..      BLT      0x5706 ; nvtCalACCInit + 6
        0x00005710:    4803        .H      LDR      r0,[pc,#12] ; [0x5720] = 0x20000874
        0x00005712:    7001        .p      STRB     r1,[r0,#0]
        0x00005714:    4803        .H      LDR      r0,[pc,#12] ; [0x5724] = 0x200006ce
        0x00005716:    7001        .p      STRB     r1,[r0,#0]
        0x00005718:    4770        pG      BX       lr
    $d
        0x0000571a:    0000        ..      DCW    0
        0x0000571c:    20000c94    ...     DCD    536874132
        0x00005720:    20000874    t..     DCD    536873076
        0x00005724:    200006ce    ...     DCD    536872654
    $t
    i.nvtGetAccZWithoutGravity
    nvtGetAccZWithoutGravity
        0x00005728:    b5f8        ..      PUSH     {r3-r7,lr}
        0x0000572a:    4e13        .N      LDR      r6,[pc,#76] ; [0x5778] = 0x20000ab4
        0x0000572c:    460c        .F      MOV      r4,r1
        0x0000572e:    0005        ..      MOVS     r5,r0
        0x00005730:    d009        ..      BEQ      0x5746 ; nvtGetAccZWithoutGravity + 30
        0x00005732:    6df2        .m      LDR      r2,[r6,#0x5c]
        0x00005734:    6db1        .m      LDR      r1,[r6,#0x58]
        0x00005736:    6d70        pm      LDR      r0,[r6,#0x54]
        0x00005738:    f000fa54    ..T.    BL       sensfusion6GetAccZWithoutGravity ; 0x5be4
        0x0000573c:    490f        .I      LDR      r1,[pc,#60] ; [0x577c] = 0x200006bc
        0x0000573e:    6889        .h      LDR      r1,[r1,#8]
        0x00005740:    f001fab8    ....    BL       __aeabi_fsub ; 0x6cb4
        0x00005744:    6028        (`      STR      r0,[r5,#0]
        0x00005746:    2c00        .,      CMP      r4,#0
        0x00005748:    d014        ..      BEQ      0x5774 ; nvtGetAccZWithoutGravity + 76
        0x0000574a:    6df0        .m      LDR      r0,[r6,#0x5c]
        0x0000574c:    4601        .F      MOV      r1,r0
        0x0000574e:    f001fa21    ..!.    BL       __aeabi_fmul ; 0x6b94
        0x00005752:    4605        .F      MOV      r5,r0
        0x00005754:    6db0        .m      LDR      r0,[r6,#0x58]
        0x00005756:    4601        .F      MOV      r1,r0
        0x00005758:    f001fa1c    ....    BL       __aeabi_fmul ; 0x6b94
        0x0000575c:    4607        .F      MOV      r7,r0
        0x0000575e:    6d70        pm      LDR      r0,[r6,#0x54]
        0x00005760:    4601        .F      MOV      r1,r0
        0x00005762:    f001fa17    ....    BL       __aeabi_fmul ; 0x6b94
        0x00005766:    4639        9F      MOV      r1,r7
        0x00005768:    f001f9a4    ....    BL       __aeabi_fadd ; 0x6ab4
        0x0000576c:    4629        )F      MOV      r1,r5
        0x0000576e:    f001f9a1    ....    BL       __aeabi_fadd ; 0x6ab4
        0x00005772:    6020         `      STR      r0,[r4,#0]
        0x00005774:    bdf8        ..      POP      {r3-r7,pc}
    $d
        0x00005776:    0000        ..      DCW    0
        0x00005778:    20000ab4    ...     DCD    536873652
        0x0000577c:    200006bc    ...     DCD    536872636
    $t
    i.nvtGetEulerRPY
    nvtGetEulerRPY
        0x00005780:    b570        p.      PUSH     {r4-r6,lr}
        0x00005782:    4d08        .M      LDR      r5,[pc,#32] ; [0x57a4] = 0x20000ab4
        0x00005784:    4604        .F      MOV      r4,r0
        0x00005786:    4a06        .J      LDR      r2,[pc,#24] ; [0x57a0] = 0x20000abc
        0x00005788:    1d29        ).      ADDS     r1,r5,#4
        0x0000578a:    4628        (F      MOV      r0,r5
        0x0000578c:    f000fa4a    ..J.    BL       sensfusion6GetEulerRPY ; 0x5c24
        0x00005790:    6828        (h      LDR      r0,[r5,#0]
        0x00005792:    6020         `      STR      r0,[r4,#0]
        0x00005794:    6868        hh      LDR      r0,[r5,#4]
        0x00005796:    6060        ``      STR      r0,[r4,#4]
        0x00005798:    68a8        .h      LDR      r0,[r5,#8]
        0x0000579a:    60a0        .`      STR      r0,[r4,#8]
        0x0000579c:    bd70        p.      POP      {r4-r6,pc}
    $d
        0x0000579e:    0000        ..      DCW    0
        0x000057a0:    20000abc    ...     DCD    536873660
        0x000057a4:    20000ab4    ...     DCD    536873652
    $t
    i.nvtGetGyroOffset
    nvtGetGyroOffset
        0x000057a8:    4903        .I      LDR      r1,[pc,#12] ; [0x57b8] = 0x20000808
        0x000057aa:    698a        .i      LDR      r2,[r1,#0x18]
        0x000057ac:    6002        .`      STR      r2,[r0,#0]
        0x000057ae:    69ca        .i      LDR      r2,[r1,#0x1c]
        0x000057b0:    6042        B`      STR      r2,[r0,#4]
        0x000057b2:    6a09        .j      LDR      r1,[r1,#0x20]
        0x000057b4:    6081        .`      STR      r1,[r0,#8]
        0x000057b6:    4770        pG      BX       lr
    $d
        0x000057b8:    20000808    ...     DCD    536872968
    $t
    i.nvtGyroCenterCalibrate
    nvtGyroCenterCalibrate
        0x000057bc:    b5f8        ..      PUSH     {r3-r7,lr}
        0x000057be:    4c13        .L      LDR      r4,[pc,#76] ; [0x580c] = 0x20000874
        0x000057c0:    2000        .       MOVS     r0,#0
        0x000057c2:    7220         r      STRB     r0,[r4,#8]
        0x000057c4:    6ae0        .j      LDR      r0,[r4,#0x2c]
        0x000057c6:    f7fbfdfb    ....    BL       __aeabi_f2iz ; 0x13c0
        0x000057ca:    b206        ..      SXTH     r6,r0
        0x000057cc:    6aa0        .j      LDR      r0,[r4,#0x28]
        0x000057ce:    f7fbfdf7    ....    BL       __aeabi_f2iz ; 0x13c0
        0x000057d2:    b205        ..      SXTH     r5,r0
        0x000057d4:    6a60        `j      LDR      r0,[r4,#0x24]
        0x000057d6:    f7fbfdf3    ....    BL       __aeabi_f2iz ; 0x13c0
        0x000057da:    b200        ..      SXTH     r0,r0
        0x000057dc:    4632        2F      MOV      r2,r6
        0x000057de:    4629        )F      MOV      r1,r5
        0x000057e0:    f7fdf9b0    ....    BL       GyroDynamicCalibrate ; 0x2b44
        0x000057e4:    7a20         z      LDRB     r0,[r4,#8]
        0x000057e6:    2800        .(      CMP      r0,#0
        0x000057e8:    d00e        ..      BEQ      0x5808 ; nvtGyroCenterCalibrate + 76
        0x000057ea:    4a09        .J      LDR      r2,[pc,#36] ; [0x5810] = 0x20000828
        0x000057ec:    4909        .I      LDR      r1,[pc,#36] ; [0x5814] = 0x20000824
        0x000057ee:    480a        .H      LDR      r0,[pc,#40] ; [0x5818] = 0x20000820
        0x000057f0:    f7fdf96c    ..l.    BL       GetGyroDynamicCenter ; 0x2acc
        0x000057f4:    2100        .!      MOVS     r1,#0
        0x000057f6:    4668        hF      MOV      r0,sp
        0x000057f8:    f7ffff96    ....    BL       nvtGetAccZWithoutGravity ; 0x5728
        0x000057fc:    9800        ..      LDR      r0,[sp,#0]
        0x000057fe:    f7fefbab    ....    BL       SetZWithoutG_Base ; 0x3f58
        0x00005802:    f7fefb85    ....    BL       SetMagGuass ; 0x3f10
        0x00005806:    2001        .       MOVS     r0,#1
        0x00005808:    bdf8        ..      POP      {r3-r7,pc}
    $d
        0x0000580a:    0000        ..      DCW    0
        0x0000580c:    20000874    t..     DCD    536873076
        0x00005810:    20000828    (..     DCD    536873000
        0x00005814:    20000824    $..     DCD    536872996
        0x00005818:    20000820     ..     DCD    536872992
    $t
    i.nvtInputSensorRawACC
    nvtInputSensorRawACC
        0x0000581c:    b570        p.      PUSH     {r4-r6,lr}
        0x0000581e:    4604        .F      MOV      r4,r0
        0x00005820:    f7fcfd20    .. .    BL       CheckSecurityID ; 0x2264
        0x00005824:    2800        .(      CMP      r0,#0
        0x00005826:    d11a        ..      BNE      0x585e ; nvtInputSensorRawACC + 66
        0x00005828:    480d        .H      LDR      r0,[pc,#52] ; [0x5860] = 0x20000a94
        0x0000582a:    4d0e        .M      LDR      r5,[pc,#56] ; [0x5864] = 0x20000874
        0x0000582c:    7b00        .{      LDRB     r0,[r0,#0xc]
        0x0000582e:    2800        .(      CMP      r0,#0
        0x00005830:    d004        ..      BEQ      0x583c ; nvtInputSensorRawACC + 32
        0x00005832:    490d        .I      LDR      r1,[pc,#52] ; [0x5868] = 0x200006c8
        0x00005834:    4620         F      MOV      r0,r4
        0x00005836:    f7fdfec9    ....    BL       MultiwiiAccFilter ; 0x35cc
        0x0000583a:    4c0b        .L      LDR      r4,[pc,#44] ; [0x5868] = 0x200006c8
        0x0000583c:    2000        .       MOVS     r0,#0
        0x0000583e:    5e20         ^      LDRSH    r0,[r4,r0]
        0x00005840:    f7fbfe20    .. .    BL       __aeabi_i2f ; 0x1484
        0x00005844:    61a8        .a      STR      r0,[r5,#0x18]
        0x00005846:    2002        .       MOVS     r0,#2
        0x00005848:    5e20         ^      LDRSH    r0,[r4,r0]
        0x0000584a:    f7fbfe1b    ....    BL       __aeabi_i2f ; 0x1484
        0x0000584e:    61e8        .a      STR      r0,[r5,#0x1c]
        0x00005850:    2004        .       MOVS     r0,#4
        0x00005852:    5e20         ^      LDRSH    r0,[r4,r0]
        0x00005854:    f7fbfe16    ....    BL       __aeabi_i2f ; 0x1484
        0x00005858:    6228        (b      STR      r0,[r5,#0x20]
        0x0000585a:    f7fefb11    ....    BL       SetCalibrateACC ; 0x3e80
        0x0000585e:    bd70        p.      POP      {r4-r6,pc}
    $d
        0x00005860:    20000a94    ...     DCD    536873620
        0x00005864:    20000874    t..     DCD    536873076
        0x00005868:    200006c8    ...     DCD    536872648
    $t
    i.nvtInputSensorRawGYRO
    nvtInputSensorRawGYRO
        0x0000586c:    b570        p.      PUSH     {r4-r6,lr}
        0x0000586e:    4604        .F      MOV      r4,r0
        0x00005870:    f7fcfcf8    ....    BL       CheckSecurityID ; 0x2264
        0x00005874:    2800        .(      CMP      r0,#0
        0x00005876:    d11e        ..      BNE      0x58b6 ; nvtInputSensorRawGYRO + 74
        0x00005878:    4621        !F      MOV      r1,r4
        0x0000587a:    2001        .       MOVS     r0,#1
        0x0000587c:    f7fdffd2    ....    BL       RawSmoothInput ; 0x3824
        0x00005880:    480d        .H      LDR      r0,[pc,#52] ; [0x58b8] = 0x20000a94
        0x00005882:    7b40        @{      LDRB     r0,[r0,#0xd]
        0x00005884:    2800        .(      CMP      r0,#0
        0x00005886:    d004        ..      BEQ      0x5892 ; nvtInputSensorRawGYRO + 38
        0x00005888:    490c        .I      LDR      r1,[pc,#48] ; [0x58bc] = 0x20000898
        0x0000588a:    2001        .       MOVS     r0,#1
        0x0000588c:    f7fef800    ....    BL       RawSmoothOutput ; 0x3890
        0x00005890:    e00f        ..      B        0x58b2 ; nvtInputSensorRawGYRO + 70
        0x00005892:    2000        .       MOVS     r0,#0
        0x00005894:    5e20         ^      LDRSH    r0,[r4,r0]
        0x00005896:    f7fbfdf5    ....    BL       __aeabi_i2f ; 0x1484
        0x0000589a:    4d09        .M      LDR      r5,[pc,#36] ; [0x58c0] = 0x20000874
        0x0000589c:    6268        hb      STR      r0,[r5,#0x24]
        0x0000589e:    2002        .       MOVS     r0,#2
        0x000058a0:    5e20         ^      LDRSH    r0,[r4,r0]
        0x000058a2:    f7fbfdef    ....    BL       __aeabi_i2f ; 0x1484
        0x000058a6:    62a8        .b      STR      r0,[r5,#0x28]
        0x000058a8:    2004        .       MOVS     r0,#4
        0x000058aa:    5e20         ^      LDRSH    r0,[r4,r0]
        0x000058ac:    f7fbfdea    ....    BL       __aeabi_i2f ; 0x1484
        0x000058b0:    62e8        .b      STR      r0,[r5,#0x2c]
        0x000058b2:    f7fefb09    ....    BL       SetCalibrateGYRO ; 0x3ec8
        0x000058b6:    bd70        p.      POP      {r4-r6,pc}
    $d
        0x000058b8:    20000a94    ...     DCD    536873620
        0x000058bc:    20000898    ...     DCD    536873112
        0x000058c0:    20000874    t..     DCD    536873076
    $t
    i.nvtMillisecondTick
    nvtMillisecondTick
        0x000058c4:    b510        ..      PUSH     {r4,lr}
        0x000058c6:    f7fcfccd    ....    BL       CheckSecurityID ; 0x2264
        0x000058ca:    2800        .(      CMP      r0,#0
        0x000058cc:    d103        ..      BNE      0x58d6 ; nvtMillisecondTick + 18
        0x000058ce:    4802        .H      LDR      r0,[pc,#8] ; [0x58d8] = 0x20000aa4
        0x000058d0:    68c1        .h      LDR      r1,[r0,#0xc]
        0x000058d2:    1c49        I.      ADDS     r1,r1,#1
        0x000058d4:    60c1        .`      STR      r1,[r0,#0xc]
        0x000058d6:    bd10        ..      POP      {r4,pc}
    $d
        0x000058d8:    20000aa4    ...     DCD    536873636
    $t
    i.nvtSetAccG_PER_LSB
    nvtSetAccG_PER_LSB
        0x000058dc:    4901        .I      LDR      r1,[pc,#4] ; [0x58e4] = 0x20000808
        0x000058de:    6588        .e      STR      r0,[r1,#0x58]
        0x000058e0:    4770        pG      BX       lr
    $d
        0x000058e2:    0000        ..      DCW    0
        0x000058e4:    20000808    ...     DCD    536872968
    $t
    i.nvtSetAccOffset
    nvtSetAccOffset
        0x000058e8:    4903        .I      LDR      r1,[pc,#12] ; [0x58f8] = 0x20000808
        0x000058ea:    6802        .h      LDR      r2,[r0,#0]
        0x000058ec:    600a        .`      STR      r2,[r1,#0]
        0x000058ee:    6842        Bh      LDR      r2,[r0,#4]
        0x000058f0:    604a        J`      STR      r2,[r1,#4]
        0x000058f2:    6880        .h      LDR      r0,[r0,#8]
        0x000058f4:    6088        .`      STR      r0,[r1,#8]
        0x000058f6:    4770        pG      BX       lr
    $d
        0x000058f8:    20000808    ...     DCD    536872968
    $t
    i.nvtSetAccScale
    nvtSetAccScale
        0x000058fc:    4903        .I      LDR      r1,[pc,#12] ; [0x590c] = 0x20000808
        0x000058fe:    6802        .h      LDR      r2,[r0,#0]
        0x00005900:    60ca        .`      STR      r2,[r1,#0xc]
        0x00005902:    6842        Bh      LDR      r2,[r0,#4]
        0x00005904:    610a        .a      STR      r2,[r1,#0x10]
        0x00005906:    6880        .h      LDR      r0,[r0,#8]
        0x00005908:    6148        Ha      STR      r0,[r1,#0x14]
        0x0000590a:    4770        pG      BX       lr
    $d
        0x0000590c:    20000808    ...     DCD    536872968
    $t
    i.nvtSetGYRODegPLSB
    nvtSetGYRODegPLSB
        0x00005910:    4901        .I      LDR      r1,[pc,#4] ; [0x5918] = 0x20000808
        0x00005912:    65c8        .e      STR      r0,[r1,#0x5c]
        0x00005914:    4770        pG      BX       lr
    $d
        0x00005916:    0000        ..      DCW    0
        0x00005918:    20000808    ...     DCD    536872968
    $t
    i.nvtSetGyroOffset
    nvtSetGyroOffset
        0x0000591c:    4903        .I      LDR      r1,[pc,#12] ; [0x592c] = 0x20000808
        0x0000591e:    6802        .h      LDR      r2,[r0,#0]
        0x00005920:    618a        .a      STR      r2,[r1,#0x18]
        0x00005922:    6842        Bh      LDR      r2,[r0,#4]
        0x00005924:    61ca        .a      STR      r2,[r1,#0x1c]
        0x00005926:    6880        .h      LDR      r0,[r0,#8]
        0x00005928:    6208        .b      STR      r0,[r1,#0x20]
        0x0000592a:    4770        pG      BX       lr
    $d
        0x0000592c:    20000808    ...     DCD    536872968
    $t
    i.nvtSetGyroScale
    nvtSetGyroScale
        0x00005930:    4903        .I      LDR      r1,[pc,#12] ; [0x5940] = 0x20000808
        0x00005932:    6802        .h      LDR      r2,[r0,#0]
        0x00005934:    624a        Jb      STR      r2,[r1,#0x24]
        0x00005936:    6842        Bh      LDR      r2,[r0,#4]
        0x00005938:    628a        .b      STR      r2,[r1,#0x28]
        0x0000593a:    6880        .h      LDR      r0,[r0,#8]
        0x0000593c:    62c8        .b      STR      r0,[r1,#0x2c]
        0x0000593e:    4770        pG      BX       lr
    $d
        0x00005940:    20000808    ...     DCD    536872968
    $t
    i.nvtUpdateAHRS
    nvtUpdateAHRS
        0x00005944:    b5f0        ..      PUSH     {r4-r7,lr}
        0x00005946:    4604        .F      MOV      r4,r0
        0x00005948:    2000        .       MOVS     r0,#0
        0x0000594a:    b089        ..      SUB      sp,sp,#0x24
        0x0000594c:    9006        ..      STR      r0,[sp,#0x18]
        0x0000594e:    9007        ..      STR      r0,[sp,#0x1c]
        0x00005950:    4605        .F      MOV      r5,r0
        0x00005952:    4606        .F      MOV      r6,r0
        0x00005954:    4607        .F      MOV      r7,r0
        0x00005956:    9008        ..      STR      r0,[sp,#0x20]
        0x00005958:    9002        ..      STR      r0,[sp,#8]
        0x0000595a:    9001        ..      STR      r0,[sp,#4]
        0x0000595c:    9000        ..      STR      r0,[sp,#0]
        0x0000595e:    f7fcfc81    ....    BL       CheckSecurityID ; 0x2264
        0x00005962:    2800        .(      CMP      r0,#0
        0x00005964:    d147        G.      BNE      0x59f6 ; nvtUpdateAHRS + 178
        0x00005966:    4825        %H      LDR      r0,[pc,#148] ; [0x59fc] = 0x20000ab4
        0x00005968:    07e1        ..      LSLS     r1,r4,#31
        0x0000596a:    d005        ..      BEQ      0x5978 ; nvtUpdateAHRS + 52
        0x0000596c:    6d41        Am      LDR      r1,[r0,#0x54]
        0x0000596e:    9106        ..      STR      r1,[sp,#0x18]
        0x00005970:    6d81        .m      LDR      r1,[r0,#0x58]
        0x00005972:    9107        ..      STR      r1,[sp,#0x1c]
        0x00005974:    6dc1        .m      LDR      r1,[r0,#0x5c]
        0x00005976:    9108        ..      STR      r1,[sp,#0x20]
        0x00005978:    07a1        ..      LSLS     r1,r4,#30
        0x0000597a:    d502        ..      BPL      0x5982 ; nvtUpdateAHRS + 62
        0x0000597c:    6e87        .n      LDR      r7,[r0,#0x68]
        0x0000597e:    6e46        Fn      LDR      r6,[r0,#0x64]
        0x00005980:    6e05        .n      LDR      r5,[r0,#0x60]
        0x00005982:    0761        a.      LSLS     r1,r4,#29
        0x00005984:    d505        ..      BPL      0x5992 ; nvtUpdateAHRS + 78
        0x00005986:    6ec1        .n      LDR      r1,[r0,#0x6c]
        0x00005988:    9102        ..      STR      r1,[sp,#8]
        0x0000598a:    6f01        .o      LDR      r1,[r0,#0x70]
        0x0000598c:    9101        ..      STR      r1,[sp,#4]
        0x0000598e:    6f40        @o      LDR      r0,[r0,#0x74]
        0x00005990:    9000        ..      STR      r0,[sp,#0]
        0x00005992:    4c1b        .L      LDR      r4,[pc,#108] ; [0x5a00] = 0x200006bc
        0x00005994:    7820         x      LDRB     r0,[r4,#0]
        0x00005996:    f7fbfd7d    ..}.    BL       __aeabi_ui2f ; 0x1494
        0x0000599a:    491a        .I      LDR      r1,[pc,#104] ; [0x5a04] = 0x447a0000
        0x0000599c:    f7fbfc60    ..`.    BL       __aeabi_fdiv ; 0x1260
        0x000059a0:    9a00        ..      LDR      r2,[sp,#0]
        0x000059a2:    9901        ..      LDR      r1,[sp,#4]
        0x000059a4:    9103        ..      STR      r1,[sp,#0xc]
        0x000059a6:    9005        ..      STR      r0,[sp,#0x14]
        0x000059a8:    9908        ..      LDR      r1,[sp,#0x20]
        0x000059aa:    9807        ..      LDR      r0,[sp,#0x1c]
        0x000059ac:    9101        ..      STR      r1,[sp,#4]
        0x000059ae:    9204        ..      STR      r2,[sp,#0x10]
        0x000059b0:    9000        ..      STR      r0,[sp,#0]
        0x000059b2:    463a        :F      MOV      r2,r7
        0x000059b4:    4631        1F      MOV      r1,r6
        0x000059b6:    4628        (F      MOV      r0,r5
        0x000059b8:    9b06        ..      LDR      r3,[sp,#0x18]
        0x000059ba:    f000fc15    ....    BL       sensfusion9UpdateQ ; 0x61e8
        0x000059be:    4e12        .N      LDR      r6,[pc,#72] ; [0x5a08] = 0x20000aa4
        0x000059c0:    68f5        .h      LDR      r5,[r6,#0xc]
        0x000059c2:    68b0        .h      LDR      r0,[r6,#8]
        0x000059c4:    1a28        (.      SUBS     r0,r5,r0
        0x000059c6:    f7fbfd5d    ..].    BL       __aeabi_i2f ; 0x1484
        0x000059ca:    2100        .!      MOVS     r1,#0
        0x000059cc:    43c9        .C      MVNS     r1,r1
        0x000059ce:    f7fbfd65    ..e.    BL       __ARM_scalbnf ; 0x149c
        0x000059d2:    4607        .F      MOV      r7,r0
        0x000059d4:    7820         x      LDRB     r0,[r4,#0]
        0x000059d6:    f7fbfd5d    ..].    BL       __aeabi_ui2f ; 0x1494
        0x000059da:    2100        .!      MOVS     r1,#0
        0x000059dc:    43c9        .C      MVNS     r1,r1
        0x000059de:    f7fbfd5d    ..].    BL       __ARM_scalbnf ; 0x149c
        0x000059e2:    4639        9F      MOV      r1,r7
        0x000059e4:    f001f866    ..f.    BL       __aeabi_fadd ; 0x6ab4
        0x000059e8:    f7fbfd10    ....    BL       __aeabi_f2uiz ; 0x140c
        0x000059ec:    7020         p      STRB     r0,[r4,#0]
        0x000059ee:    60b5        .`      STR      r5,[r6,#8]
        0x000059f0:    6035        5`      STR      r5,[r6,#0]
        0x000059f2:    f000f923    ..#.    BL       sensfusion6UpdateMagByEuler ; 0x5c3c
        0x000059f6:    b009        ..      ADD      sp,sp,#0x24
        0x000059f8:    bdf0        ..      POP      {r4-r7,pc}
    $d
        0x000059fa:    0000        ..      DCW    0
        0x000059fc:    20000ab4    ...     DCD    536873652
        0x00005a00:    200006bc    ...     DCD    536872636
        0x00005a04:    447a0000    ..zD    DCD    1148846080
        0x00005a08:    20000aa4    ...     DCD    536873636
    $t
    i.oledWriteCommand
    oledWriteCommand
        0x00005a0c:    b510        ..      PUSH     {r4,lr}
        0x00005a0e:    4604        .F      MOV      r4,r0
        0x00005a10:    4621        !F      MOV      r1,r4
        0x00005a12:    2000        .       MOVS     r0,#0
        0x00005a14:    f7fdfeca    ....    BL       OLED_SingleWrite ; 0x37ac
        0x00005a18:    bd10        ..      POP      {r4,pc}
    i.oledWriteData
    oledWriteData
        0x00005a1a:    b510        ..      PUSH     {r4,lr}
        0x00005a1c:    4604        .F      MOV      r4,r0
        0x00005a1e:    4621        !F      MOV      r1,r4
        0x00005a20:    2040        @       MOVS     r0,#0x40
        0x00005a22:    f7fdfec3    ....    BL       OLED_SingleWrite ; 0x37ac
        0x00005a26:    bd10        ..      POP      {r4,pc}
    i.oled_address
    oled_address
        0x00005a28:    b530        0.      PUSH     {r4,r5,lr}
        0x00005a2a:    4604        .F      MOV      r4,r0
        0x00005a2c:    460d        .F      MOV      r5,r1
        0x00005a2e:    4629        )F      MOV      r1,r5
        0x00005a30:    31b0        .1      ADDS     r1,r1,#0xb0
        0x00005a32:    b2c8        ..      UXTB     r0,r1
        0x00005a34:    f7ffffea    ....    BL       oledWriteCommand ; 0x5a0c
        0x00005a38:    21f0        .!      MOVS     r1,#0xf0
        0x00005a3a:    4021        !@      ANDS     r1,r1,r4
        0x00005a3c:    1109        ..      ASRS     r1,r1,#4
        0x00005a3e:    2210        ."      MOVS     r2,#0x10
        0x00005a40:    4311        .C      ORRS     r1,r1,r2
        0x00005a42:    4608        .F      MOV      r0,r1
        0x00005a44:    f7ffffe2    ....    BL       oledWriteCommand ; 0x5a0c
        0x00005a48:    0720         .      LSLS     r0,r4,#28
        0x00005a4a:    0f00        ..      LSRS     r0,r0,#28
        0x00005a4c:    f7ffffde    ....    BL       oledWriteCommand ; 0x5a0c
        0x00005a50:    bd30        0.      POP      {r4,r5,pc}
        0x00005a52:    0000        ..      MOVS     r0,r0
    i.print_C
    print_C
        0x00005a54:    b5f7        ..      PUSH     {r0-r2,r4-r7,lr}
        0x00005a56:    b081        ..      SUB      sp,sp,#4
        0x00005a58:    4606        .F      MOV      r6,r0
        0x00005a5a:    460f        .F      MOV      r7,r1
        0x00005a5c:    2400        .$      MOVS     r4,#0
        0x00005a5e:    e01a        ..      B        0x5a96 ; print_C + 66
        0x00005a60:    007a        z.      LSLS     r2,r7,#1
        0x00005a62:    1912        ..      ADDS     r2,r2,r4
        0x00005a64:    b2d1        ..      UXTB     r1,r2
        0x00005a66:    06f2        ..      LSLS     r2,r6,#27
        0x00005a68:    0e10        ..      LSRS     r0,r2,#24
        0x00005a6a:    f7ffffdd    ....    BL       oled_address ; 0x5a28
        0x00005a6e:    2500        .%      MOVS     r5,#0
        0x00005a70:    e00d        ..      B        0x5a8e ; print_C + 58
        0x00005a72:    9803        ..      LDR      r0,[sp,#0xc]
        0x00005a74:    3820         8      SUBS     r0,r0,#0x20
        0x00005a76:    0100        ..      LSLS     r0,r0,#4
        0x00005a78:    00e1        ..      LSLS     r1,r4,#3
        0x00005a7a:    1840        @.      ADDS     r0,r0,r1
        0x00005a7c:    1940        @.      ADDS     r0,r0,r5
        0x00005a7e:    4907        .I      LDR      r1,[pc,#28] ; [0x5a9c] = 0x2000008c
        0x00005a80:    5c08        .\      LDRB     r0,[r1,r0]
        0x00005a82:    9000        ..      STR      r0,[sp,#0]
        0x00005a84:    9800        ..      LDR      r0,[sp,#0]
        0x00005a86:    f7ffffc8    ....    BL       oledWriteData ; 0x5a1a
        0x00005a8a:    1c68        h.      ADDS     r0,r5,#1
        0x00005a8c:    b2c5        ..      UXTB     r5,r0
        0x00005a8e:    2d08        .-      CMP      r5,#8
        0x00005a90:    dbef        ..      BLT      0x5a72 ; print_C + 30
        0x00005a92:    1c60        `.      ADDS     r0,r4,#1
        0x00005a94:    b2c4        ..      UXTB     r4,r0
        0x00005a96:    2c02        .,      CMP      r4,#2
        0x00005a98:    dbe2        ..      BLT      0x5a60 ; print_C + 12
        0x00005a9a:    bdff        ..      POP      {r0-r7,pc}
    $d
        0x00005a9c:    2000008c    ...     DCD    536871052
    $t
    i.print_Line
    print_Line
        0x00005aa0:    b570        p.      PUSH     {r4-r6,lr}
        0x00005aa2:    4606        .F      MOV      r6,r0
        0x00005aa4:    460d        .F      MOV      r5,r1
        0x00005aa6:    2400        .$      MOVS     r4,#0
        0x00005aa8:    e006        ..      B        0x5ab8 ; print_Line + 24
        0x00005aaa:    5d2a        *]      LDRB     r2,[r5,r4]
        0x00005aac:    4631        1F      MOV      r1,r6
        0x00005aae:    4620         F      MOV      r0,r4
        0x00005ab0:    f7ffffd0    ....    BL       print_C ; 0x5a54
        0x00005ab4:    1c60        `.      ADDS     r0,r4,#1
        0x00005ab6:    b2c4        ..      UXTB     r4,r0
        0x00005ab8:    4628        (F      MOV      r0,r5
        0x00005aba:    f7fafc9d    ....    BL       strlen ; 0x3f8
        0x00005abe:    42a0        .B      CMP      r0,r4
        0x00005ac0:    d8f3        ..      BHI      0x5aaa ; print_Line + 10
        0x00005ac2:    bd70        p.      POP      {r4-r6,pc}
    i.pushBuffer
    pushBuffer
        0x00005ac4:    1dc3        ..      ADDS     r3,r0,#7
        0x00005ac6:    b410        ..      PUSH     {r4}
        0x00005ac8:    33ff        .3      ADDS     r3,r3,#0xff
        0x00005aca:    33fa        .3      ADDS     r3,r3,#0xfa
        0x00005acc:    2212        ."      MOVS     r2,#0x12
        0x00005ace:    5e9a        .^      LDRSH    r2,[r3,r2]
        0x00005ad0:    17d4        ..      ASRS     r4,r2,#31
        0x00005ad2:    0e24        $.      LSRS     r4,r4,#24
        0x00005ad4:    18a4        ..      ADDS     r4,r4,r2
        0x00005ad6:    0a24        $.      LSRS     r4,r4,#8
        0x00005ad8:    0224        $.      LSLS     r4,r4,#8
        0x00005ada:    1b14        ..      SUBS     r4,r2,r4
        0x00005adc:    0064        d.      LSLS     r4,r4,#1
        0x00005ade:    1c52        R.      ADDS     r2,r2,#1
        0x00005ae0:    1820         .      ADDS     r0,r4,r0
        0x00005ae2:    825a        Z.      STRH     r2,[r3,#0x12]
        0x00005ae4:    8001        ..      STRH     r1,[r0,#0]
        0x00005ae6:    2012        .       MOVS     r0,#0x12
        0x00005ae8:    5e18        .^      LDRSH    r0,[r3,r0]
        0x00005aea:    28ff        .(      CMP      r0,#0xff
        0x00005aec:    dc02        ..      BGT      0x5af4 ; pushBuffer + 48
        0x00005aee:    bc10        ..      POP      {r4}
        0x00005af0:    2000        .       MOVS     r0,#0
        0x00005af2:    4770        pG      BX       lr
        0x00005af4:    bc10        ..      POP      {r4}
        0x00005af6:    2001        .       MOVS     r0,#1
        0x00005af8:    4770        pG      BX       lr
    i.quickSortIterative
    quickSortIterative
        0x00005afa:    b5f7        ..      PUSH     {r0-r2,r4-r7,lr}
        0x00005afc:    b0ff        ..      SUB      sp,sp,#0x1fc
        0x00005afe:    b085        ..      SUB      sp,sp,#0x14
        0x00005b00:    466c        lF      MOV      r4,sp
        0x00005b02:    8221        !.      STRH     r1,[r4,#0x10]
        0x00005b04:    2301        .#      MOVS     r3,#1
        0x00005b06:    8262        b.      STRH     r2,[r4,#0x12]
        0x00005b08:    0059        Y.      LSLS     r1,r3,#1
        0x00005b0a:    a804        ..      ADD      r0,sp,#0x10
        0x00005b0c:    5e44        D^      LDRSH    r4,[r0,r1]
        0x00005b0e:    1e5b        [.      SUBS     r3,r3,#1
        0x00005b10:    b219        ..      SXTH     r1,r3
        0x00005b12:    004a        J.      LSLS     r2,r1,#1
        0x00005b14:    5e80        .^      LDRSH    r0,[r0,r2]
        0x00005b16:    1e49        I.      SUBS     r1,r1,#1
        0x00005b18:    b20b        ..      SXTH     r3,r1
        0x00005b1a:    0062        b.      LSLS     r2,r4,#1
        0x00005b1c:    9984        ..      LDR      r1,[sp,#0x210]
        0x00005b1e:    9201        ..      STR      r2,[sp,#4]
        0x00005b20:    5e8a        .^      LDRSH    r2,[r1,r2]
        0x00005b22:    46a4        .F      MOV      r12,r4
        0x00005b24:    9202        ..      STR      r2,[sp,#8]
        0x00005b26:    1e42        B.      SUBS     r2,r0,#1
        0x00005b28:    1e64        d.      SUBS     r4,r4,#1
        0x00005b2a:    4606        .F      MOV      r6,r0
        0x00005b2c:    b212        ..      SXTH     r2,r2
        0x00005b2e:    9400        ..      STR      r4,[sp,#0]
        0x00005b30:    42a0        .B      CMP      r0,r4
        0x00005b32:    dc14        ..      BGT      0x5b5e ; quickSortIterative + 100
        0x00005b34:    0047        G.      LSLS     r7,r0,#1
        0x00005b36:    5fcd        ._      LDRSH    r5,[r1,r7]
        0x00005b38:    9c02        ..      LDR      r4,[sp,#8]
        0x00005b3a:    42a5        .B      CMP      r5,r4
        0x00005b3c:    dc0a        ..      BGT      0x5b54 ; quickSortIterative + 90
        0x00005b3e:    1c52        R.      ADDS     r2,r2,#1
        0x00005b40:    b212        ..      SXTH     r2,r2
        0x00005b42:    0054        T.      LSLS     r4,r2,#1
        0x00005b44:    1865        e.      ADDS     r5,r4,r1
        0x00005b46:    187c        |.      ADDS     r4,r7,r1
        0x00005b48:    882f        /.      LDRH     r7,[r5,#0]
        0x00005b4a:    46be        .F      MOV      lr,r7
        0x00005b4c:    8827        '.      LDRH     r7,[r4,#0]
        0x00005b4e:    802f        /.      STRH     r7,[r5,#0]
        0x00005b50:    4677        wF      MOV      r7,lr
        0x00005b52:    8027        '.      STRH     r7,[r4,#0]
        0x00005b54:    1c40        @.      ADDS     r0,r0,#1
        0x00005b56:    9c00        ..      LDR      r4,[sp,#0]
        0x00005b58:    b200        ..      SXTH     r0,r0
        0x00005b5a:    42a0        .B      CMP      r0,r4
        0x00005b5c:    ddea        ..      BLE      0x5b34 ; quickSortIterative + 58
        0x00005b5e:    0050        P.      LSLS     r0,r2,#1
        0x00005b60:    9c01        ..      LDR      r4,[sp,#4]
        0x00005b62:    1840        @.      ADDS     r0,r0,r1
        0x00005b64:    1861        a.      ADDS     r1,r4,r1
        0x00005b66:    8844        D.      LDRH     r4,[r0,#2]
        0x00005b68:    880d        ..      LDRH     r5,[r1,#0]
        0x00005b6a:    8045        E.      STRH     r5,[r0,#2]
        0x00005b6c:    1c52        R.      ADDS     r2,r2,#1
        0x00005b6e:    800c        ..      STRH     r4,[r1,#0]
        0x00005b70:    b210        ..      SXTH     r0,r2
        0x00005b72:    1e41        A.      SUBS     r1,r0,#1
        0x00005b74:    460a        .F      MOV      r2,r1
        0x00005b76:    42b1        .B      CMP      r1,r6
        0x00005b78:    dd08        ..      BLE      0x5b8c ; quickSortIterative + 146
        0x00005b7a:    1c5b        [.      ADDS     r3,r3,#1
        0x00005b7c:    b219        ..      SXTH     r1,r3
        0x00005b7e:    004b        K.      LSLS     r3,r1,#1
        0x00005b80:    ac04        ..      ADD      r4,sp,#0x10
        0x00005b82:    52e6        .R      STRH     r6,[r4,r3]
        0x00005b84:    1c49        I.      ADDS     r1,r1,#1
        0x00005b86:    b20b        ..      SXTH     r3,r1
        0x00005b88:    0059        Y.      LSLS     r1,r3,#1
        0x00005b8a:    5262        bR      STRH     r2,[r4,r1]
        0x00005b8c:    1c40        @.      ADDS     r0,r0,#1
        0x00005b8e:    4560        `E      CMP      r0,r12
        0x00005b90:    da09        ..      BGE      0x5ba6 ; quickSortIterative + 172
        0x00005b92:    1c5b        [.      ADDS     r3,r3,#1
        0x00005b94:    b219        ..      SXTH     r1,r3
        0x00005b96:    004b        K.      LSLS     r3,r1,#1
        0x00005b98:    aa04        ..      ADD      r2,sp,#0x10
        0x00005b9a:    52d0        .R      STRH     r0,[r2,r3]
        0x00005b9c:    1c49        I.      ADDS     r1,r1,#1
        0x00005b9e:    b20b        ..      SXTH     r3,r1
        0x00005ba0:    4660        `F      MOV      r0,r12
        0x00005ba2:    0059        Y.      LSLS     r1,r3,#1
        0x00005ba4:    5250        PR      STRH     r0,[r2,r1]
        0x00005ba6:    2b00        .+      CMP      r3,#0
        0x00005ba8:    daae        ..      BGE      0x5b08 ; quickSortIterative + 14
        0x00005baa:    b07f        ..      ADD      sp,sp,#0x1fc
        0x00005bac:    b008        ..      ADD      sp,sp,#0x20
        0x00005bae:    bdf0        ..      POP      {r4-r7,pc}
    i.reset_calibration_matrices
    reset_calibration_matrices
        0x00005bb0:    b470        p.      PUSH     {r4-r6}
        0x00005bb2:    2100        .!      MOVS     r1,#0
        0x00005bb4:    4e09        .N      LDR      r6,[pc,#36] ; [0x5bdc] = 0x20001990
        0x00005bb6:    4d0a        .M      LDR      r5,[pc,#40] ; [0x5be0] = 0x20001800
        0x00005bb8:    460a        .F      MOV      r2,r1
        0x00005bba:    0088        ..      LSLS     r0,r1,#2
        0x00005bbc:    5032        2P      STR      r2,[r6,r0]
        0x00005bbe:    2328        (#      MOVS     r3,#0x28
        0x00005bc0:    2000        .       MOVS     r0,#0
        0x00005bc2:    434b        KC      MULS     r3,r1,r3
        0x00005bc4:    195b        [.      ADDS     r3,r3,r5
        0x00005bc6:    0084        ..      LSLS     r4,r0,#2
        0x00005bc8:    1c40        @.      ADDS     r0,r0,#1
        0x00005bca:    511a        .Q      STR      r2,[r3,r4]
        0x00005bcc:    280a        .(      CMP      r0,#0xa
        0x00005bce:    dbfa        ..      BLT      0x5bc6 ; reset_calibration_matrices + 22
        0x00005bd0:    1c49        I.      ADDS     r1,r1,#1
        0x00005bd2:    290a        .)      CMP      r1,#0xa
        0x00005bd4:    dbf1        ..      BLT      0x5bba ; reset_calibration_matrices + 10
        0x00005bd6:    bc70        p.      POP      {r4-r6}
        0x00005bd8:    4770        pG      BX       lr
    $d
        0x00005bda:    0000        ..      DCW    0
        0x00005bdc:    20001990    ...     DCD    536877456
        0x00005be0:    20001800    ...     DCD    536877056
    $t
    i.sensfusion6GetAccZWithoutGravity
    sensfusion6GetAccZWithoutGravity
        0x00005be4:    b5f8        ..      PUSH     {r3-r7,lr}
        0x00005be6:    4c0e        .L      LDR      r4,[pc,#56] ; [0x5c20] = 0x200006fc
        0x00005be8:    460d        .F      MOV      r5,r1
        0x00005bea:    4606        .F      MOV      r6,r0
        0x00005bec:    4610        .F      MOV      r0,r2
        0x00005bee:    6aa1        .j      LDR      r1,[r4,#0x28]
        0x00005bf0:    f000ffd0    ....    BL       __aeabi_fmul ; 0x6b94
        0x00005bf4:    4607        .F      MOV      r7,r0
        0x00005bf6:    4628        (F      MOV      r0,r5
        0x00005bf8:    6a61        aj      LDR      r1,[r4,#0x24]
        0x00005bfa:    f000ffcb    ....    BL       __aeabi_fmul ; 0x6b94
        0x00005bfe:    4605        .F      MOV      r5,r0
        0x00005c00:    4630        0F      MOV      r0,r6
        0x00005c02:    6a21        !j      LDR      r1,[r4,#0x20]
        0x00005c04:    f000ffc6    ....    BL       __aeabi_fmul ; 0x6b94
        0x00005c08:    4629        )F      MOV      r1,r5
        0x00005c0a:    f000ff53    ..S.    BL       __aeabi_fadd ; 0x6ab4
        0x00005c0e:    4639        9F      MOV      r1,r7
        0x00005c10:    f000ff50    ..P.    BL       __aeabi_fadd ; 0x6ab4
        0x00005c14:    217f        .!      MOVS     r1,#0x7f
        0x00005c16:    05c9        ..      LSLS     r1,r1,#23
        0x00005c18:    f001f84c    ..L.    BL       __aeabi_fsub ; 0x6cb4
        0x00005c1c:    bdf8        ..      POP      {r3-r7,pc}
    $d
        0x00005c1e:    0000        ..      DCW    0
        0x00005c20:    200006fc    ...     DCD    536872700
    $t
    i.sensfusion6GetEulerRPY
    sensfusion6GetEulerRPY
        0x00005c24:    b410        ..      PUSH     {r4}
        0x00005c26:    4b04        .K      LDR      r3,[pc,#16] ; [0x5c38] = 0x200006fc
        0x00005c28:    6d9c        .m      LDR      r4,[r3,#0x58]
        0x00005c2a:    6014        .`      STR      r4,[r2,#0]
        0x00005c2c:    6d5a        Zm      LDR      r2,[r3,#0x54]
        0x00005c2e:    600a        .`      STR      r2,[r1,#0]
        0x00005c30:    6d19        .m      LDR      r1,[r3,#0x50]
        0x00005c32:    6001        .`      STR      r1,[r0,#0]
        0x00005c34:    bc10        ..      POP      {r4}
        0x00005c36:    4770        pG      BX       lr
    $d
        0x00005c38:    200006fc    ...     DCD    536872700
    $t
    i.sensfusion6UpdateMagByEuler
    sensfusion6UpdateMagByEuler
        0x00005c3c:    b5f0        ..      PUSH     {r4-r7,lr}
        0x00005c3e:    b087        ..      SUB      sp,sp,#0x1c
        0x00005c40:    2000        .       MOVS     r0,#0
        0x00005c42:    4c6d        mL      LDR      r4,[pc,#436] ; [0x5df8] = 0x200006fc
        0x00005c44:    9000        ..      STR      r0,[sp,#0]
        0x00005c46:    6c60        `l      LDR      r0,[r4,#0x44]
        0x00005c48:    f7fbfae0    ....    BL       __aeabi_f2d ; 0x120c
        0x00005c4c:    f000fe14    ....    BL       sin ; 0x6878
        0x00005c50:    4d6a        jM      LDR      r5,[pc,#424] ; [0x5dfc] = 0x20001a34
        0x00005c52:    4606        .F      MOV      r6,r0
        0x00005c54:    460f        .F      MOV      r7,r1
        0x00005c56:    68a8        .h      LDR      r0,[r5,#8]
        0x00005c58:    f7fbfad8    ....    BL       __aeabi_f2d ; 0x120c
        0x00005c5c:    4632        2F      MOV      r2,r6
        0x00005c5e:    463b        ;F      MOV      r3,r7
        0x00005c60:    f7fbf9a0    ....    BL       __aeabi_dmul ; 0xfa4
        0x00005c64:    4607        .F      MOV      r7,r0
        0x00005c66:    9102        ..      STR      r1,[sp,#8]
        0x00005c68:    6c60        `l      LDR      r0,[r4,#0x44]
        0x00005c6a:    f7fbfacf    ....    BL       __aeabi_f2d ; 0x120c
        0x00005c6e:    f7fff98d    ....    BL       cos ; 0x4f8c
        0x00005c72:    4606        .F      MOV      r6,r0
        0x00005c74:    9101        ..      STR      r1,[sp,#4]
        0x00005c76:    6868        hh      LDR      r0,[r5,#4]
        0x00005c78:    f7fbfac8    ....    BL       __aeabi_f2d ; 0x120c
        0x00005c7c:    4632        2F      MOV      r2,r6
        0x00005c7e:    9b01        ..      LDR      r3,[sp,#4]
        0x00005c80:    f7fbf990    ....    BL       __aeabi_dmul ; 0xfa4
        0x00005c84:    463a        :F      MOV      r2,r7
        0x00005c86:    9b02        ..      LDR      r3,[sp,#8]
        0x00005c88:    f7fafee5    ....    BL       __aeabi_dsub ; 0xa56
        0x00005c8c:    f7fafd1e    ....    BL       __aeabi_d2f ; 0x6cc
        0x00005c90:    6620         f      STR      r0,[r4,#0x60]
        0x00005c92:    9900        ..      LDR      r1,[sp,#0]
        0x00005c94:    6ca0        .l      LDR      r0,[r4,#0x48]
        0x00005c96:    f000ff0d    ....    BL       __aeabi_fadd ; 0x6ab4
        0x00005c9a:    f7fbfab7    ....    BL       __aeabi_f2d ; 0x120c
        0x00005c9e:    f000fdeb    ....    BL       sin ; 0x6878
        0x00005ca2:    9103        ..      STR      r1,[sp,#0xc]
        0x00005ca4:    9002        ..      STR      r0,[sp,#8]
        0x00005ca6:    6c60        `l      LDR      r0,[r4,#0x44]
        0x00005ca8:    f7fbfab0    ....    BL       __aeabi_f2d ; 0x120c
        0x00005cac:    f7fff96e    ..n.    BL       cos ; 0x4f8c
        0x00005cb0:    4606        .F      MOV      r6,r0
        0x00005cb2:    460f        .F      MOV      r7,r1
        0x00005cb4:    68a8        .h      LDR      r0,[r5,#8]
        0x00005cb6:    f7fbfaa9    ....    BL       __aeabi_f2d ; 0x120c
        0x00005cba:    4632        2F      MOV      r2,r6
        0x00005cbc:    463b        ;F      MOV      r3,r7
        0x00005cbe:    f7fbf971    ..q.    BL       __aeabi_dmul ; 0xfa4
        0x00005cc2:    9b03        ..      LDR      r3,[sp,#0xc]
        0x00005cc4:    9a02        ..      LDR      r2,[sp,#8]
        0x00005cc6:    f7fbf96d    ..m.    BL       __aeabi_dmul ; 0xfa4
        0x00005cca:    9103        ..      STR      r1,[sp,#0xc]
        0x00005ccc:    9002        ..      STR      r0,[sp,#8]
        0x00005cce:    6c60        `l      LDR      r0,[r4,#0x44]
        0x00005cd0:    f7fbfa9c    ....    BL       __aeabi_f2d ; 0x120c
        0x00005cd4:    f000fdd0    ....    BL       sin ; 0x6878
        0x00005cd8:    4607        .F      MOV      r7,r0
        0x00005cda:    9104        ..      STR      r1,[sp,#0x10]
        0x00005cdc:    6ca0        .l      LDR      r0,[r4,#0x48]
        0x00005cde:    f7fbfa95    ....    BL       __aeabi_f2d ; 0x120c
        0x00005ce2:    f000fdc9    ....    BL       sin ; 0x6878
        0x00005ce6:    4606        .F      MOV      r6,r0
        0x00005ce8:    9101        ..      STR      r1,[sp,#4]
        0x00005cea:    6868        hh      LDR      r0,[r5,#4]
        0x00005cec:    f7fbfa8e    ....    BL       __aeabi_f2d ; 0x120c
        0x00005cf0:    4632        2F      MOV      r2,r6
        0x00005cf2:    9b01        ..      LDR      r3,[sp,#4]
        0x00005cf4:    f7fbf956    ..V.    BL       __aeabi_dmul ; 0xfa4
        0x00005cf8:    463a        :F      MOV      r2,r7
        0x00005cfa:    9b04        ..      LDR      r3,[sp,#0x10]
        0x00005cfc:    f7fbf952    ..R.    BL       __aeabi_dmul ; 0xfa4
        0x00005d00:    9105        ..      STR      r1,[sp,#0x14]
        0x00005d02:    9004        ..      STR      r0,[sp,#0x10]
        0x00005d04:    9900        ..      LDR      r1,[sp,#0]
        0x00005d06:    6ca0        .l      LDR      r0,[r4,#0x48]
        0x00005d08:    f000fed4    ....    BL       __aeabi_fadd ; 0x6ab4
        0x00005d0c:    f7fbfa7e    ..~.    BL       __aeabi_f2d ; 0x120c
        0x00005d10:    f7fff93c    ..<.    BL       cos ; 0x4f8c
        0x00005d14:    4606        .F      MOV      r6,r0
        0x00005d16:    460f        .F      MOV      r7,r1
        0x00005d18:    6828        (h      LDR      r0,[r5,#0]
        0x00005d1a:    f7fbfa77    ..w.    BL       __aeabi_f2d ; 0x120c
        0x00005d1e:    4632        2F      MOV      r2,r6
        0x00005d20:    463b        ;F      MOV      r3,r7
        0x00005d22:    f7fbf93f    ..?.    BL       __aeabi_dmul ; 0xfa4
        0x00005d26:    9b05        ..      LDR      r3,[sp,#0x14]
        0x00005d28:    9a04        ..      LDR      r2,[sp,#0x10]
        0x00005d2a:    f7fafe89    ....    BL       __aeabi_dadd ; 0xa40
        0x00005d2e:    9b03        ..      LDR      r3,[sp,#0xc]
        0x00005d30:    9a02        ..      LDR      r2,[sp,#8]
        0x00005d32:    f7fafe85    ....    BL       __aeabi_dadd ; 0xa40
        0x00005d36:    f7fafcc9    ....    BL       __aeabi_d2f ; 0x6cc
        0x00005d3a:    65e0        .e      STR      r0,[r4,#0x5c]
        0x00005d3c:    6c60        `l      LDR      r0,[r4,#0x44]
        0x00005d3e:    f7fbfa65    ..e.    BL       __aeabi_f2d ; 0x120c
        0x00005d42:    f7fff923    ..#.    BL       cos ; 0x4f8c
        0x00005d46:    460f        .F      MOV      r7,r1
        0x00005d48:    9002        ..      STR      r0,[sp,#8]
        0x00005d4a:    9900        ..      LDR      r1,[sp,#0]
        0x00005d4c:    6ca0        .l      LDR      r0,[r4,#0x48]
        0x00005d4e:    f000feb1    ....    BL       __aeabi_fadd ; 0x6ab4
        0x00005d52:    f7fbfa5b    ..[.    BL       __aeabi_f2d ; 0x120c
        0x00005d56:    f7fff919    ....    BL       cos ; 0x4f8c
        0x00005d5a:    4606        .F      MOV      r6,r0
        0x00005d5c:    9101        ..      STR      r1,[sp,#4]
        0x00005d5e:    68a8        .h      LDR      r0,[r5,#8]
        0x00005d60:    f7fbfa54    ..T.    BL       __aeabi_f2d ; 0x120c
        0x00005d64:    4632        2F      MOV      r2,r6
        0x00005d66:    9b01        ..      LDR      r3,[sp,#4]
        0x00005d68:    f7fbf91c    ....    BL       __aeabi_dmul ; 0xfa4
        0x00005d6c:    463b        ;F      MOV      r3,r7
        0x00005d6e:    9a02        ..      LDR      r2,[sp,#8]
        0x00005d70:    f7fbf918    ....    BL       __aeabi_dmul ; 0xfa4
        0x00005d74:    9103        ..      STR      r1,[sp,#0xc]
        0x00005d76:    9002        ..      STR      r0,[sp,#8]
        0x00005d78:    6c60        `l      LDR      r0,[r4,#0x44]
        0x00005d7a:    f7fbfa47    ..G.    BL       __aeabi_f2d ; 0x120c
        0x00005d7e:    f000fd7b    ..{.    BL       sin ; 0x6878
        0x00005d82:    9101        ..      STR      r1,[sp,#4]
        0x00005d84:    4607        .F      MOV      r7,r0
        0x00005d86:    9900        ..      LDR      r1,[sp,#0]
        0x00005d88:    6ca0        .l      LDR      r0,[r4,#0x48]
        0x00005d8a:    f000fe93    ....    BL       __aeabi_fadd ; 0x6ab4
        0x00005d8e:    f7fbfa3d    ..=.    BL       __aeabi_f2d ; 0x120c
        0x00005d92:    f7fff8fb    ....    BL       cos ; 0x4f8c
        0x00005d96:    9004        ..      STR      r0,[sp,#0x10]
        0x00005d98:    460e        .F      MOV      r6,r1
        0x00005d9a:    6868        hh      LDR      r0,[r5,#4]
        0x00005d9c:    f7fbfa36    ..6.    BL       __aeabi_f2d ; 0x120c
        0x00005da0:    4633        3F      MOV      r3,r6
        0x00005da2:    9a04        ..      LDR      r2,[sp,#0x10]
        0x00005da4:    f7fbf8fe    ....    BL       __aeabi_dmul ; 0xfa4
        0x00005da8:    463a        :F      MOV      r2,r7
        0x00005daa:    9b01        ..      LDR      r3,[sp,#4]
        0x00005dac:    f7fbf8fa    ....    BL       __aeabi_dmul ; 0xfa4
        0x00005db0:    460f        .F      MOV      r7,r1
        0x00005db2:    9004        ..      STR      r0,[sp,#0x10]
        0x00005db4:    9900        ..      LDR      r1,[sp,#0]
        0x00005db6:    6ca0        .l      LDR      r0,[r4,#0x48]
        0x00005db8:    f000fe7c    ..|.    BL       __aeabi_fadd ; 0x6ab4
        0x00005dbc:    f7fbfa26    ..&.    BL       __aeabi_f2d ; 0x120c
        0x00005dc0:    f000fd5a    ..Z.    BL       sin ; 0x6878
        0x00005dc4:    460e        .F      MOV      r6,r1
        0x00005dc6:    9000        ..      STR      r0,[sp,#0]
        0x00005dc8:    2101        .!      MOVS     r1,#1
        0x00005dca:    6828        (h      LDR      r0,[r5,#0]
        0x00005dcc:    07c9        ..      LSLS     r1,r1,#31
        0x00005dce:    4048        H@      EORS     r0,r0,r1
        0x00005dd0:    f7fbfa1c    ....    BL       __aeabi_f2d ; 0x120c
        0x00005dd4:    4633        3F      MOV      r3,r6
        0x00005dd6:    9a00        ..      LDR      r2,[sp,#0]
        0x00005dd8:    f7fbf8e4    ....    BL       __aeabi_dmul ; 0xfa4
        0x00005ddc:    463b        ;F      MOV      r3,r7
        0x00005dde:    9a04        ..      LDR      r2,[sp,#0x10]
        0x00005de0:    f7fafe2e    ....    BL       __aeabi_dadd ; 0xa40
        0x00005de4:    9b03        ..      LDR      r3,[sp,#0xc]
        0x00005de6:    9a02        ..      LDR      r2,[sp,#8]
        0x00005de8:    f7fafe2a    ..*.    BL       __aeabi_dadd ; 0xa40
        0x00005dec:    f7fafc6e    ..n.    BL       __aeabi_d2f ; 0x6cc
        0x00005df0:    6660        `f      STR      r0,[r4,#0x64]
        0x00005df2:    b007        ..      ADD      sp,sp,#0x1c
        0x00005df4:    bdf0        ..      POP      {r4-r7,pc}
    $d
        0x00005df6:    0000        ..      DCW    0
        0x00005df8:    200006fc    ...     DCD    536872700
        0x00005dfc:    20001a34    4..     DCD    536877620
    $t
    i.sensfusion6UpdateQ
    sensfusion6UpdateQ
        0x00005e00:    b5ff        ..      PUSH     {r0-r7,lr}
        0x00005e02:    b093        ..      SUB      sp,sp,#0x4c
        0x00005e04:    4df4        .M      LDR      r5,[pc,#976] ; [0x61d8] = 0x40490fdb
        0x00005e06:    2600        .&      MOVS     r6,#0
        0x00005e08:    4629        )F      MOV      r1,r5
        0x00005e0a:    9f1d        ..      LDR      r7,[sp,#0x74]
        0x00005e0c:    9813        ..      LDR      r0,[sp,#0x4c]
        0x00005e0e:    f000fec1    ....    BL       __aeabi_fmul ; 0x6b94
        0x00005e12:    49f2        .I      LDR      r1,[pc,#968] ; [0x61dc] = 0x43340000
        0x00005e14:    f7fbfa24    ..$.    BL       __aeabi_fdiv ; 0x1260
        0x00005e18:    4cf1        .L      LDR      r4,[pc,#964] ; [0x61e0] = 0x200006fc
        0x00005e1a:    4629        )F      MOV      r1,r5
        0x00005e1c:    6160        `a      STR      r0,[r4,#0x14]
        0x00005e1e:    9814        ..      LDR      r0,[sp,#0x50]
        0x00005e20:    f000feb8    ....    BL       __aeabi_fmul ; 0x6b94
        0x00005e24:    49ed        .I      LDR      r1,[pc,#948] ; [0x61dc] = 0x43340000
        0x00005e26:    f7fbfa1b    ....    BL       __aeabi_fdiv ; 0x1260
        0x00005e2a:    61a0        .a      STR      r0,[r4,#0x18]
        0x00005e2c:    4629        )F      MOV      r1,r5
        0x00005e2e:    9815        ..      LDR      r0,[sp,#0x54]
        0x00005e30:    f000feb0    ....    BL       __aeabi_fmul ; 0x6b94
        0x00005e34:    49e9        .I      LDR      r1,[pc,#932] ; [0x61dc] = 0x43340000
        0x00005e36:    f7fbfa13    ....    BL       __aeabi_fdiv ; 0x1260
        0x00005e3a:    61e0        .a      STR      r0,[r4,#0x1c]
        0x00005e3c:    991e        ..      LDR      r1,[sp,#0x78]
        0x00005e3e:    9813        ..      LDR      r0,[sp,#0x4c]
        0x00005e40:    f000fea8    ....    BL       __aeabi_fmul ; 0x6b94
        0x00005e44:    6ae1        .j      LDR      r1,[r4,#0x2c]
        0x00005e46:    f000fe35    ..5.    BL       __aeabi_fadd ; 0x6ab4
        0x00005e4a:    62e0        .b      STR      r0,[r4,#0x2c]
        0x00005e4c:    991e        ..      LDR      r1,[sp,#0x78]
        0x00005e4e:    9814        ..      LDR      r0,[sp,#0x50]
        0x00005e50:    f000fea0    ....    BL       __aeabi_fmul ; 0x6b94
        0x00005e54:    6b21        !k      LDR      r1,[r4,#0x30]
        0x00005e56:    f000fe2d    ..-.    BL       __aeabi_fadd ; 0x6ab4
        0x00005e5a:    6320         c      STR      r0,[r4,#0x30]
        0x00005e5c:    991e        ..      LDR      r1,[sp,#0x78]
        0x00005e5e:    9815        ..      LDR      r0,[sp,#0x54]
        0x00005e60:    f000fe98    ....    BL       __aeabi_fmul ; 0x6b94
        0x00005e64:    6b61        ak      LDR      r1,[r4,#0x34]
        0x00005e66:    f000fe25    ..%.    BL       __aeabi_fadd ; 0x6ab4
        0x00005e6a:    6360        `c      STR      r0,[r4,#0x34]
        0x00005e6c:    9816        ..      LDR      r0,[sp,#0x58]
        0x00005e6e:    4ddd        .M      LDR      r5,[pc,#884] ; [0x61e4] = 0x2000077c
        0x00005e70:    0040        @.      LSLS     r0,r0,#1
        0x00005e72:    0e00        ..      LSRS     r0,r0,#24
        0x00005e74:    d106        ..      BNE      0x5e84 ; sensfusion6UpdateQ + 132
        0x00005e76:    981c        ..      LDR      r0,[sp,#0x70]
        0x00005e78:    0040        @.      LSLS     r0,r0,#1
        0x00005e7a:    0e00        ..      LSRS     r0,r0,#24
        0x00005e7c:    d102        ..      BNE      0x5e84 ; sensfusion6UpdateQ + 132
        0x00005e7e:    0078        x.      LSLS     r0,r7,#1
        0x00005e80:    0e00        ..      LSRS     r0,r0,#24
        0x00005e82:    d07d        }.      BEQ      0x5f80 ; sensfusion6UpdateQ + 384
        0x00005e84:    9813        ..      LDR      r0,[sp,#0x4c]
        0x00005e86:    0040        @.      LSLS     r0,r0,#1
        0x00005e88:    0e00        ..      LSRS     r0,r0,#24
        0x00005e8a:    d109        ..      BNE      0x5ea0 ; sensfusion6UpdateQ + 160
        0x00005e8c:    9814        ..      LDR      r0,[sp,#0x50]
        0x00005e8e:    0040        @.      LSLS     r0,r0,#1
        0x00005e90:    0e00        ..      LSRS     r0,r0,#24
        0x00005e92:    d105        ..      BNE      0x5ea0 ; sensfusion6UpdateQ + 160
        0x00005e94:    9815        ..      LDR      r0,[sp,#0x54]
        0x00005e96:    0040        @.      LSLS     r0,r0,#1
        0x00005e98:    0e00        ..      LSRS     r0,r0,#24
        0x00005e9a:    d101        ..      BNE      0x5ea0 ; sensfusion6UpdateQ + 160
        0x00005e9c:    2641        A&      MOVS     r6,#0x41
        0x00005e9e:    0636        6.      LSLS     r6,r6,#24
        0x00005ea0:    4639        9F      MOV      r1,r7
        0x00005ea2:    4608        .F      MOV      r0,r1
        0x00005ea4:    f000fe76    ..v.    BL       __aeabi_fmul ; 0x6b94
        0x00005ea8:    991c        ..      LDR      r1,[sp,#0x70]
        0x00005eaa:    9001        ..      STR      r0,[sp,#4]
        0x00005eac:    4608        .F      MOV      r0,r1
        0x00005eae:    f000fe71    ..q.    BL       __aeabi_fmul ; 0x6b94
        0x00005eb2:    9916        ..      LDR      r1,[sp,#0x58]
        0x00005eb4:    9000        ..      STR      r0,[sp,#0]
        0x00005eb6:    4608        .F      MOV      r0,r1
        0x00005eb8:    f000fe6c    ..l.    BL       __aeabi_fmul ; 0x6b94
        0x00005ebc:    9900        ..      LDR      r1,[sp,#0]
        0x00005ebe:    f000fdf9    ....    BL       __aeabi_fadd ; 0x6ab4
        0x00005ec2:    9901        ..      LDR      r1,[sp,#4]
        0x00005ec4:    f000fdf6    ....    BL       __aeabi_fadd ; 0x6ab4
        0x00005ec8:    f7fff94e    ..N.    BL       invSqrt ; 0x5168
        0x00005ecc:    4601        .F      MOV      r1,r0
        0x00005ece:    9000        ..      STR      r0,[sp,#0]
        0x00005ed0:    9816        ..      LDR      r0,[sp,#0x58]
        0x00005ed2:    f000fe5f    .._.    BL       __aeabi_fmul ; 0x6b94
        0x00005ed6:    63a0        .c      STR      r0,[r4,#0x38]
        0x00005ed8:    9002        ..      STR      r0,[sp,#8]
        0x00005eda:    9900        ..      LDR      r1,[sp,#0]
        0x00005edc:    981c        ..      LDR      r0,[sp,#0x70]
        0x00005ede:    f000fe59    ..Y.    BL       __aeabi_fmul ; 0x6b94
        0x00005ee2:    63e0        .c      STR      r0,[r4,#0x3c]
        0x00005ee4:    9008        ..      STR      r0,[sp,#0x20]
        0x00005ee6:    4638        8F      MOV      r0,r7
        0x00005ee8:    9900        ..      LDR      r1,[sp,#0]
        0x00005eea:    f000fe53    ..S.    BL       __aeabi_fmul ; 0x6b94
        0x00005eee:    6420         d      STR      r0,[r4,#0x40]
        0x00005ef0:    9006        ..      STR      r0,[sp,#0x18]
        0x00005ef2:    6fe1        .o      LDR      r1,[r4,#0x7c]
        0x00005ef4:    9101        ..      STR      r1,[sp,#4]
        0x00005ef6:    6f60        `o      LDR      r0,[r4,#0x74]
        0x00005ef8:    9004        ..      STR      r0,[sp,#0x10]
        0x00005efa:    f000fe4b    ..K.    BL       __aeabi_fmul ; 0x6b94
        0x00005efe:    9005        ..      STR      r0,[sp,#0x14]
        0x00005f00:    6829        )h      LDR      r1,[r5,#0]
        0x00005f02:    9100        ..      STR      r1,[sp,#0]
        0x00005f04:    6fa0        .o      LDR      r0,[r4,#0x78]
        0x00005f06:    9003        ..      STR      r0,[sp,#0xc]
        0x00005f08:    f000fe44    ..D.    BL       __aeabi_fmul ; 0x6b94
        0x00005f0c:    9905        ..      LDR      r1,[sp,#0x14]
        0x00005f0e:    f000fed1    ....    BL       __aeabi_fsub ; 0x6cb4
        0x00005f12:    9007        ..      STR      r0,[sp,#0x1c]
        0x00005f14:    9900        ..      LDR      r1,[sp,#0]
        0x00005f16:    9801        ..      LDR      r0,[sp,#4]
        0x00005f18:    f000fe3c    ..<.    BL       __aeabi_fmul ; 0x6b94
        0x00005f1c:    9001        ..      STR      r0,[sp,#4]
        0x00005f1e:    9903        ..      LDR      r1,[sp,#0xc]
        0x00005f20:    9804        ..      LDR      r0,[sp,#0x10]
        0x00005f22:    f000fe37    ..7.    BL       __aeabi_fmul ; 0x6b94
        0x00005f26:    9901        ..      LDR      r1,[sp,#4]
        0x00005f28:    f000fdc4    ....    BL       __aeabi_fadd ; 0x6ab4
        0x00005f2c:    9900        ..      LDR      r1,[sp,#0]
        0x00005f2e:    9001        ..      STR      r0,[sp,#4]
        0x00005f30:    4608        .F      MOV      r0,r1
        0x00005f32:    f000fe2f    ../.    BL       __aeabi_fmul ; 0x6b94
        0x00005f36:    9904        ..      LDR      r1,[sp,#0x10]
        0x00005f38:    9000        ..      STR      r0,[sp,#0]
        0x00005f3a:    4608        .F      MOV      r0,r1
        0x00005f3c:    f000fe2a    ..*.    BL       __aeabi_fmul ; 0x6b94
        0x00005f40:    213f        ?!      MOVS     r1,#0x3f
        0x00005f42:    0609        ..      LSLS     r1,r1,#24
        0x00005f44:    f000feb6    ....    BL       __aeabi_fsub ; 0x6cb4
        0x00005f48:    9900        ..      LDR      r1,[sp,#0]
        0x00005f4a:    f000fdb3    ....    BL       __aeabi_fadd ; 0x6ab4
        0x00005f4e:    900b        ..      STR      r0,[sp,#0x2c]
        0x00005f50:    9901        ..      LDR      r1,[sp,#4]
        0x00005f52:    9806        ..      LDR      r0,[sp,#0x18]
        0x00005f54:    f000fe1e    ....    BL       __aeabi_fmul ; 0x6b94
        0x00005f58:    9000        ..      STR      r0,[sp,#0]
        0x00005f5a:    990b        ..      LDR      r1,[sp,#0x2c]
        0x00005f5c:    9808        ..      LDR      r0,[sp,#0x20]
        0x00005f5e:    f000fe19    ....    BL       __aeabi_fmul ; 0x6b94
        0x00005f62:    9900        ..      LDR      r1,[sp,#0]
        0x00005f64:    f000fea6    ....    BL       __aeabi_fsub ; 0x6cb4
        0x00005f68:    9004        ..      STR      r0,[sp,#0x10]
        0x00005f6a:    990b        ..      LDR      r1,[sp,#0x2c]
        0x00005f6c:    9802        ..      LDR      r0,[sp,#8]
        0x00005f6e:    f000fe11    ....    BL       __aeabi_fmul ; 0x6b94
        0x00005f72:    9000        ..      STR      r0,[sp,#0]
        0x00005f74:    9907        ..      LDR      r1,[sp,#0x1c]
        0x00005f76:    9806        ..      LDR      r0,[sp,#0x18]
        0x00005f78:    f000fe0c    ....    BL       __aeabi_fmul ; 0x6b94
        0x00005f7c:    9900        ..      LDR      r1,[sp,#0]
        0x00005f7e:    e000        ..      B        0x5f82 ; sensfusion6UpdateQ + 386
        0x00005f80:    e065        e.      B        0x604e ; sensfusion6UpdateQ + 590
        0x00005f82:    f000fe97    ....    BL       __aeabi_fsub ; 0x6cb4
        0x00005f86:    9000        ..      STR      r0,[sp,#0]
        0x00005f88:    9907        ..      LDR      r1,[sp,#0x1c]
        0x00005f8a:    9808        ..      LDR      r0,[sp,#0x20]
        0x00005f8c:    f000fe02    ....    BL       __aeabi_fmul ; 0x6b94
        0x00005f90:    9003        ..      STR      r0,[sp,#0xc]
        0x00005f92:    9901        ..      LDR      r1,[sp,#4]
        0x00005f94:    9802        ..      LDR      r0,[sp,#8]
        0x00005f96:    f000fdfd    ....    BL       __aeabi_fmul ; 0x6b94
        0x00005f9a:    9903        ..      LDR      r1,[sp,#0xc]
        0x00005f9c:    f000fe8a    ....    BL       __aeabi_fsub ; 0x6cb4
        0x00005fa0:    9002        ..      STR      r0,[sp,#8]
        0x00005fa2:    6860        `h      LDR      r0,[r4,#4]
        0x00005fa4:    2101        .!      MOVS     r1,#1
        0x00005fa6:    05c9        ..      LSLS     r1,r1,#23
        0x00005fa8:    9001        ..      STR      r0,[sp,#4]
        0x00005faa:    4288        .B      CMP      r0,r1
        0x00005fac:    db32        2.      BLT      0x6014 ; sensfusion6UpdateQ + 532
        0x00005fae:    9904        ..      LDR      r1,[sp,#0x10]
        0x00005fb0:    f000fdf0    ....    BL       __aeabi_fmul ; 0x6b94
        0x00005fb4:    991e        ..      LDR      r1,[sp,#0x78]
        0x00005fb6:    f000fded    ....    BL       __aeabi_fmul ; 0x6b94
        0x00005fba:    68a1        .h      LDR      r1,[r4,#8]
        0x00005fbc:    f000fd7a    ..z.    BL       __aeabi_fadd ; 0x6ab4
        0x00005fc0:    60a0        .`      STR      r0,[r4,#8]
        0x00005fc2:    9005        ..      STR      r0,[sp,#0x14]
        0x00005fc4:    9900        ..      LDR      r1,[sp,#0]
        0x00005fc6:    9801        ..      LDR      r0,[sp,#4]
        0x00005fc8:    f000fde4    ....    BL       __aeabi_fmul ; 0x6b94
        0x00005fcc:    991e        ..      LDR      r1,[sp,#0x78]
        0x00005fce:    f000fde1    ....    BL       __aeabi_fmul ; 0x6b94
        0x00005fd2:    68e1        .h      LDR      r1,[r4,#0xc]
        0x00005fd4:    f000fd6e    ..n.    BL       __aeabi_fadd ; 0x6ab4
        0x00005fd8:    60e0        .`      STR      r0,[r4,#0xc]
        0x00005fda:    9003        ..      STR      r0,[sp,#0xc]
        0x00005fdc:    9902        ..      LDR      r1,[sp,#8]
        0x00005fde:    9801        ..      LDR      r0,[sp,#4]
        0x00005fe0:    f000fdd8    ....    BL       __aeabi_fmul ; 0x6b94
        0x00005fe4:    991e        ..      LDR      r1,[sp,#0x78]
        0x00005fe6:    f000fdd5    ....    BL       __aeabi_fmul ; 0x6b94
        0x00005fea:    6921        !i      LDR      r1,[r4,#0x10]
        0x00005fec:    f000fd62    ..b.    BL       __aeabi_fadd ; 0x6ab4
        0x00005ff0:    6120         a      STR      r0,[r4,#0x10]
        0x00005ff2:    9001        ..      STR      r0,[sp,#4]
        0x00005ff4:    9905        ..      LDR      r1,[sp,#0x14]
        0x00005ff6:    6960        `i      LDR      r0,[r4,#0x14]
        0x00005ff8:    f000fd5c    ..\.    BL       __aeabi_fadd ; 0x6ab4
        0x00005ffc:    6160        `a      STR      r0,[r4,#0x14]
        0x00005ffe:    9903        ..      LDR      r1,[sp,#0xc]
        0x00006000:    69a0        .i      LDR      r0,[r4,#0x18]
        0x00006002:    f000fd57    ..W.    BL       __aeabi_fadd ; 0x6ab4
        0x00006006:    61a0        .a      STR      r0,[r4,#0x18]
        0x00006008:    9901        ..      LDR      r1,[sp,#4]
        0x0000600a:    69e0        .i      LDR      r0,[r4,#0x1c]
        0x0000600c:    f000fd52    ..R.    BL       __aeabi_fadd ; 0x6ab4
        0x00006010:    61e0        .a      STR      r0,[r4,#0x1c]
        0x00006012:    e003        ..      B        0x601c ; sensfusion6UpdateQ + 540
        0x00006014:    2000        .       MOVS     r0,#0
        0x00006016:    60a0        .`      STR      r0,[r4,#8]
        0x00006018:    60e0        .`      STR      r0,[r4,#0xc]
        0x0000601a:    6120         a      STR      r0,[r4,#0x10]
        0x0000601c:    6820         h      LDR      r0,[r4,#0]
        0x0000601e:    9904        ..      LDR      r1,[sp,#0x10]
        0x00006020:    9007        ..      STR      r0,[sp,#0x1c]
        0x00006022:    f000fdb7    ....    BL       __aeabi_fmul ; 0x6b94
        0x00006026:    6961        ai      LDR      r1,[r4,#0x14]
        0x00006028:    f000fd44    ..D.    BL       __aeabi_fadd ; 0x6ab4
        0x0000602c:    6160        `a      STR      r0,[r4,#0x14]
        0x0000602e:    9900        ..      LDR      r1,[sp,#0]
        0x00006030:    9807        ..      LDR      r0,[sp,#0x1c]
        0x00006032:    f000fdaf    ....    BL       __aeabi_fmul ; 0x6b94
        0x00006036:    69a1        .i      LDR      r1,[r4,#0x18]
        0x00006038:    f000fd3c    ..<.    BL       __aeabi_fadd ; 0x6ab4
        0x0000603c:    61a0        .a      STR      r0,[r4,#0x18]
        0x0000603e:    9902        ..      LDR      r1,[sp,#8]
        0x00006040:    9807        ..      LDR      r0,[sp,#0x1c]
        0x00006042:    f000fda7    ....    BL       __aeabi_fmul ; 0x6b94
        0x00006046:    69e1        .i      LDR      r1,[r4,#0x1c]
        0x00006048:    f000fd34    ..4.    BL       __aeabi_fadd ; 0x6ab4
        0x0000604c:    61e0        .a      STR      r0,[r4,#0x1c]
        0x0000604e:    213f        ?!      MOVS     r1,#0x3f
        0x00006050:    0609        ..      LSLS     r1,r1,#24
        0x00006052:    4630        0F      MOV      r0,r6
        0x00006054:    f000fd2e    ....    BL       __aeabi_fadd ; 0x6ab4
        0x00006058:    991e        ..      LDR      r1,[sp,#0x78]
        0x0000605a:    f000fd9b    ....    BL       __aeabi_fmul ; 0x6b94
        0x0000605e:    4606        .F      MOV      r6,r0
        0x00006060:    6961        ai      LDR      r1,[r4,#0x14]
        0x00006062:    f000fd97    ....    BL       __aeabi_fmul ; 0x6b94
        0x00006066:    6160        `a      STR      r0,[r4,#0x14]
        0x00006068:    9000        ..      STR      r0,[sp,#0]
        0x0000606a:    4630        0F      MOV      r0,r6
        0x0000606c:    69a1        .i      LDR      r1,[r4,#0x18]
        0x0000606e:    f000fd91    ....    BL       __aeabi_fmul ; 0x6b94
        0x00006072:    61a0        .a      STR      r0,[r4,#0x18]
        0x00006074:    9002        ..      STR      r0,[sp,#8]
        0x00006076:    4630        0F      MOV      r0,r6
        0x00006078:    69e1        .i      LDR      r1,[r4,#0x1c]
        0x0000607a:    f000fd8b    ....    BL       __aeabi_fmul ; 0x6b94
        0x0000607e:    61e0        .a      STR      r0,[r4,#0x1c]
        0x00006080:    900c        ..      STR      r0,[sp,#0x30]
        0x00006082:    6f60        `o      LDR      r0,[r4,#0x74]
        0x00006084:    9012        ..      STR      r0,[sp,#0x48]
        0x00006086:    9003        ..      STR      r0,[sp,#0xc]
        0x00006088:    6fa6        .o      LDR      r6,[r4,#0x78]
        0x0000608a:    6fe0        .o      LDR      r0,[r4,#0x7c]
        0x0000608c:    9010        ..      STR      r0,[sp,#0x40]
        0x0000608e:    9001        ..      STR      r0,[sp,#4]
        0x00006090:    6828        (h      LDR      r0,[r5,#0]
        0x00006092:    990c        ..      LDR      r1,[sp,#0x30]
        0x00006094:    9005        ..      STR      r0,[sp,#0x14]
        0x00006096:    f000fd7d    ..}.    BL       __aeabi_fmul ; 0x6b94
        0x0000609a:    9006        ..      STR      r0,[sp,#0x18]
        0x0000609c:    9902        ..      LDR      r1,[sp,#8]
        0x0000609e:    9801        ..      LDR      r0,[sp,#4]
        0x000060a0:    f000fd78    ..x.    BL       __aeabi_fmul ; 0x6b94
        0x000060a4:    9004        ..      STR      r0,[sp,#0x10]
        0x000060a6:    2001        .       MOVS     r0,#1
        0x000060a8:    07c0        ..      LSLS     r0,r0,#31
        0x000060aa:    4070        p@      EORS     r0,r0,r6
        0x000060ac:    9900        ..      LDR      r1,[sp,#0]
        0x000060ae:    f000fd71    ..q.    BL       __aeabi_fmul ; 0x6b94
        0x000060b2:    9904        ..      LDR      r1,[sp,#0x10]
        0x000060b4:    f000fdfe    ....    BL       __aeabi_fsub ; 0x6cb4
        0x000060b8:    9906        ..      LDR      r1,[sp,#0x18]
        0x000060ba:    f000fdfb    ....    BL       __aeabi_fsub ; 0x6cb4
        0x000060be:    9912        ..      LDR      r1,[sp,#0x48]
        0x000060c0:    f000fcf8    ....    BL       __aeabi_fadd ; 0x6ab4
        0x000060c4:    6760        `g      STR      r0,[r4,#0x74]
        0x000060c6:    9006        ..      STR      r0,[sp,#0x18]
        0x000060c8:    9902        ..      LDR      r1,[sp,#8]
        0x000060ca:    9805        ..      LDR      r0,[sp,#0x14]
        0x000060cc:    f000fd62    ..b.    BL       __aeabi_fmul ; 0x6b94
        0x000060d0:    9007        ..      STR      r0,[sp,#0x1c]
        0x000060d2:    990c        ..      LDR      r1,[sp,#0x30]
        0x000060d4:    9801        ..      LDR      r0,[sp,#4]
        0x000060d6:    f000fd5d    ..].    BL       __aeabi_fmul ; 0x6b94
        0x000060da:    9004        ..      STR      r0,[sp,#0x10]
        0x000060dc:    9900        ..      LDR      r1,[sp,#0]
        0x000060de:    9803        ..      LDR      r0,[sp,#0xc]
        0x000060e0:    f000fd58    ..X.    BL       __aeabi_fmul ; 0x6b94
        0x000060e4:    9904        ..      LDR      r1,[sp,#0x10]
        0x000060e6:    f000fce5    ....    BL       __aeabi_fadd ; 0x6ab4
        0x000060ea:    9907        ..      LDR      r1,[sp,#0x1c]
        0x000060ec:    f000fde2    ....    BL       __aeabi_fsub ; 0x6cb4
        0x000060f0:    4631        1F      MOV      r1,r6
        0x000060f2:    f000fcdf    ....    BL       __aeabi_fadd ; 0x6ab4
        0x000060f6:    67a0        .g      STR      r0,[r4,#0x78]
        0x000060f8:    9004        ..      STR      r0,[sp,#0x10]
        0x000060fa:    9900        ..      LDR      r1,[sp,#0]
        0x000060fc:    9805        ..      LDR      r0,[sp,#0x14]
        0x000060fe:    f000fd49    ..I.    BL       __aeabi_fmul ; 0x6b94
        0x00006102:    9008        ..      STR      r0,[sp,#0x20]
        0x00006104:    4630        0F      MOV      r0,r6
        0x00006106:    990c        ..      LDR      r1,[sp,#0x30]
        0x00006108:    f000fd44    ..D.    BL       __aeabi_fmul ; 0x6b94
        0x0000610c:    9007        ..      STR      r0,[sp,#0x1c]
        0x0000610e:    9902        ..      LDR      r1,[sp,#8]
        0x00006110:    9803        ..      LDR      r0,[sp,#0xc]
        0x00006112:    f000fd3f    ..?.    BL       __aeabi_fmul ; 0x6b94
        0x00006116:    9907        ..      LDR      r1,[sp,#0x1c]
        0x00006118:    f000fdcc    ....    BL       __aeabi_fsub ; 0x6cb4
        0x0000611c:    9908        ..      LDR      r1,[sp,#0x20]
        0x0000611e:    f000fcc9    ....    BL       __aeabi_fadd ; 0x6ab4
        0x00006122:    9910        ..      LDR      r1,[sp,#0x40]
        0x00006124:    f000fcc6    ....    BL       __aeabi_fadd ; 0x6ab4
        0x00006128:    67e0        .g      STR      r0,[r4,#0x7c]
        0x0000612a:    9007        ..      STR      r0,[sp,#0x1c]
        0x0000612c:    9900        ..      LDR      r1,[sp,#0]
        0x0000612e:    9801        ..      LDR      r0,[sp,#4]
        0x00006130:    f000fd30    ..0.    BL       __aeabi_fmul ; 0x6b94
        0x00006134:    9000        ..      STR      r0,[sp,#0]
        0x00006136:    4630        0F      MOV      r0,r6
        0x00006138:    9902        ..      LDR      r1,[sp,#8]
        0x0000613a:    f000fd2b    ..+.    BL       __aeabi_fmul ; 0x6b94
        0x0000613e:    4606        .F      MOV      r6,r0
        0x00006140:    990c        ..      LDR      r1,[sp,#0x30]
        0x00006142:    9803        ..      LDR      r0,[sp,#0xc]
        0x00006144:    f000fd26    ..&.    BL       __aeabi_fmul ; 0x6b94
        0x00006148:    4631        1F      MOV      r1,r6
        0x0000614a:    f000fcb3    ....    BL       __aeabi_fadd ; 0x6ab4
        0x0000614e:    9900        ..      LDR      r1,[sp,#0]
        0x00006150:    f000fdb0    ....    BL       __aeabi_fsub ; 0x6cb4
        0x00006154:    9905        ..      LDR      r1,[sp,#0x14]
        0x00006156:    f000fcad    ....    BL       __aeabi_fadd ; 0x6ab4
        0x0000615a:    4601        .F      MOV      r1,r0
        0x0000615c:    6028        (`      STR      r0,[r5,#0]
        0x0000615e:    f000fd19    ....    BL       __aeabi_fmul ; 0x6b94
        0x00006162:    9907        ..      LDR      r1,[sp,#0x1c]
        0x00006164:    9000        ..      STR      r0,[sp,#0]
        0x00006166:    4608        .F      MOV      r0,r1
        0x00006168:    f000fd14    ....    BL       __aeabi_fmul ; 0x6b94
        0x0000616c:    9904        ..      LDR      r1,[sp,#0x10]
        0x0000616e:    9001        ..      STR      r0,[sp,#4]
        0x00006170:    4608        .F      MOV      r0,r1
        0x00006172:    f000fd0f    ....    BL       __aeabi_fmul ; 0x6b94
        0x00006176:    9906        ..      LDR      r1,[sp,#0x18]
        0x00006178:    4606        .F      MOV      r6,r0
        0x0000617a:    4608        .F      MOV      r0,r1
        0x0000617c:    f000fd0a    ....    BL       __aeabi_fmul ; 0x6b94
        0x00006180:    4631        1F      MOV      r1,r6
        0x00006182:    f000fc97    ....    BL       __aeabi_fadd ; 0x6ab4
        0x00006186:    9901        ..      LDR      r1,[sp,#4]
        0x00006188:    f000fc94    ....    BL       __aeabi_fadd ; 0x6ab4
        0x0000618c:    9900        ..      LDR      r1,[sp,#0]
        0x0000618e:    f000fc91    ....    BL       __aeabi_fadd ; 0x6ab4
        0x00006192:    f7feffe9    ....    BL       invSqrt ; 0x5168
        0x00006196:    4606        .F      MOV      r6,r0
        0x00006198:    4601        .F      MOV      r1,r0
        0x0000619a:    6f60        `o      LDR      r0,[r4,#0x74]
        0x0000619c:    f000fcfa    ....    BL       __aeabi_fmul ; 0x6b94
        0x000061a0:    6760        `g      STR      r0,[r4,#0x74]
        0x000061a2:    4631        1F      MOV      r1,r6
        0x000061a4:    6fa0        .o      LDR      r0,[r4,#0x78]
        0x000061a6:    f000fcf5    ....    BL       __aeabi_fmul ; 0x6b94
        0x000061aa:    67a0        .g      STR      r0,[r4,#0x78]
        0x000061ac:    4631        1F      MOV      r1,r6
        0x000061ae:    6fe0        .o      LDR      r0,[r4,#0x7c]
        0x000061b0:    f000fcf0    ....    BL       __aeabi_fmul ; 0x6b94
        0x000061b4:    67e0        .g      STR      r0,[r4,#0x7c]
        0x000061b6:    4631        1F      MOV      r1,r6
        0x000061b8:    6828        (h      LDR      r0,[r5,#0]
        0x000061ba:    f000fceb    ....    BL       __aeabi_fmul ; 0x6b94
        0x000061be:    6028        (`      STR      r0,[r5,#0]
        0x000061c0:    f7fcf8a4    ....    BL       ComputeEuler ; 0x230c
        0x000061c4:    981e        ..      LDR      r0,[sp,#0x78]
        0x000061c6:    9000        ..      STR      r0,[sp,#0]
        0x000061c8:    4633        3F      MOV      r3,r6
        0x000061ca:    463a        :F      MOV      r2,r7
        0x000061cc:    991c        ..      LDR      r1,[sp,#0x70]
        0x000061ce:    9816        ..      LDR      r0,[sp,#0x58]
        0x000061d0:    f7fcf99c    ....    BL       ComputeMotion ; 0x250c
        0x000061d4:    b017        ..      ADD      sp,sp,#0x5c
        0x000061d6:    bdf0        ..      POP      {r4-r7,pc}
    $d
        0x000061d8:    40490fdb    ..I@    DCD    1078530011
        0x000061dc:    43340000    ..4C    DCD    1127481344
        0x000061e0:    200006fc    ...     DCD    536872700
        0x000061e4:    2000077c    |..     DCD    536872828
    $t
    i.sensfusion9UpdateQ
    sensfusion9UpdateQ
        0x000061e8:    b5ff        ..      PUSH     {r0-r7,lr}
        0x000061ea:    b097        ..      SUB      sp,sp,#0x5c
        0x000061ec:    2000        .       MOVS     r0,#0
        0x000061ee:    9d21        !.      LDR      r5,[sp,#0x84]
        0x000061f0:    9012        ..      STR      r0,[sp,#0x48]
        0x000061f2:    9f25        %.      LDR      r7,[sp,#0x94]
        0x000061f4:    9e20         .      LDR      r6,[sp,#0x80]
        0x000061f6:    9a24        $.      LDR      r2,[sp,#0x90]
        0x000061f8:    9923        #.      LDR      r1,[sp,#0x8c]
        0x000061fa:    9822        ".      LDR      r0,[sp,#0x88]
        0x000061fc:    f7fefe5c    ..\.    BL       checkMagFail ; 0x4eb8
        0x00006200:    2800        .(      CMP      r0,#0
        0x00006202:    d008        ..      BEQ      0x6216 ; sensfusion9UpdateQ + 46
        0x00006204:    ac17        ..      ADD      r4,sp,#0x5c
        0x00006206:    9702        ..      STR      r7,[sp,#8]
        0x00006208:    9600        ..      STR      r6,[sp,#0]
        0x0000620a:    9501        ..      STR      r5,[sp,#4]
        0x0000620c:    cc0f        ..      LDM      r4!,{r0-r3}
        0x0000620e:    f7fffdf7    ....    BL       sensfusion6UpdateQ ; 0x5e00
        0x00006212:    b01b        ..      ADD      sp,sp,#0x6c
        0x00006214:    bdf0        ..      POP      {r4-r7,pc}
        0x00006216:    9817        ..      LDR      r0,[sp,#0x5c]
        0x00006218:    0040        @.      LSLS     r0,r0,#1
        0x0000621a:    0e00        ..      LSRS     r0,r0,#24
        0x0000621c:    d10a        ..      BNE      0x6234 ; sensfusion9UpdateQ + 76
        0x0000621e:    9818        ..      LDR      r0,[sp,#0x60]
        0x00006220:    0040        @.      LSLS     r0,r0,#1
        0x00006222:    0e00        ..      LSRS     r0,r0,#24
        0x00006224:    d106        ..      BNE      0x6234 ; sensfusion9UpdateQ + 76
        0x00006226:    9819        ..      LDR      r0,[sp,#0x64]
        0x00006228:    0040        @.      LSLS     r0,r0,#1
        0x0000622a:    0e00        ..      LSRS     r0,r0,#24
        0x0000622c:    d102        ..      BNE      0x6234 ; sensfusion9UpdateQ + 76
        0x0000622e:    2041        A       MOVS     r0,#0x41
        0x00006230:    0600        ..      LSLS     r0,r0,#24
        0x00006232:    9012        ..      STR      r0,[sp,#0x48]
        0x00006234:    49fe        .I      LDR      r1,[pc,#1016] ; [0x6630] = 0x40490fdb
        0x00006236:    9817        ..      LDR      r0,[sp,#0x5c]
        0x00006238:    f000fcac    ....    BL       __aeabi_fmul ; 0x6b94
        0x0000623c:    49fd        .I      LDR      r1,[pc,#1012] ; [0x6634] = 0x43340000
        0x0000623e:    f7fbf80f    ....    BL       __aeabi_fdiv ; 0x1260
        0x00006242:    4cfd        .L      LDR      r4,[pc,#1012] ; [0x6638] = 0x200006fc
        0x00006244:    49fa        .I      LDR      r1,[pc,#1000] ; [0x6630] = 0x40490fdb
        0x00006246:    6160        `a      STR      r0,[r4,#0x14]
        0x00006248:    9818        ..      LDR      r0,[sp,#0x60]
        0x0000624a:    f000fca3    ....    BL       __aeabi_fmul ; 0x6b94
        0x0000624e:    49f9        .I      LDR      r1,[pc,#996] ; [0x6634] = 0x43340000
        0x00006250:    f7fbf806    ....    BL       __aeabi_fdiv ; 0x1260
        0x00006254:    61a0        .a      STR      r0,[r4,#0x18]
        0x00006256:    49f6        .I      LDR      r1,[pc,#984] ; [0x6630] = 0x40490fdb
        0x00006258:    9819        ..      LDR      r0,[sp,#0x64]
        0x0000625a:    f000fc9b    ....    BL       __aeabi_fmul ; 0x6b94
        0x0000625e:    49f5        .I      LDR      r1,[pc,#980] ; [0x6634] = 0x43340000
        0x00006260:    f7fafffe    ....    BL       __aeabi_fdiv ; 0x1260
        0x00006264:    61e0        .a      STR      r0,[r4,#0x1c]
        0x00006266:    4639        9F      MOV      r1,r7
        0x00006268:    9817        ..      LDR      r0,[sp,#0x5c]
        0x0000626a:    f000fc93    ....    BL       __aeabi_fmul ; 0x6b94
        0x0000626e:    6ae1        .j      LDR      r1,[r4,#0x2c]
        0x00006270:    f000fc20    .. .    BL       __aeabi_fadd ; 0x6ab4
        0x00006274:    62e0        .b      STR      r0,[r4,#0x2c]
        0x00006276:    4639        9F      MOV      r1,r7
        0x00006278:    9818        ..      LDR      r0,[sp,#0x60]
        0x0000627a:    f000fc8b    ....    BL       __aeabi_fmul ; 0x6b94
        0x0000627e:    6b21        !k      LDR      r1,[r4,#0x30]
        0x00006280:    f000fc18    ....    BL       __aeabi_fadd ; 0x6ab4
        0x00006284:    6320         c      STR      r0,[r4,#0x30]
        0x00006286:    4639        9F      MOV      r1,r7
        0x00006288:    9819        ..      LDR      r0,[sp,#0x64]
        0x0000628a:    f000fc83    ....    BL       __aeabi_fmul ; 0x6b94
        0x0000628e:    6b61        ak      LDR      r1,[r4,#0x34]
        0x00006290:    f000fc10    ....    BL       __aeabi_fadd ; 0x6ab4
        0x00006294:    6360        `c      STR      r0,[r4,#0x34]
        0x00006296:    981a        ..      LDR      r0,[sp,#0x68]
        0x00006298:    0040        @.      LSLS     r0,r0,#1
        0x0000629a:    0e00        ..      LSRS     r0,r0,#24
        0x0000629c:    d105        ..      BNE      0x62aa ; sensfusion9UpdateQ + 194
        0x0000629e:    0070        p.      LSLS     r0,r6,#1
        0x000062a0:    0e00        ..      LSRS     r0,r0,#24
        0x000062a2:    d102        ..      BNE      0x62aa ; sensfusion9UpdateQ + 194
        0x000062a4:    0068        h.      LSLS     r0,r5,#1
        0x000062a6:    0e00        ..      LSRS     r0,r0,#24
        0x000062a8:    d07e        ~.      BEQ      0x63a8 ; sensfusion9UpdateQ + 448
        0x000062aa:    4629        )F      MOV      r1,r5
        0x000062ac:    4608        .F      MOV      r0,r1
        0x000062ae:    f000fc71    ..q.    BL       __aeabi_fmul ; 0x6b94
        0x000062b2:    4631        1F      MOV      r1,r6
        0x000062b4:    9001        ..      STR      r0,[sp,#4]
        0x000062b6:    4608        .F      MOV      r0,r1
        0x000062b8:    f000fc6c    ..l.    BL       __aeabi_fmul ; 0x6b94
        0x000062bc:    991a        ..      LDR      r1,[sp,#0x68]
        0x000062be:    9000        ..      STR      r0,[sp,#0]
        0x000062c0:    4608        .F      MOV      r0,r1
        0x000062c2:    f000fc67    ..g.    BL       __aeabi_fmul ; 0x6b94
        0x000062c6:    9900        ..      LDR      r1,[sp,#0]
        0x000062c8:    f000fbf4    ....    BL       __aeabi_fadd ; 0x6ab4
        0x000062cc:    9901        ..      LDR      r1,[sp,#4]
        0x000062ce:    f000fbf1    ....    BL       __aeabi_fadd ; 0x6ab4
        0x000062d2:    f7feff49    ..I.    BL       invSqrt ; 0x5168
        0x000062d6:    4601        .F      MOV      r1,r0
        0x000062d8:    9001        ..      STR      r0,[sp,#4]
        0x000062da:    981a        ..      LDR      r0,[sp,#0x68]
        0x000062dc:    f000fc5a    ..Z.    BL       __aeabi_fmul ; 0x6b94
        0x000062e0:    63a0        .c      STR      r0,[r4,#0x38]
        0x000062e2:    4630        0F      MOV      r0,r6
        0x000062e4:    9901        ..      LDR      r1,[sp,#4]
        0x000062e6:    f000fc55    ..U.    BL       __aeabi_fmul ; 0x6b94
        0x000062ea:    63e0        .c      STR      r0,[r4,#0x3c]
        0x000062ec:    4628        (F      MOV      r0,r5
        0x000062ee:    9901        ..      LDR      r1,[sp,#4]
        0x000062f0:    f000fc50    ..P.    BL       __aeabi_fmul ; 0x6b94
        0x000062f4:    6420         d      STR      r0,[r4,#0x40]
        0x000062f6:    9924        $.      LDR      r1,[sp,#0x90]
        0x000062f8:    4608        .F      MOV      r0,r1
        0x000062fa:    f000fc4b    ..K.    BL       __aeabi_fmul ; 0x6b94
        0x000062fe:    9923        #.      LDR      r1,[sp,#0x8c]
        0x00006300:    9001        ..      STR      r0,[sp,#4]
        0x00006302:    4608        .F      MOV      r0,r1
        0x00006304:    f000fc46    ..F.    BL       __aeabi_fmul ; 0x6b94
        0x00006308:    9922        ".      LDR      r1,[sp,#0x88]
        0x0000630a:    9000        ..      STR      r0,[sp,#0]
        0x0000630c:    4608        .F      MOV      r0,r1
        0x0000630e:    f000fc41    ..A.    BL       __aeabi_fmul ; 0x6b94
        0x00006312:    9900        ..      LDR      r1,[sp,#0]
        0x00006314:    f000fbce    ....    BL       __aeabi_fadd ; 0x6ab4
        0x00006318:    9901        ..      LDR      r1,[sp,#4]
        0x0000631a:    f000fbcb    ....    BL       __aeabi_fadd ; 0x6ab4
        0x0000631e:    f7feff23    ..#.    BL       invSqrt ; 0x5168
        0x00006322:    4601        .F      MOV      r1,r0
        0x00006324:    9001        ..      STR      r0,[sp,#4]
        0x00006326:    9822        ".      LDR      r0,[sp,#0x88]
        0x00006328:    f000fc34    ..4.    BL       __aeabi_fmul ; 0x6b94
        0x0000632c:    49c3        .I      LDR      r1,[pc,#780] ; [0x663c] = 0x20001a34
        0x0000632e:    6008        .`      STR      r0,[r1,#0]
        0x00006330:    65e0        .e      STR      r0,[r4,#0x5c]
        0x00006332:    900d        ..      STR      r0,[sp,#0x34]
        0x00006334:    9901        ..      LDR      r1,[sp,#4]
        0x00006336:    9823        #.      LDR      r0,[sp,#0x8c]
        0x00006338:    f000fc2c    ..,.    BL       __aeabi_fmul ; 0x6b94
        0x0000633c:    49bf        .I      LDR      r1,[pc,#764] ; [0x663c] = 0x20001a34
        0x0000633e:    6048        H`      STR      r0,[r1,#4]
        0x00006340:    6620         f      STR      r0,[r4,#0x60]
        0x00006342:    9005        ..      STR      r0,[sp,#0x14]
        0x00006344:    9901        ..      LDR      r1,[sp,#4]
        0x00006346:    9824        $.      LDR      r0,[sp,#0x90]
        0x00006348:    f000fc24    ..$.    BL       __aeabi_fmul ; 0x6b94
        0x0000634c:    49bb        .I      LDR      r1,[pc,#748] ; [0x663c] = 0x20001a34
        0x0000634e:    6088        .`      STR      r0,[r1,#8]
        0x00006350:    6660        `f      STR      r0,[r4,#0x64]
        0x00006352:    900e        ..      STR      r0,[sp,#0x38]
        0x00006354:    6f61        ao      LDR      r1,[r4,#0x74]
        0x00006356:    9102        ..      STR      r1,[sp,#8]
        0x00006358:    4608        .F      MOV      r0,r1
        0x0000635a:    f000fc1b    ....    BL       __aeabi_fmul ; 0x6b94
        0x0000635e:    9010        ..      STR      r0,[sp,#0x40]
        0x00006360:    6fa1        .o      LDR      r1,[r4,#0x78]
        0x00006362:    9103        ..      STR      r1,[sp,#0xc]
        0x00006364:    9802        ..      LDR      r0,[sp,#8]
        0x00006366:    f000fc15    ....    BL       __aeabi_fmul ; 0x6b94
        0x0000636a:    9006        ..      STR      r0,[sp,#0x18]
        0x0000636c:    6fe1        .o      LDR      r1,[r4,#0x7c]
        0x0000636e:    9101        ..      STR      r1,[sp,#4]
        0x00006370:    9802        ..      LDR      r0,[sp,#8]
        0x00006372:    f000fc0f    ....    BL       __aeabi_fmul ; 0x6b94
        0x00006376:    9008        ..      STR      r0,[sp,#0x20]
        0x00006378:    48b1        .H      LDR      r0,[pc,#708] ; [0x6640] = 0x2000077c
        0x0000637a:    6801        .h      LDR      r1,[r0,#0]
        0x0000637c:    9100        ..      STR      r1,[sp,#0]
        0x0000637e:    9802        ..      LDR      r0,[sp,#8]
        0x00006380:    f000fc08    ....    BL       __aeabi_fmul ; 0x6b94
        0x00006384:    9903        ..      LDR      r1,[sp,#0xc]
        0x00006386:    900a        ..      STR      r0,[sp,#0x28]
        0x00006388:    4608        .F      MOV      r0,r1
        0x0000638a:    f000fc03    ....    BL       __aeabi_fmul ; 0x6b94
        0x0000638e:    900f        ..      STR      r0,[sp,#0x3c]
        0x00006390:    9901        ..      LDR      r1,[sp,#4]
        0x00006392:    9803        ..      LDR      r0,[sp,#0xc]
        0x00006394:    f000fbfe    ....    BL       __aeabi_fmul ; 0x6b94
        0x00006398:    900b        ..      STR      r0,[sp,#0x2c]
        0x0000639a:    9900        ..      LDR      r1,[sp,#0]
        0x0000639c:    9803        ..      LDR      r0,[sp,#0xc]
        0x0000639e:    f000fbf9    ....    BL       __aeabi_fmul ; 0x6b94
        0x000063a2:    9009        ..      STR      r0,[sp,#0x24]
        0x000063a4:    9901        ..      LDR      r1,[sp,#4]
        0x000063a6:    e000        ..      B        0x63aa ; sensfusion9UpdateQ + 450
        0x000063a8:    e16d        m.      B        0x6686 ; sensfusion9UpdateQ + 1182
        0x000063aa:    4608        .F      MOV      r0,r1
        0x000063ac:    f000fbf2    ....    BL       __aeabi_fmul ; 0x6b94
        0x000063b0:    9002        ..      STR      r0,[sp,#8]
        0x000063b2:    9900        ..      LDR      r1,[sp,#0]
        0x000063b4:    9801        ..      LDR      r0,[sp,#4]
        0x000063b6:    f000fbed    ....    BL       __aeabi_fmul ; 0x6b94
        0x000063ba:    9900        ..      LDR      r1,[sp,#0]
        0x000063bc:    9007        ..      STR      r0,[sp,#0x1c]
        0x000063be:    4608        .F      MOV      r0,r1
        0x000063c0:    f000fbe8    ....    BL       __aeabi_fmul ; 0x6b94
        0x000063c4:    9004        ..      STR      r0,[sp,#0x10]
        0x000063c6:    9908        ..      LDR      r1,[sp,#0x20]
        0x000063c8:    9809        ..      LDR      r0,[sp,#0x24]
        0x000063ca:    f000fb73    ..s.    BL       __aeabi_fadd ; 0x6ab4
        0x000063ce:    990e        ..      LDR      r1,[sp,#0x38]
        0x000063d0:    f000fbe0    ....    BL       __aeabi_fmul ; 0x6b94
        0x000063d4:    9001        ..      STR      r0,[sp,#4]
        0x000063d6:    990a        ..      LDR      r1,[sp,#0x28]
        0x000063d8:    980b        ..      LDR      r0,[sp,#0x2c]
        0x000063da:    f000fc6b    ..k.    BL       __aeabi_fsub ; 0x6cb4
        0x000063de:    900c        ..      STR      r0,[sp,#0x30]
        0x000063e0:    9905        ..      LDR      r1,[sp,#0x14]
        0x000063e2:    f000fbd7    ....    BL       __aeabi_fmul ; 0x6b94
        0x000063e6:    9000        ..      STR      r0,[sp,#0]
        0x000063e8:    203f        ?       MOVS     r0,#0x3f
        0x000063ea:    0600        ..      LSLS     r0,r0,#24
        0x000063ec:    9902        ..      LDR      r1,[sp,#8]
        0x000063ee:    f000fc61    ..a.    BL       __aeabi_fsub ; 0x6cb4
        0x000063f2:    9904        ..      LDR      r1,[sp,#0x10]
        0x000063f4:    f000fc5e    ..^.    BL       __aeabi_fsub ; 0x6cb4
        0x000063f8:    9013        ..      STR      r0,[sp,#0x4c]
        0x000063fa:    990d        ..      LDR      r1,[sp,#0x34]
        0x000063fc:    f000fbca    ....    BL       __aeabi_fmul ; 0x6b94
        0x00006400:    9900        ..      LDR      r1,[sp,#0]
        0x00006402:    f000fb57    ..W.    BL       __aeabi_fadd ; 0x6ab4
        0x00006406:    9901        ..      LDR      r1,[sp,#4]
        0x00006408:    f000fb54    ..T.    BL       __aeabi_fadd ; 0x6ab4
        0x0000640c:    2101        .!      MOVS     r1,#1
        0x0000640e:    f7fbf845    ..E.    BL       __ARM_scalbnf ; 0x149c
        0x00006412:    9000        ..      STR      r0,[sp,#0]
        0x00006414:    9906        ..      LDR      r1,[sp,#0x18]
        0x00006416:    9807        ..      LDR      r0,[sp,#0x1c]
        0x00006418:    f000fc4c    ..L.    BL       __aeabi_fsub ; 0x6cb4
        0x0000641c:    990e        ..      LDR      r1,[sp,#0x38]
        0x0000641e:    f000fbb9    ....    BL       __aeabi_fmul ; 0x6b94
        0x00006422:    9003        ..      STR      r0,[sp,#0xc]
        0x00006424:    203f        ?       MOVS     r0,#0x3f
        0x00006426:    0600        ..      LSLS     r0,r0,#24
        0x00006428:    990f        ..      LDR      r1,[sp,#0x3c]
        0x0000642a:    f000fc43    ..C.    BL       __aeabi_fsub ; 0x6cb4
        0x0000642e:    9001        ..      STR      r0,[sp,#4]
        0x00006430:    9904        ..      LDR      r1,[sp,#0x10]
        0x00006432:    f000fc3f    ..?.    BL       __aeabi_fsub ; 0x6cb4
        0x00006436:    9905        ..      LDR      r1,[sp,#0x14]
        0x00006438:    f000fbac    ....    BL       __aeabi_fmul ; 0x6b94
        0x0000643c:    9005        ..      STR      r0,[sp,#0x14]
        0x0000643e:    990a        ..      LDR      r1,[sp,#0x28]
        0x00006440:    980b        ..      LDR      r0,[sp,#0x2c]
        0x00006442:    f000fb37    ..7.    BL       __aeabi_fadd ; 0x6ab4
        0x00006446:    990d        ..      LDR      r1,[sp,#0x34]
        0x00006448:    f000fba4    ....    BL       __aeabi_fmul ; 0x6b94
        0x0000644c:    9905        ..      LDR      r1,[sp,#0x14]
        0x0000644e:    f000fb31    ..1.    BL       __aeabi_fadd ; 0x6ab4
        0x00006452:    9903        ..      LDR      r1,[sp,#0xc]
        0x00006454:    f000fb2e    ....    BL       __aeabi_fadd ; 0x6ab4
        0x00006458:    2101        .!      MOVS     r1,#1
        0x0000645a:    f7fbf81f    ....    BL       __ARM_scalbnf ; 0x149c
        0x0000645e:    4601        .F      MOV      r1,r0
        0x00006460:    f000fb98    ....    BL       __aeabi_fmul ; 0x6b94
        0x00006464:    9900        ..      LDR      r1,[sp,#0]
        0x00006466:    9003        ..      STR      r0,[sp,#0xc]
        0x00006468:    4608        .F      MOV      r0,r1
        0x0000646a:    f000fb93    ....    BL       __aeabi_fmul ; 0x6b94
        0x0000646e:    9903        ..      LDR      r1,[sp,#0xc]
        0x00006470:    f000fb20    .. .    BL       __aeabi_fadd ; 0x6ab4
        0x00006474:    f7fafeca    ....    BL       __aeabi_f2d ; 0x120c
        0x00006478:    f000fa50    ..P.    BL       sqrt ; 0x691c
        0x0000647c:    f7faf926    ..&.    BL       __aeabi_d2f ; 0x6cc
        0x00006480:    900d        ..      STR      r0,[sp,#0x34]
        0x00006482:    9902        ..      LDR      r1,[sp,#8]
        0x00006484:    9801        ..      LDR      r0,[sp,#4]
        0x00006486:    f000fc15    ....    BL       __aeabi_fsub ; 0x6cb4
        0x0000648a:    6e61        an      LDR      r1,[r4,#0x64]
        0x0000648c:    f000fb82    ....    BL       __aeabi_fmul ; 0x6b94
        0x00006490:    9001        ..      STR      r0,[sp,#4]
        0x00006492:    9906        ..      LDR      r1,[sp,#0x18]
        0x00006494:    9807        ..      LDR      r0,[sp,#0x1c]
        0x00006496:    f000fb0d    ....    BL       __aeabi_fadd ; 0x6ab4
        0x0000649a:    9000        ..      STR      r0,[sp,#0]
        0x0000649c:    6e21        !n      LDR      r1,[r4,#0x60]
        0x0000649e:    910f        ..      STR      r1,[sp,#0x3c]
        0x000064a0:    f000fb78    ..x.    BL       __aeabi_fmul ; 0x6b94
        0x000064a4:    9003        ..      STR      r0,[sp,#0xc]
        0x000064a6:    9908        ..      LDR      r1,[sp,#0x20]
        0x000064a8:    9809        ..      LDR      r0,[sp,#0x24]
        0x000064aa:    f000fc03    ....    BL       __aeabi_fsub ; 0x6cb4
        0x000064ae:    9002        ..      STR      r0,[sp,#8]
        0x000064b0:    6de1        .m      LDR      r1,[r4,#0x5c]
        0x000064b2:    9111        ..      STR      r1,[sp,#0x44]
        0x000064b4:    f000fb6e    ..n.    BL       __aeabi_fmul ; 0x6b94
        0x000064b8:    9903        ..      LDR      r1,[sp,#0xc]
        0x000064ba:    f000fafb    ....    BL       __aeabi_fadd ; 0x6ab4
        0x000064be:    9901        ..      LDR      r1,[sp,#4]
        0x000064c0:    f000faf8    ....    BL       __aeabi_fadd ; 0x6ab4
        0x000064c4:    2101        .!      MOVS     r1,#1
        0x000064c6:    f7faffe9    ....    BL       __ARM_scalbnf ; 0x149c
        0x000064ca:    9001        ..      STR      r0,[sp,#4]
        0x000064cc:    9802        ..      LDR      r0,[sp,#8]
        0x000064ce:    9005        ..      STR      r0,[sp,#0x14]
        0x000064d0:    9800        ..      LDR      r0,[sp,#0]
        0x000064d2:    213f        ?!      MOVS     r1,#0x3f
        0x000064d4:    9009        ..      STR      r0,[sp,#0x24]
        0x000064d6:    0609        ..      LSLS     r1,r1,#24
        0x000064d8:    9810        ..      LDR      r0,[sp,#0x40]
        0x000064da:    f000fbeb    ....    BL       __aeabi_fsub ; 0x6cb4
        0x000064de:    9904        ..      LDR      r1,[sp,#0x10]
        0x000064e0:    f000fae8    ....    BL       __aeabi_fadd ; 0x6ab4
        0x000064e4:    9003        ..      STR      r0,[sp,#0xc]
        0x000064e6:    9901        ..      LDR      r1,[sp,#4]
        0x000064e8:    9802        ..      LDR      r0,[sp,#8]
        0x000064ea:    f000fb53    ..S.    BL       __aeabi_fmul ; 0x6b94
        0x000064ee:    9002        ..      STR      r0,[sp,#8]
        0x000064f0:    990d        ..      LDR      r1,[sp,#0x34]
        0x000064f2:    9813        ..      LDR      r0,[sp,#0x4c]
        0x000064f4:    f000fb4e    ..N.    BL       __aeabi_fmul ; 0x6b94
        0x000064f8:    9902        ..      LDR      r1,[sp,#8]
        0x000064fa:    f000fadb    ....    BL       __aeabi_fadd ; 0x6ab4
        0x000064fe:    900e        ..      STR      r0,[sp,#0x38]
        0x00006500:    9901        ..      LDR      r1,[sp,#4]
        0x00006502:    9800        ..      LDR      r0,[sp,#0]
        0x00006504:    f000fb46    ..F.    BL       __aeabi_fmul ; 0x6b94
        0x00006508:    9000        ..      STR      r0,[sp,#0]
        0x0000650a:    990d        ..      LDR      r1,[sp,#0x34]
        0x0000650c:    980c        ..      LDR      r0,[sp,#0x30]
        0x0000650e:    f000fb41    ..A.    BL       __aeabi_fmul ; 0x6b94
        0x00006512:    9900        ..      LDR      r1,[sp,#0]
        0x00006514:    f000face    ....    BL       __aeabi_fadd ; 0x6ab4
        0x00006518:    9010        ..      STR      r0,[sp,#0x40]
        0x0000651a:    6c20         l      LDR      r0,[r4,#0x40]
        0x0000651c:    9909        ..      LDR      r1,[sp,#0x24]
        0x0000651e:    9008        ..      STR      r0,[sp,#0x20]
        0x00006520:    f000fb38    ..8.    BL       __aeabi_fmul ; 0x6b94
        0x00006524:    9000        ..      STR      r0,[sp,#0]
        0x00006526:    6be0        .k      LDR      r0,[r4,#0x3c]
        0x00006528:    9903        ..      LDR      r1,[sp,#0xc]
        0x0000652a:    9006        ..      STR      r0,[sp,#0x18]
        0x0000652c:    f000fb32    ..2.    BL       __aeabi_fmul ; 0x6b94
        0x00006530:    9900        ..      LDR      r1,[sp,#0]
        0x00006532:    f000fbbf    ....    BL       __aeabi_fsub ; 0x6cb4
        0x00006536:    4943        CI      LDR      r1,[pc,#268] ; [0x6644] = 0x41200000
        0x00006538:    f000fb2c    ..,.    BL       __aeabi_fmul ; 0x6b94
        0x0000653c:    2100        .!      MOVS     r1,#0
        0x0000653e:    f000fab9    ....    BL       __aeabi_fadd ; 0x6ab4
        0x00006542:    4940        @I      LDR      r1,[pc,#256] ; [0x6644] = 0x41200000
        0x00006544:    f7fafe8c    ....    BL       __aeabi_fdiv ; 0x1260
        0x00006548:    9004        ..      STR      r0,[sp,#0x10]
        0x0000654a:    6ba0        .k      LDR      r0,[r4,#0x38]
        0x0000654c:    9903        ..      LDR      r1,[sp,#0xc]
        0x0000654e:    900a        ..      STR      r0,[sp,#0x28]
        0x00006550:    f000fb20    .. .    BL       __aeabi_fmul ; 0x6b94
        0x00006554:    9000        ..      STR      r0,[sp,#0]
        0x00006556:    9905        ..      LDR      r1,[sp,#0x14]
        0x00006558:    9808        ..      LDR      r0,[sp,#0x20]
        0x0000655a:    f000fb1b    ....    BL       __aeabi_fmul ; 0x6b94
        0x0000655e:    9900        ..      LDR      r1,[sp,#0]
        0x00006560:    f000fba8    ....    BL       __aeabi_fsub ; 0x6cb4
        0x00006564:    4937        7I      LDR      r1,[pc,#220] ; [0x6644] = 0x41200000
        0x00006566:    f000fb15    ....    BL       __aeabi_fmul ; 0x6b94
        0x0000656a:    2100        .!      MOVS     r1,#0
        0x0000656c:    f000faa2    ....    BL       __aeabi_fadd ; 0x6ab4
        0x00006570:    4934        4I      LDR      r1,[pc,#208] ; [0x6644] = 0x41200000
        0x00006572:    f7fafe75    ..u.    BL       __aeabi_fdiv ; 0x1260
        0x00006576:    9002        ..      STR      r0,[sp,#8]
        0x00006578:    990e        ..      LDR      r1,[sp,#0x38]
        0x0000657a:    980f        ..      LDR      r0,[sp,#0x3c]
        0x0000657c:    f000fb0a    ....    BL       __aeabi_fmul ; 0x6b94
        0x00006580:    9000        ..      STR      r0,[sp,#0]
        0x00006582:    9910        ..      LDR      r1,[sp,#0x40]
        0x00006584:    9811        ..      LDR      r0,[sp,#0x44]
        0x00006586:    f000fb05    ....    BL       __aeabi_fmul ; 0x6b94
        0x0000658a:    9900        ..      LDR      r1,[sp,#0]
        0x0000658c:    f000fb92    ....    BL       __aeabi_fsub ; 0x6cb4
        0x00006590:    492d        -I      LDR      r1,[pc,#180] ; [0x6648] = 0x41100000
        0x00006592:    f000faff    ....    BL       __aeabi_fmul ; 0x6b94
        0x00006596:    9000        ..      STR      r0,[sp,#0]
        0x00006598:    9905        ..      LDR      r1,[sp,#0x14]
        0x0000659a:    9806        ..      LDR      r0,[sp,#0x18]
        0x0000659c:    f000fafa    ....    BL       __aeabi_fmul ; 0x6b94
        0x000065a0:    9001        ..      STR      r0,[sp,#4]
        0x000065a2:    9909        ..      LDR      r1,[sp,#0x24]
        0x000065a4:    980a        ..      LDR      r0,[sp,#0x28]
        0x000065a6:    f000faf5    ....    BL       __aeabi_fmul ; 0x6b94
        0x000065aa:    9901        ..      LDR      r1,[sp,#4]
        0x000065ac:    f000fb82    ....    BL       __aeabi_fsub ; 0x6cb4
        0x000065b0:    9900        ..      LDR      r1,[sp,#0]
        0x000065b2:    f000fa7f    ....    BL       __aeabi_fadd ; 0x6ab4
        0x000065b6:    4923        #I      LDR      r1,[pc,#140] ; [0x6644] = 0x41200000
        0x000065b8:    f7fafe52    ..R.    BL       __aeabi_fdiv ; 0x1260
        0x000065bc:    9000        ..      STR      r0,[sp,#0]
        0x000065be:    6860        `h      LDR      r0,[r4,#4]
        0x000065c0:    2101        .!      MOVS     r1,#1
        0x000065c2:    05c9        ..      LSLS     r1,r1,#23
        0x000065c4:    9001        ..      STR      r0,[sp,#4]
        0x000065c6:    4288        .B      CMP      r0,r1
        0x000065c8:    db40        @.      BLT      0x664c ; sensfusion9UpdateQ + 1124
        0x000065ca:    9904        ..      LDR      r1,[sp,#0x10]
        0x000065cc:    f000fae2    ....    BL       __aeabi_fmul ; 0x6b94
        0x000065d0:    4639        9F      MOV      r1,r7
        0x000065d2:    f000fadf    ....    BL       __aeabi_fmul ; 0x6b94
        0x000065d6:    68a1        .h      LDR      r1,[r4,#8]
        0x000065d8:    f000fa6c    ..l.    BL       __aeabi_fadd ; 0x6ab4
        0x000065dc:    60a0        .`      STR      r0,[r4,#8]
        0x000065de:    9005        ..      STR      r0,[sp,#0x14]
        0x000065e0:    9902        ..      LDR      r1,[sp,#8]
        0x000065e2:    9801        ..      LDR      r0,[sp,#4]
        0x000065e4:    f000fad6    ....    BL       __aeabi_fmul ; 0x6b94
        0x000065e8:    4639        9F      MOV      r1,r7
        0x000065ea:    f000fad3    ....    BL       __aeabi_fmul ; 0x6b94
        0x000065ee:    68e1        .h      LDR      r1,[r4,#0xc]
        0x000065f0:    f000fa60    ..`.    BL       __aeabi_fadd ; 0x6ab4
        0x000065f4:    60e0        .`      STR      r0,[r4,#0xc]
        0x000065f6:    9003        ..      STR      r0,[sp,#0xc]
        0x000065f8:    9900        ..      LDR      r1,[sp,#0]
        0x000065fa:    9801        ..      LDR      r0,[sp,#4]
        0x000065fc:    f000faca    ....    BL       __aeabi_fmul ; 0x6b94
        0x00006600:    4639        9F      MOV      r1,r7
        0x00006602:    f000fac7    ....    BL       __aeabi_fmul ; 0x6b94
        0x00006606:    6921        !i      LDR      r1,[r4,#0x10]
        0x00006608:    f000fa54    ..T.    BL       __aeabi_fadd ; 0x6ab4
        0x0000660c:    6120         a      STR      r0,[r4,#0x10]
        0x0000660e:    9001        ..      STR      r0,[sp,#4]
        0x00006610:    9905        ..      LDR      r1,[sp,#0x14]
        0x00006612:    6960        `i      LDR      r0,[r4,#0x14]
        0x00006614:    f000fa4e    ..N.    BL       __aeabi_fadd ; 0x6ab4
        0x00006618:    6160        `a      STR      r0,[r4,#0x14]
        0x0000661a:    9903        ..      LDR      r1,[sp,#0xc]
        0x0000661c:    69a0        .i      LDR      r0,[r4,#0x18]
        0x0000661e:    f000fa49    ..I.    BL       __aeabi_fadd ; 0x6ab4
        0x00006622:    61a0        .a      STR      r0,[r4,#0x18]
        0x00006624:    9901        ..      LDR      r1,[sp,#4]
        0x00006626:    69e0        .i      LDR      r0,[r4,#0x1c]
        0x00006628:    f000fa44    ..D.    BL       __aeabi_fadd ; 0x6ab4
        0x0000662c:    61e0        .a      STR      r0,[r4,#0x1c]
        0x0000662e:    e011        ..      B        0x6654 ; sensfusion9UpdateQ + 1132
    $d
        0x00006630:    40490fdb    ..I@    DCD    1078530011
        0x00006634:    43340000    ..4C    DCD    1127481344
        0x00006638:    200006fc    ...     DCD    536872700
        0x0000663c:    20001a34    4..     DCD    536877620
        0x00006640:    2000077c    |..     DCD    536872828
        0x00006644:    41200000    .. A    DCD    1092616192
        0x00006648:    41100000    ...A    DCD    1091567616
    $t
        0x0000664c:    2000        .       MOVS     r0,#0
        0x0000664e:    60a0        .`      STR      r0,[r4,#8]
        0x00006650:    60e0        .`      STR      r0,[r4,#0xc]
        0x00006652:    6120         a      STR      r0,[r4,#0x10]
        0x00006654:    6820         h      LDR      r0,[r4,#0]
        0x00006656:    9904        ..      LDR      r1,[sp,#0x10]
        0x00006658:    9007        ..      STR      r0,[sp,#0x1c]
        0x0000665a:    f000fa9b    ....    BL       __aeabi_fmul ; 0x6b94
        0x0000665e:    6961        ai      LDR      r1,[r4,#0x14]
        0x00006660:    f000fa28    ..(.    BL       __aeabi_fadd ; 0x6ab4
        0x00006664:    6160        `a      STR      r0,[r4,#0x14]
        0x00006666:    9902        ..      LDR      r1,[sp,#8]
        0x00006668:    9807        ..      LDR      r0,[sp,#0x1c]
        0x0000666a:    f000fa93    ....    BL       __aeabi_fmul ; 0x6b94
        0x0000666e:    69a1        .i      LDR      r1,[r4,#0x18]
        0x00006670:    f000fa20    .. .    BL       __aeabi_fadd ; 0x6ab4
        0x00006674:    61a0        .a      STR      r0,[r4,#0x18]
        0x00006676:    9900        ..      LDR      r1,[sp,#0]
        0x00006678:    9807        ..      LDR      r0,[sp,#0x1c]
        0x0000667a:    f000fa8b    ....    BL       __aeabi_fmul ; 0x6b94
        0x0000667e:    69e1        .i      LDR      r1,[r4,#0x1c]
        0x00006680:    f000fa18    ....    BL       __aeabi_fadd ; 0x6ab4
        0x00006684:    61e0        .a      STR      r0,[r4,#0x1c]
        0x00006686:    f7fcfa33    ..3.    BL       GetTickCounter ; 0x2af0
        0x0000668a:    217d        }!      MOVS     r1,#0x7d
        0x0000668c:    00c9        ..      LSLS     r1,r1,#3
        0x0000668e:    4288        .B      CMP      r0,r1
        0x00006690:    d916        ..      BLS      0x66c0 ; sensfusion9UpdateQ + 1240
        0x00006692:    213f        ?!      MOVS     r1,#0x3f
        0x00006694:    0609        ..      LSLS     r1,r1,#24
        0x00006696:    9812        ..      LDR      r0,[sp,#0x48]
        0x00006698:    f000fa0c    ....    BL       __aeabi_fadd ; 0x6ab4
        0x0000669c:    4639        9F      MOV      r1,r7
        0x0000669e:    f000fa79    ..y.    BL       __aeabi_fmul ; 0x6b94
        0x000066a2:    9000        ..      STR      r0,[sp,#0]
        0x000066a4:    6961        ai      LDR      r1,[r4,#0x14]
        0x000066a6:    f000fa75    ..u.    BL       __aeabi_fmul ; 0x6b94
        0x000066aa:    6160        `a      STR      r0,[r4,#0x14]
        0x000066ac:    9800        ..      LDR      r0,[sp,#0]
        0x000066ae:    69a1        .i      LDR      r1,[r4,#0x18]
        0x000066b0:    f000fa70    ..p.    BL       __aeabi_fmul ; 0x6b94
        0x000066b4:    61a0        .a      STR      r0,[r4,#0x18]
        0x000066b6:    9800        ..      LDR      r0,[sp,#0]
        0x000066b8:    69e1        .i      LDR      r1,[r4,#0x1c]
        0x000066ba:    f000fa6b    ..k.    BL       __aeabi_fmul ; 0x6b94
        0x000066be:    61e0        .a      STR      r0,[r4,#0x1c]
        0x000066c0:    6f60        `o      LDR      r0,[r4,#0x74]
        0x000066c2:    9016        ..      STR      r0,[sp,#0x58]
        0x000066c4:    9001        ..      STR      r0,[sp,#4]
        0x000066c6:    6fa0        .o      LDR      r0,[r4,#0x78]
        0x000066c8:    9014        ..      STR      r0,[sp,#0x50]
        0x000066ca:    9003        ..      STR      r0,[sp,#0xc]
        0x000066cc:    6fe0        .o      LDR      r0,[r4,#0x7c]
        0x000066ce:    9012        ..      STR      r0,[sp,#0x48]
        0x000066d0:    9005        ..      STR      r0,[sp,#0x14]
        0x000066d2:    69e1        .i      LDR      r1,[r4,#0x1c]
        0x000066d4:    4854        TH      LDR      r0,[pc,#336] ; [0x6828] = 0x2000077c
        0x000066d6:    9100        ..      STR      r1,[sp,#0]
        0x000066d8:    6800        .h      LDR      r0,[r0,#0]
        0x000066da:    900b        ..      STR      r0,[sp,#0x2c]
        0x000066dc:    f000fa5a    ..Z.    BL       __aeabi_fmul ; 0x6b94
        0x000066e0:    9007        ..      STR      r0,[sp,#0x1c]
        0x000066e2:    69a1        .i      LDR      r1,[r4,#0x18]
        0x000066e4:    9102        ..      STR      r1,[sp,#8]
        0x000066e6:    9805        ..      LDR      r0,[sp,#0x14]
        0x000066e8:    f000fa54    ..T.    BL       __aeabi_fmul ; 0x6b94
        0x000066ec:    9006        ..      STR      r0,[sp,#0x18]
        0x000066ee:    2101        .!      MOVS     r1,#1
        0x000066f0:    9803        ..      LDR      r0,[sp,#0xc]
        0x000066f2:    07c9        ..      LSLS     r1,r1,#31
        0x000066f4:    4048        H@      EORS     r0,r0,r1
        0x000066f6:    6961        ai      LDR      r1,[r4,#0x14]
        0x000066f8:    9104        ..      STR      r1,[sp,#0x10]
        0x000066fa:    f000fa4b    ..K.    BL       __aeabi_fmul ; 0x6b94
        0x000066fe:    9906        ..      LDR      r1,[sp,#0x18]
        0x00006700:    f000fad8    ....    BL       __aeabi_fsub ; 0x6cb4
        0x00006704:    9907        ..      LDR      r1,[sp,#0x1c]
        0x00006706:    f000fad5    ....    BL       __aeabi_fsub ; 0x6cb4
        0x0000670a:    9916        ..      LDR      r1,[sp,#0x58]
        0x0000670c:    f000f9d2    ....    BL       __aeabi_fadd ; 0x6ab4
        0x00006710:    6760        `g      STR      r0,[r4,#0x74]
        0x00006712:    9006        ..      STR      r0,[sp,#0x18]
        0x00006714:    9902        ..      LDR      r1,[sp,#8]
        0x00006716:    980b        ..      LDR      r0,[sp,#0x2c]
        0x00006718:    f000fa3c    ..<.    BL       __aeabi_fmul ; 0x6b94
        0x0000671c:    9008        ..      STR      r0,[sp,#0x20]
        0x0000671e:    9900        ..      LDR      r1,[sp,#0]
        0x00006720:    9805        ..      LDR      r0,[sp,#0x14]
        0x00006722:    f000fa37    ..7.    BL       __aeabi_fmul ; 0x6b94
        0x00006726:    9007        ..      STR      r0,[sp,#0x1c]
        0x00006728:    9904        ..      LDR      r1,[sp,#0x10]
        0x0000672a:    9801        ..      LDR      r0,[sp,#4]
        0x0000672c:    f000fa32    ..2.    BL       __aeabi_fmul ; 0x6b94
        0x00006730:    9907        ..      LDR      r1,[sp,#0x1c]
        0x00006732:    f000f9bf    ....    BL       __aeabi_fadd ; 0x6ab4
        0x00006736:    9908        ..      LDR      r1,[sp,#0x20]
        0x00006738:    f000fabc    ....    BL       __aeabi_fsub ; 0x6cb4
        0x0000673c:    9914        ..      LDR      r1,[sp,#0x50]
        0x0000673e:    f000f9b9    ....    BL       __aeabi_fadd ; 0x6ab4
        0x00006742:    67a0        .g      STR      r0,[r4,#0x78]
        0x00006744:    9007        ..      STR      r0,[sp,#0x1c]
        0x00006746:    9904        ..      LDR      r1,[sp,#0x10]
        0x00006748:    980b        ..      LDR      r0,[sp,#0x2c]
        0x0000674a:    f000fa23    ..#.    BL       __aeabi_fmul ; 0x6b94
        0x0000674e:    9009        ..      STR      r0,[sp,#0x24]
        0x00006750:    9900        ..      LDR      r1,[sp,#0]
        0x00006752:    9803        ..      LDR      r0,[sp,#0xc]
        0x00006754:    f000fa1e    ....    BL       __aeabi_fmul ; 0x6b94
        0x00006758:    9008        ..      STR      r0,[sp,#0x20]
        0x0000675a:    9902        ..      LDR      r1,[sp,#8]
        0x0000675c:    9801        ..      LDR      r0,[sp,#4]
        0x0000675e:    f000fa19    ....    BL       __aeabi_fmul ; 0x6b94
        0x00006762:    9908        ..      LDR      r1,[sp,#0x20]
        0x00006764:    f000faa6    ....    BL       __aeabi_fsub ; 0x6cb4
        0x00006768:    9909        ..      LDR      r1,[sp,#0x24]
        0x0000676a:    f000f9a3    ....    BL       __aeabi_fadd ; 0x6ab4
        0x0000676e:    9912        ..      LDR      r1,[sp,#0x48]
        0x00006770:    f000f9a0    ....    BL       __aeabi_fadd ; 0x6ab4
        0x00006774:    67e0        .g      STR      r0,[r4,#0x7c]
        0x00006776:    9008        ..      STR      r0,[sp,#0x20]
        0x00006778:    9904        ..      LDR      r1,[sp,#0x10]
        0x0000677a:    9805        ..      LDR      r0,[sp,#0x14]
        0x0000677c:    f000fa0a    ....    BL       __aeabi_fmul ; 0x6b94
        0x00006780:    9004        ..      STR      r0,[sp,#0x10]
        0x00006782:    9902        ..      LDR      r1,[sp,#8]
        0x00006784:    9803        ..      LDR      r0,[sp,#0xc]
        0x00006786:    f000fa05    ....    BL       __aeabi_fmul ; 0x6b94
        0x0000678a:    9002        ..      STR      r0,[sp,#8]
        0x0000678c:    9900        ..      LDR      r1,[sp,#0]
        0x0000678e:    9801        ..      LDR      r0,[sp,#4]
        0x00006790:    f000fa00    ....    BL       __aeabi_fmul ; 0x6b94
        0x00006794:    9902        ..      LDR      r1,[sp,#8]
        0x00006796:    f000f98d    ....    BL       __aeabi_fadd ; 0x6ab4
        0x0000679a:    9904        ..      LDR      r1,[sp,#0x10]
        0x0000679c:    f000fa8a    ....    BL       __aeabi_fsub ; 0x6cb4
        0x000067a0:    990b        ..      LDR      r1,[sp,#0x2c]
        0x000067a2:    f000f987    ....    BL       __aeabi_fadd ; 0x6ab4
        0x000067a6:    4920         I      LDR      r1,[pc,#128] ; [0x6828] = 0x2000077c
        0x000067a8:    6008        .`      STR      r0,[r1,#0]
        0x000067aa:    4601        .F      MOV      r1,r0
        0x000067ac:    f000f9f2    ....    BL       __aeabi_fmul ; 0x6b94
        0x000067b0:    9908        ..      LDR      r1,[sp,#0x20]
        0x000067b2:    9000        ..      STR      r0,[sp,#0]
        0x000067b4:    4608        .F      MOV      r0,r1
        0x000067b6:    f000f9ed    ....    BL       __aeabi_fmul ; 0x6b94
        0x000067ba:    9907        ..      LDR      r1,[sp,#0x1c]
        0x000067bc:    9001        ..      STR      r0,[sp,#4]
        0x000067be:    4608        .F      MOV      r0,r1
        0x000067c0:    f000f9e8    ....    BL       __aeabi_fmul ; 0x6b94
        0x000067c4:    9906        ..      LDR      r1,[sp,#0x18]
        0x000067c6:    9002        ..      STR      r0,[sp,#8]
        0x000067c8:    4608        .F      MOV      r0,r1
        0x000067ca:    f000f9e3    ....    BL       __aeabi_fmul ; 0x6b94
        0x000067ce:    9902        ..      LDR      r1,[sp,#8]
        0x000067d0:    f000f970    ..p.    BL       __aeabi_fadd ; 0x6ab4
        0x000067d4:    9901        ..      LDR      r1,[sp,#4]
        0x000067d6:    f000f96d    ..m.    BL       __aeabi_fadd ; 0x6ab4
        0x000067da:    9900        ..      LDR      r1,[sp,#0]
        0x000067dc:    f000f96a    ..j.    BL       __aeabi_fadd ; 0x6ab4
        0x000067e0:    f7fefcc2    ....    BL       invSqrt ; 0x5168
        0x000067e4:    4601        .F      MOV      r1,r0
        0x000067e6:    9001        ..      STR      r0,[sp,#4]
        0x000067e8:    6f60        `o      LDR      r0,[r4,#0x74]
        0x000067ea:    f000f9d3    ....    BL       __aeabi_fmul ; 0x6b94
        0x000067ee:    6760        `g      STR      r0,[r4,#0x74]
        0x000067f0:    9901        ..      LDR      r1,[sp,#4]
        0x000067f2:    6fa0        .o      LDR      r0,[r4,#0x78]
        0x000067f4:    f000f9ce    ....    BL       __aeabi_fmul ; 0x6b94
        0x000067f8:    67a0        .g      STR      r0,[r4,#0x78]
        0x000067fa:    9901        ..      LDR      r1,[sp,#4]
        0x000067fc:    6fe0        .o      LDR      r0,[r4,#0x7c]
        0x000067fe:    f000f9c9    ....    BL       __aeabi_fmul ; 0x6b94
        0x00006802:    67e0        .g      STR      r0,[r4,#0x7c]
        0x00006804:    4808        .H      LDR      r0,[pc,#32] ; [0x6828] = 0x2000077c
        0x00006806:    9901        ..      LDR      r1,[sp,#4]
        0x00006808:    6800        .h      LDR      r0,[r0,#0]
        0x0000680a:    f000f9c3    ....    BL       __aeabi_fmul ; 0x6b94
        0x0000680e:    4906        .I      LDR      r1,[pc,#24] ; [0x6828] = 0x2000077c
        0x00006810:    6008        .`      STR      r0,[r1,#0]
        0x00006812:    f7fbfd7b    ..{.    BL       ComputeEuler ; 0x230c
        0x00006816:    9700        ..      STR      r7,[sp,#0]
        0x00006818:    462a        *F      MOV      r2,r5
        0x0000681a:    4631        1F      MOV      r1,r6
        0x0000681c:    9b01        ..      LDR      r3,[sp,#4]
        0x0000681e:    981a        ..      LDR      r0,[sp,#0x68]
        0x00006820:    f7fbfe74    ..t.    BL       ComputeMotion ; 0x250c
        0x00006824:    b01b        ..      ADD      sp,sp,#0x6c
        0x00006826:    bdf0        ..      POP      {r4-r7,pc}
    $d
        0x00006828:    2000077c    |..     DCD    536872828
    $t
    i.setup_system_tick
    setup_system_tick
        0x0000682c:    b570        p.      PUSH     {r4-r6,lr}
        0x0000682e:    4605        .F      MOV      r5,r0
        0x00006830:    4629        )F      MOV      r1,r5
        0x00006832:    480e        .H      LDR      r0,[pc,#56] ; [0x686c] = 0x20000000
        0x00006834:    6800        .h      LDR      r0,[r0,#0]
        0x00006836:    f7f9fe51    ..Q.    BL       __aeabi_uidiv ; 0x4dc
        0x0000683a:    4606        .F      MOV      r6,r0
        0x0000683c:    4634        4F      MOV      r4,r6
        0x0000683e:    480c        .H      LDR      r0,[pc,#48] ; [0x6870] = 0xffffff
        0x00006840:    4284        .B      CMP      r4,r0
        0x00006842:    d900        ..      BLS      0x6846 ; setup_system_tick + 26
        0x00006844:    e00e        ..      B        0x6864 ; setup_system_tick + 56
        0x00006846:    0220         .      LSLS     r0,r4,#8
        0x00006848:    0a00        ..      LSRS     r0,r0,#8
        0x0000684a:    1e40        @.      SUBS     r0,r0,#1
        0x0000684c:    4909        .I      LDR      r1,[pc,#36] ; [0x6874] = 0xe000e000
        0x0000684e:    6148        Ha      STR      r0,[r1,#0x14]
        0x00006850:    2103        .!      MOVS     r1,#3
        0x00006852:    1f08        ..      SUBS     r0,r1,#4
        0x00006854:    f7fcff6e    ..n.    BL       NVIC_SetPriority ; 0x3734
        0x00006858:    2000        .       MOVS     r0,#0
        0x0000685a:    4906        .I      LDR      r1,[pc,#24] ; [0x6874] = 0xe000e000
        0x0000685c:    6188        .a      STR      r0,[r1,#0x18]
        0x0000685e:    2007        .       MOVS     r0,#7
        0x00006860:    6108        .a      STR      r0,[r1,#0x10]
        0x00006862:    bf00        ..      NOP      
        0x00006864:    2000        .       MOVS     r0,#0
        0x00006866:    f7fbfd41    ..A.    BL       ChronographStart ; 0x22ec
        0x0000686a:    bd70        p.      POP      {r4-r6,pc}
    $d
        0x0000686c:    20000000    ...     DCD    536870912
        0x00006870:    00ffffff    ....    DCD    16777215
        0x00006874:    e000e000    ....    DCD    3758153728
    $t
    i.sin
    sin
        0x00006878:    b500        ..      PUSH     {lr}
        0x0000687a:    004a        J.      LSLS     r2,r1,#1
        0x0000687c:    4b25        %K      LDR      r3,[pc,#148] ; [0x6914] = 0x3fe921fb
        0x0000687e:    0852        R.      LSRS     r2,r2,#1
        0x00006880:    b087        ..      SUB      sp,sp,#0x1c
        0x00006882:    429a        .B      CMP      r2,r3
        0x00006884:    dc03        ..      BGT      0x688e ; sin + 22
        0x00006886:    2200        ."      MOVS     r2,#0
        0x00006888:    4613        .F      MOV      r3,r2
        0x0000688a:    9200        ..      STR      r2,[sp,#0]
        0x0000688c:    e02e        ..      B        0x68ec ; sin + 116
        0x0000688e:    4b22        "K      LDR      r3,[pc,#136] ; [0x6918] = 0x7ff00000
        0x00006890:    429a        .B      CMP      r2,r3
        0x00006892:    d10c        ..      BNE      0x68ae ; sin + 54
        0x00006894:    2800        .(      CMP      r0,#0
        0x00006896:    d10c        ..      BNE      0x68b2 ; sin + 58
        0x00006898:    2001        .       MOVS     r0,#1
        0x0000689a:    f7fafe26    ..&.    BL       __set_errno ; 0x14ea
        0x0000689e:    2200        ."      MOVS     r2,#0
        0x000068a0:    4613        .F      MOV      r3,r2
        0x000068a2:    4610        .F      MOV      r0,r2
        0x000068a4:    4611        .F      MOV      r1,r2
        0x000068a6:    f7faf8f7    ....    BL       __aeabi_ddiv ; 0xa98
        0x000068aa:    b007        ..      ADD      sp,sp,#0x1c
        0x000068ac:    bd00        ..      POP      {pc}
        0x000068ae:    429a        .B      CMP      r2,r3
        0x000068b0:    db04        ..      BLT      0x68bc ; sin + 68
        0x000068b2:    2201        ."      MOVS     r2,#1
        0x000068b4:    f7faff06    ....    BL       __ARM_scalbn ; 0x16c4
        0x000068b8:    b007        ..      ADD      sp,sp,#0x1c
        0x000068ba:    bd00        ..      POP      {pc}
        0x000068bc:    aa02        ..      ADD      r2,sp,#8
        0x000068be:    f7fdfd51    ..Q.    BL       __ieee754_rem_pio2 ; 0x4364
        0x000068c2:    0781        ..      LSLS     r1,r0,#30
        0x000068c4:    0f89        ..      LSRS     r1,r1,#30
        0x000068c6:    2001        .       MOVS     r0,#1
        0x000068c8:    2900        .)      CMP      r1,#0
        0x000068ca:    d00c        ..      BEQ      0x68e6 ; sin + 110
        0x000068cc:    2901        .)      CMP      r1,#1
        0x000068ce:    d011        ..      BEQ      0x68f4 ; sin + 124
        0x000068d0:    2902        .)      CMP      r1,#2
        0x000068d2:    d015        ..      BEQ      0x6900 ; sin + 136
        0x000068d4:    a802        ..      ADD      r0,sp,#8
        0x000068d6:    c80f        ..      LDM      r0,{r0-r3}
        0x000068d8:    f7fdff14    ....    BL       __kernel_cos ; 0x4704
        0x000068dc:    2201        ."      MOVS     r2,#1
        0x000068de:    07d2        ..      LSLS     r2,r2,#31
        0x000068e0:    4051        Q@      EORS     r1,r1,r2
        0x000068e2:    b007        ..      ADD      sp,sp,#0x1c
        0x000068e4:    bd00        ..      POP      {pc}
        0x000068e6:    9000        ..      STR      r0,[sp,#0]
        0x000068e8:    a802        ..      ADD      r0,sp,#8
        0x000068ea:    c80f        ..      LDM      r0,{r0-r3}
        0x000068ec:    f7fdffda    ....    BL       __kernel_sin ; 0x48a4
        0x000068f0:    b007        ..      ADD      sp,sp,#0x1c
        0x000068f2:    bd00        ..      POP      {pc}
        0x000068f4:    a802        ..      ADD      r0,sp,#8
        0x000068f6:    c80f        ..      LDM      r0,{r0-r3}
        0x000068f8:    f7fdff04    ....    BL       __kernel_cos ; 0x4704
        0x000068fc:    b007        ..      ADD      sp,sp,#0x1c
        0x000068fe:    bd00        ..      POP      {pc}
        0x00006900:    9000        ..      STR      r0,[sp,#0]
        0x00006902:    a802        ..      ADD      r0,sp,#8
        0x00006904:    c80f        ..      LDM      r0,{r0-r3}
        0x00006906:    f7fdffcd    ....    BL       __kernel_sin ; 0x48a4
        0x0000690a:    2201        ."      MOVS     r2,#1
        0x0000690c:    07d2        ..      LSLS     r2,r2,#31
        0x0000690e:    4051        Q@      EORS     r1,r1,r2
        0x00006910:    b007        ..      ADD      sp,sp,#0x1c
        0x00006912:    bd00        ..      POP      {pc}
    $d
        0x00006914:    3fe921fb    .!.?    DCD    1072243195
        0x00006918:    7ff00000    ....    DCD    2146435072
    $t
    i.sqrt
    sqrt
        0x0000691c:    b5f8        ..      PUSH     {r3-r7,lr}
        0x0000691e:    4606        .F      MOV      r6,r0
        0x00006920:    460c        .F      MOV      r4,r1
        0x00006922:    f7fafefd    ....    BL       _dsqrt ; 0x1720
        0x00006926:    0005        ..      MOVS     r5,r0
        0x00006928:    460f        .F      MOV      r7,r1
        0x0000692a:    d000        ..      BEQ      0x692e ; sqrt + 18
        0x0000692c:    2001        .       MOVS     r0,#1
        0x0000692e:    4301        .C      ORRS     r1,r1,r0
        0x00006930:    0049        I.      LSLS     r1,r1,#1
        0x00006932:    480b        .H      LDR      r0,[pc,#44] ; [0x6960] = 0x7ff00000
        0x00006934:    0849        I.      LSRS     r1,r1,#1
        0x00006936:    1a41        A.      SUBS     r1,r0,r1
        0x00006938:    0fc9        ..      LSRS     r1,r1,#31
        0x0000693a:    d00d        ..      BEQ      0x6958 ; sqrt + 60
        0x0000693c:    2e00        ..      CMP      r6,#0
        0x0000693e:    d001        ..      BEQ      0x6944 ; sqrt + 40
        0x00006940:    2101        .!      MOVS     r1,#1
        0x00006942:    e000        ..      B        0x6946 ; sqrt + 42
        0x00006944:    2100        .!      MOVS     r1,#0
        0x00006946:    430c        .C      ORRS     r4,r4,r1
        0x00006948:    0061        a.      LSLS     r1,r4,#1
        0x0000694a:    0849        I.      LSRS     r1,r1,#1
        0x0000694c:    1a40        @.      SUBS     r0,r0,r1
        0x0000694e:    0fc0        ..      LSRS     r0,r0,#31
        0x00006950:    d102        ..      BNE      0x6958 ; sqrt + 60
        0x00006952:    2001        .       MOVS     r0,#1
        0x00006954:    f7fafdc9    ....    BL       __set_errno ; 0x14ea
        0x00006958:    4628        (F      MOV      r0,r5
        0x0000695a:    4639        9F      MOV      r1,r7
        0x0000695c:    bdf8        ..      POP      {r3-r7,pc}
    $d
        0x0000695e:    0000        ..      DCW    0
        0x00006960:    7ff00000    ....    DCD    2146435072
    $t
    i.transfer
    transfer
        0x00006964:    4601        .F      MOV      r1,r0
        0x00006966:    4805        .H      LDR      r0,[pc,#20] ; [0x697c] = 0x7fff
        0x00006968:    4281        .B      CMP      r1,r0
        0x0000696a:    dd05        ..      BLE      0x6978 ; transfer + 20
        0x0000696c:    1c40        @.      ADDS     r0,r0,#1
        0x0000696e:    1a08        ..      SUBS     r0,r1,r0
        0x00006970:    43c0        .C      MVNS     r0,r0
        0x00006972:    1c40        @.      ADDS     r0,r0,#1
        0x00006974:    b280        ..      UXTH     r0,r0
        0x00006976:    4770        pG      BX       lr
        0x00006978:    4608        .F      MOV      r0,r1
        0x0000697a:    e7fc        ..      B        0x6976 ; transfer + 18
    $d
        0x0000697c:    00007fff    ....    DCD    32767
    $t
    i.update_calibration_matrices
    update_calibration_matrices
        0x00006980:    b5f3        ..      PUSH     {r0,r1,r4-r7,lr}
        0x00006982:    b087        ..      SUB      sp,sp,#0x1c
        0x00006984:    2400        .$      MOVS     r4,#0
        0x00006986:    466f        oF      MOV      r7,sp
        0x00006988:    4e2d        -N      LDR      r6,[pc,#180] ; [0x6a40] = 0x20001770
        0x0000698a:    00a5        ..      LSLS     r5,r4,#2
        0x0000698c:    19a8        ..      ADDS     r0,r5,r6
        0x0000698e:    68c0        .h      LDR      r0,[r0,#0xc]
        0x00006990:    9006        ..      STR      r0,[sp,#0x18]
        0x00006992:    9807        ..      LDR      r0,[sp,#0x1c]
        0x00006994:    0061        a.      LSLS     r1,r4,#1
        0x00006996:    5e40        @^      LDRSH    r0,[r0,r1]
        0x00006998:    f7fafd74    ..t.    BL       __aeabi_i2f ; 0x1484
        0x0000699c:    5971        qY      LDR      r1,[r6,r5]
        0x0000699e:    f000f989    ....    BL       __aeabi_fsub ; 0x6cb4
        0x000069a2:    9906        ..      LDR      r1,[sp,#0x18]
        0x000069a4:    4606        .F      MOV      r6,r0
        0x000069a6:    4608        .F      MOV      r0,r1
        0x000069a8:    f000f8f4    ....    BL       __aeabi_fmul ; 0x6b94
        0x000069ac:    4631        1F      MOV      r1,r6
        0x000069ae:    f000f8f1    ....    BL       __aeabi_fmul ; 0x6b94
        0x000069b2:    4631        1F      MOV      r1,r6
        0x000069b4:    f000f8ee    ....    BL       __aeabi_fmul ; 0x6b94
        0x000069b8:    9908        ..      LDR      r1,[sp,#0x20]
        0x000069ba:    f000f96f    ..o.    BL       __aeabi_frsub ; 0x6c9c
        0x000069be:    9008        ..      STR      r0,[sp,#0x20]
        0x000069c0:    2101        .!      MOVS     r1,#1
        0x000069c2:    9806        ..      LDR      r0,[sp,#0x18]
        0x000069c4:    f7fafd6a    ..j.    BL       __ARM_scalbnf ; 0x149c
        0x000069c8:    9906        ..      LDR      r1,[sp,#0x18]
        0x000069ca:    f000f8e3    ....    BL       __aeabi_fmul ; 0x6b94
        0x000069ce:    4631        1F      MOV      r1,r6
        0x000069d0:    f000f8e0    ....    BL       __aeabi_fmul ; 0x6b94
        0x000069d4:    5178        xQ      STR      r0,[r7,r5]
        0x000069d6:    2103        .!      MOVS     r1,#3
        0x000069d8:    0789        ..      LSLS     r1,r1,#30
        0x000069da:    9806        ..      LDR      r0,[sp,#0x18]
        0x000069dc:    f000f8da    ....    BL       __aeabi_fmul ; 0x6b94
        0x000069e0:    4631        1F      MOV      r1,r6
        0x000069e2:    f000f8d7    ....    BL       __aeabi_fmul ; 0x6b94
        0x000069e6:    4631        1F      MOV      r1,r6
        0x000069e8:    f000f8d4    ....    BL       __aeabi_fmul ; 0x6b94
        0x000069ec:    19e9        ..      ADDS     r1,r5,r7
        0x000069ee:    1c64        d.      ADDS     r4,r4,#1
        0x000069f0:    60c8        .`      STR      r0,[r1,#0xc]
        0x000069f2:    2c03        .,      CMP      r4,#3
        0x000069f4:    dbc8        ..      BLT      0x6988 ; update_calibration_matrices + 8
        0x000069f6:    2600        .&      MOVS     r6,#0
        0x000069f8:    00b4        ..      LSLS     r4,r6,#2
        0x000069fa:    466d        mF      MOV      r5,sp
        0x000069fc:    5928        (Y      LDR      r0,[r5,r4]
        0x000069fe:    9006        ..      STR      r0,[sp,#0x18]
        0x00006a00:    9908        ..      LDR      r1,[sp,#0x20]
        0x00006a02:    f000f8c7    ....    BL       __aeabi_fmul ; 0x6b94
        0x00006a06:    4f0f        .O      LDR      r7,[pc,#60] ; [0x6a44] = 0x20001990
        0x00006a08:    5939        9Y      LDR      r1,[r7,r4]
        0x00006a0a:    f000f853    ..S.    BL       __aeabi_fadd ; 0x6ab4
        0x00006a0e:    5138        8Q      STR      r0,[r7,r4]
        0x00006a10:    480d        .H      LDR      r0,[pc,#52] ; [0x6a48] = 0x20001800
        0x00006a12:    2128        (!      MOVS     r1,#0x28
        0x00006a14:    2400        .$      MOVS     r4,#0
        0x00006a16:    4371        qC      MULS     r1,r6,r1
        0x00006a18:    180f        ..      ADDS     r7,r1,r0
        0x00006a1a:    00a5        ..      LSLS     r5,r4,#2
        0x00006a1c:    4668        hF      MOV      r0,sp
        0x00006a1e:    5941        AY      LDR      r1,[r0,r5]
        0x00006a20:    9806        ..      LDR      r0,[sp,#0x18]
        0x00006a22:    f000f8b7    ....    BL       __aeabi_fmul ; 0x6b94
        0x00006a26:    5979        yY      LDR      r1,[r7,r5]
        0x00006a28:    f000f844    ..D.    BL       __aeabi_fadd ; 0x6ab4
        0x00006a2c:    1c64        d.      ADDS     r4,r4,#1
        0x00006a2e:    5178        xQ      STR      r0,[r7,r5]
        0x00006a30:    2c06        .,      CMP      r4,#6
        0x00006a32:    dbf2        ..      BLT      0x6a1a ; update_calibration_matrices + 154
        0x00006a34:    1c76        v.      ADDS     r6,r6,#1
        0x00006a36:    2e06        ..      CMP      r6,#6
        0x00006a38:    dbde        ..      BLT      0x69f8 ; update_calibration_matrices + 120
        0x00006a3a:    b009        ..      ADD      sp,sp,#0x24
        0x00006a3c:    bdf0        ..      POP      {r4-r7,pc}
    $d
        0x00006a3e:    0000        ..      DCW    0
        0x00006a40:    20001770    p..     DCD    536876912
        0x00006a44:    20001990    ...     DCD    536877456
        0x00006a48:    20001800    ...     DCD    536877056
    $t
    x$fpl$drleqf
    __aeabi_cdrcmple
    _drcmple
        0x00006a4c:    b570        p.      PUSH     {r4-r6,lr}
        0x00006a4e:    2501        .%      MOVS     r5,#1
        0x00006a50:    001c        ..      MOVS     r4,r3
        0x00006a52:    052d        -.      LSLS     r5,r5,#20
        0x00006a54:    430c        .C      ORRS     r4,r4,r1
        0x00006a56:    d410        ..      BMI      0x6a7a ; __aeabi_cdrcmple + 46
        0x00006a58:    42ec        .B      CMN      r4,r5
        0x00006a5a:    d406        ..      BMI      0x6a6a ; __aeabi_cdrcmple + 30
        0x00006a5c:    42ac        .B      CMP      r4,r5
        0x00006a5e:    d40a        ..      BMI      0x6a76 ; __aeabi_cdrcmple + 42
        0x00006a60:    428b        .B      CMP      r3,r1
        0x00006a62:    d000        ..      BEQ      0x6a66 ; __aeabi_cdrcmple + 26
        0x00006a64:    bd70        p.      POP      {r4-r6,pc}
        0x00006a66:    4282        .B      CMP      r2,r0
        0x00006a68:    bd70        p.      POP      {r4-r6,pc}
        0x00006a6a:    42eb        .B      CMN      r3,r5
        0x00006a6c:    d417        ..      BMI      0x6a9e ; __aeabi_cdrcmple + 82
        0x00006a6e:    42e9        .B      CMN      r1,r5
        0x00006a70:    d415        ..      BMI      0x6a9e ; __aeabi_cdrcmple + 82
        0x00006a72:    428b        .B      CMP      r3,r1
        0x00006a74:    bd70        p.      POP      {r4-r6,pc}
        0x00006a76:    429b        .B      CMP      r3,r3
        0x00006a78:    bd70        p.      POP      {r4-r6,pc}
        0x00006a7a:    42ec        .B      CMN      r4,r5
        0x00006a7c:    d506        ..      BPL      0x6a8c ; __aeabi_cdrcmple + 64
        0x00006a7e:    42ac        .B      CMP      r4,r5
        0x00006a80:    d5f9        ..      BPL      0x6a76 ; __aeabi_cdrcmple + 42
        0x00006a82:    4299        .B      CMP      r1,r3
        0x00006a84:    d000        ..      BEQ      0x6a88 ; __aeabi_cdrcmple + 60
        0x00006a86:    bd70        p.      POP      {r4-r6,pc}
        0x00006a88:    4290        .B      CMP      r0,r2
        0x00006a8a:    bd70        p.      POP      {r4-r6,pc}
        0x00006a8c:    006d        m.      LSLS     r5,r5,#1
        0x00006a8e:    005c        \.      LSLS     r4,r3,#1
        0x00006a90:    42ec        .B      CMN      r4,r5
        0x00006a92:    d204        ..      BCS      0x6a9e ; __aeabi_cdrcmple + 82
        0x00006a94:    004c        L.      LSLS     r4,r1,#1
        0x00006a96:    42ec        .B      CMN      r4,r5
        0x00006a98:    d201        ..      BCS      0x6a9e ; __aeabi_cdrcmple + 82
        0x00006a9a:    4299        .B      CMP      r1,r3
        0x00006a9c:    bd70        p.      POP      {r4-r6,pc}
        0x00006a9e:    b40f        ..      PUSH     {r0-r3}
        0x00006aa0:    4c03        .L      LDR      r4,[pc,#12] ; [0x6ab0] = 0x4160019
        0x00006aa2:    bc0c        ..      POP      {r2,r3}
        0x00006aa4:    bc03        ..      POP      {r0,r1}
        0x00006aa6:    b430        0.      PUSH     {r4,r5}
        0x00006aa8:    f7fafdc4    ....    BL       __fpl_dcmp_InfNaN ; 0x1634
        0x00006aac:    bc30        0.      POP      {r4,r5}
        0x00006aae:    bd70        p.      POP      {r4-r6,pc}
    $d
        0x00006ab0:    04160019    ....    DCD    68550681
    $t
    x$fpl$fadd
    __aeabi_fadd
    _fadd
        0x00006ab4:    b570        p.      PUSH     {r4-r6,lr}
        0x00006ab6:    2501        .%      MOVS     r5,#1
        0x00006ab8:    0004        ..      MOVS     r4,r0
        0x00006aba:    07ed        ..      LSLS     r5,r5,#31
        0x00006abc:    404c        L@      EORS     r4,r4,r1
        0x00006abe:    d420         .      BMI      0x6b02 ; _fadd1 + 66
    _fadd1
        0x00006ac0:    1a44        D.      SUBS     r4,r0,r1
        0x00006ac2:    d201        ..      BCS      0x6ac8 ; _fadd1 + 8
        0x00006ac4:    1b00        ..      SUBS     r0,r0,r4
        0x00006ac6:    1909        ..      ADDS     r1,r1,r4
        0x00006ac8:    0dc6        ..      LSRS     r6,r0,#23
        0x00006aca:    004b        K.      LSLS     r3,r1,#1
        0x00006acc:    b2f2        ..      UXTB     r2,r6
        0x00006ace:    2aff        .*      CMP      r2,#0xff
        0x00006ad0:    d029        ).      BEQ      0x6b26 ; _fadd1 + 102
        0x00006ad2:    0e1b        ..      LSRS     r3,r3,#24
        0x00006ad4:    d02c        ,.      BEQ      0x6b30 ; _fadd1 + 112
        0x00006ad6:    0200        ..      LSLS     r0,r0,#8
        0x00006ad8:    020c        ..      LSLS     r4,r1,#8
        0x00006ada:    1ad3        ..      SUBS     r3,r2,r3
        0x00006adc:    432c        ,C      ORRS     r4,r4,r5
        0x00006ade:    40dc        .@      LSRS     r4,r4,r3
        0x00006ae0:    4328        (C      ORRS     r0,r0,r5
        0x00006ae2:    1905        ..      ADDS     r5,r0,r4
        0x00006ae4:    d210        ..      BCS      0x6b08 ; _fadd1 + 72
        0x00006ae6:    0a28        (.      LSRS     r0,r5,#8
        0x00006ae8:    d302        ..      BCC      0x6af0 ; _fadd1 + 48
        0x00006aea:    1c40        @.      ADDS     r0,r0,#1
        0x00006aec:    066d        m.      LSLS     r5,r5,#25
        0x00006aee:    d011        ..      BEQ      0x6b14 ; _fadd1 + 84
        0x00006af0:    1e76        v.      SUBS     r6,r6,#1
        0x00006af2:    05f6        ..      LSLS     r6,r6,#23
        0x00006af4:    1980        ..      ADDS     r0,r0,r6
        0x00006af6:    2aff        .*      CMP      r2,#0xff
        0x00006af8:    da00        ..      BGE      0x6afc ; _fadd1 + 60
        0x00006afa:    bd70        p.      POP      {r4-r6,pc}
        0x00006afc:    0dc0        ..      LSRS     r0,r0,#23
        0x00006afe:    05c0        ..      LSLS     r0,r0,#23
        0x00006b00:    bd70        p.      POP      {r4-r6,pc}
        0x00006b02:    4069        i@      EORS     r1,r1,r5
        0x00006b04:    f000f8dc    ....    BL       _fsub1 ; 0x6cc0
        0x00006b08:    2001        .       MOVS     r0,#1
        0x00006b0a:    4305        .C      ORRS     r5,r5,r0
        0x00006b0c:    41c5        .A      RORS     r5,r5,r0
        0x00006b0e:    1c52        R.      ADDS     r2,r2,#1
        0x00006b10:    1c76        v.      ADDS     r6,r6,#1
        0x00006b12:    e7e8        ..      B        0x6ae6 ; _fadd1 + 38
        0x00006b14:    0864        d.      LSRS     r4,r4,#1
        0x00006b16:    409c        .@      LSLS     r4,r4,r3
        0x00006b18:    01c9        ..      LSLS     r1,r1,#7
        0x00006b1a:    4061        a@      EORS     r1,r1,r4
        0x00006b1c:    0089        ..      LSLS     r1,r1,#2
        0x00006b1e:    d1e7        ..      BNE      0x6af0 ; _fadd1 + 48
        0x00006b20:    2401        .$      MOVS     r4,#1
        0x00006b22:    43a0        .C      BICS     r0,r0,r4
        0x00006b24:    e7e4        ..      B        0x6af0 ; _fadd1 + 48
        0x00006b26:    0e1b        ..      LSRS     r3,r3,#24
        0x00006b28:    0244        D.      LSLS     r4,r0,#9
        0x00006b2a:    d000        ..      BEQ      0x6b2e ; _fadd1 + 110
        0x00006b2c:    4803        .H      LDR      r0,[pc,#12] ; [0x6b3c] = 0x7fc00000
        0x00006b2e:    bd70        p.      POP      {r4-r6,pc}
        0x00006b30:    2a00        .*      CMP      r2,#0
        0x00006b32:    d1fc        ..      BNE      0x6b2e ; _fadd1 + 110
        0x00006b34:    0fc0        ..      LSRS     r0,r0,#31
        0x00006b36:    07c0        ..      LSLS     r0,r0,#31
        0x00006b38:    bd70        p.      POP      {r4-r6,pc}
        0x00006b3a:    bf00        ..      NOP      
    $d
        0x00006b3c:    7fc00000    ....    DCD    2143289344
    $t
    x$fpl$fleqf
    __aeabi_cfcmple
    _fcmple
        0x00006b40:    2301        .#      MOVS     r3,#1
        0x00006b42:    0002        ..      MOVS     r2,r0
        0x00006b44:    05db        ..      LSLS     r3,r3,#23
        0x00006b46:    430a        .C      ORRS     r2,r2,r1
        0x00006b48:    d40d        ..      BMI      0x6b66 ; __aeabi_cfcmple + 38
        0x00006b4a:    42da        .B      CMN      r2,r3
        0x00006b4c:    d403        ..      BMI      0x6b56 ; __aeabi_cfcmple + 22
        0x00006b4e:    429a        .B      CMP      r2,r3
        0x00006b50:    d407        ..      BMI      0x6b62 ; __aeabi_cfcmple + 34
        0x00006b52:    4288        .B      CMP      r0,r1
        0x00006b54:    4770        pG      BX       lr
        0x00006b56:    42d8        .B      CMN      r0,r3
        0x00006b58:    d414        ..      BMI      0x6b84 ; __aeabi_cfcmple + 68
        0x00006b5a:    42d9        .B      CMN      r1,r3
        0x00006b5c:    d412        ..      BMI      0x6b84 ; __aeabi_cfcmple + 68
        0x00006b5e:    4288        .B      CMP      r0,r1
        0x00006b60:    4770        pG      BX       lr
        0x00006b62:    4280        .B      CMP      r0,r0
        0x00006b64:    4770        pG      BX       lr
        0x00006b66:    42da        .B      CMN      r2,r3
        0x00006b68:    d503        ..      BPL      0x6b72 ; __aeabi_cfcmple + 50
        0x00006b6a:    429a        .B      CMP      r2,r3
        0x00006b6c:    d5f9        ..      BPL      0x6b62 ; __aeabi_cfcmple + 34
        0x00006b6e:    4281        .B      CMP      r1,r0
        0x00006b70:    4770        pG      BX       lr
        0x00006b72:    005b        [.      LSLS     r3,r3,#1
        0x00006b74:    0042        B.      LSLS     r2,r0,#1
        0x00006b76:    42da        .B      CMN      r2,r3
        0x00006b78:    d204        ..      BCS      0x6b84 ; __aeabi_cfcmple + 68
        0x00006b7a:    004a        J.      LSLS     r2,r1,#1
        0x00006b7c:    42da        .B      CMN      r2,r3
        0x00006b7e:    d201        ..      BCS      0x6b84 ; __aeabi_cfcmple + 68
        0x00006b80:    4281        .B      CMP      r1,r0
        0x00006b82:    4770        pG      BX       lr
        0x00006b84:    b510        ..      PUSH     {r4,lr}
        0x00006b86:    4a02        .J      LDR      r2,[pc,#8] ; [0x6b90] = 0x4160009
        0x00006b88:    f7fafe4c    ..L.    BL       __fpl_fcmp_InfNaN ; 0x1824
        0x00006b8c:    bd10        ..      POP      {r4,pc}
        0x00006b8e:    bf00        ..      NOP      
    $d
        0x00006b90:    04160009    ....    DCD    68550665
    $t
    x$fpl$fmul
    __aeabi_fmul
    _fmul
        0x00006b94:    b570        p.      PUSH     {r4-r6,lr}
        0x00006b96:    0042        B.      LSLS     r2,r0,#1
        0x00006b98:    4164        dA      ADCS     r4,r4,r4
        0x00006b9a:    004b        K.      LSLS     r3,r1,#1
        0x00006b9c:    415c        \A      ADCS     r4,r4,r3
        0x00006b9e:    0e12        ..      LSRS     r2,r2,#24
        0x00006ba0:    d039        9.      BEQ      0x6c16 ; __aeabi_fmul + 130
        0x00006ba2:    0e1b        ..      LSRS     r3,r3,#24
        0x00006ba4:    d038        8.      BEQ      0x6c18 ; __aeabi_fmul + 132
        0x00006ba6:    2aff        .*      CMP      r2,#0xff
        0x00006ba8:    d03c        <.      BEQ      0x6c24 ; __aeabi_fmul + 144
        0x00006baa:    2bff        .+      CMP      r3,#0xff
        0x00006bac:    d03a        :.      BEQ      0x6c24 ; __aeabi_fmul + 144
        0x00006bae:    0240        @.      LSLS     r0,r0,#9
        0x00006bb0:    0249        I.      LSLS     r1,r1,#9
        0x00006bb2:    0a40        @.      LSRS     r0,r0,#9
        0x00006bb4:    0a49        I.      LSRS     r1,r1,#9
        0x00006bb6:    0006        ..      MOVS     r6,r0
        0x00006bb8:    1845        E.      ADDS     r5,r0,r1
        0x00006bba:    434e        NC      MULS     r6,r1,r6
        0x00006bbc:    0a00        ..      LSRS     r0,r0,#8
        0x00006bbe:    0a09        ..      LSRS     r1,r1,#8
        0x00006bc0:    18d2        ..      ADDS     r2,r2,r3
        0x00006bc2:    4348        HC      MULS     r0,r1,r0
        0x00006bc4:    01ed        ..      LSLS     r5,r5,#7
        0x00006bc6:    3a7f        .:      SUBS     r2,r2,#0x7f
        0x00006bc8:    0401        ..      LSLS     r1,r0,#16
        0x00006bca:    1a73        s.      SUBS     r3,r6,r1
        0x00006bcc:    1940        @.      ADDS     r0,r0,r5
        0x00006bce:    0c19        ..      LSRS     r1,r3,#16
        0x00006bd0:    1843        C.      ADDS     r3,r0,r1
        0x00006bd2:    0f99        ..      LSRS     r1,r3,#30
        0x00006bd4:    d004        ..      BEQ      0x6be0 ; __aeabi_fmul + 76
        0x00006bd6:    2101        .!      MOVS     r1,#1
        0x00006bd8:    085b        [.      LSRS     r3,r3,#1
        0x00006bda:    0749        I.      LSLS     r1,r1,#29
        0x00006bdc:    1a5b        [.      SUBS     r3,r3,r1
        0x00006bde:    1c52        R.      ADDS     r2,r2,#1
        0x00006be0:    09d8        ..      LSRS     r0,r3,#7
        0x00006be2:    d304        ..      BCC      0x6bee ; __aeabi_fmul + 90
        0x00006be4:    1c40        @.      ADDS     r0,r0,#1
        0x00006be6:    03f5        ..      LSLS     r5,r6,#15
        0x00006be8:    d101        ..      BNE      0x6bee ; __aeabi_fmul + 90
        0x00006bea:    069d        ..      LSLS     r5,r3,#26
        0x00006bec:    d007        ..      BEQ      0x6bfe ; __aeabi_fmul + 106
        0x00006bee:    2aff        .*      CMP      r2,#0xff
        0x00006bf0:    d208        ..      BCS      0x6c04 ; __aeabi_fmul + 112
        0x00006bf2:    05d5        ..      LSLS     r5,r2,#23
        0x00006bf4:    d006        ..      BEQ      0x6c04 ; __aeabi_fmul + 112
        0x00006bf6:    07e4        ..      LSLS     r4,r4,#31
        0x00006bf8:    4320         C      ORRS     r0,r0,r4
        0x00006bfa:    1940        @.      ADDS     r0,r0,r5
        0x00006bfc:    bd70        p.      POP      {r4-r6,pc}
        0x00006bfe:    2501        .%      MOVS     r5,#1
        0x00006c00:    43a8        .C      BICS     r0,r0,r5
        0x00006c02:    e7f4        ..      B        0x6bee ; __aeabi_fmul + 90
        0x00006c04:    2a00        .*      CMP      r2,#0
        0x00006c06:    dc01        ..      BGT      0x6c0c ; __aeabi_fmul + 120
        0x00006c08:    07e0        ..      LSLS     r0,r4,#31
        0x00006c0a:    bd70        p.      POP      {r4-r6,pc}
        0x00006c0c:    0224        $.      LSLS     r4,r4,#8
        0x00006c0e:    20ff        .       MOVS     r0,#0xff
        0x00006c10:    4320         C      ORRS     r0,r0,r4
        0x00006c12:    05c0        ..      LSLS     r0,r0,#23
        0x00006c14:    bd70        p.      POP      {r4-r6,pc}
        0x00006c16:    0e1b        ..      LSRS     r3,r3,#24
        0x00006c18:    2aff        .*      CMP      r2,#0xff
        0x00006c1a:    d003        ..      BEQ      0x6c24 ; __aeabi_fmul + 144
        0x00006c1c:    2bff        .+      CMP      r3,#0xff
        0x00006c1e:    d001        ..      BEQ      0x6c24 ; __aeabi_fmul + 144
        0x00006c20:    07e0        ..      LSLS     r0,r4,#31
        0x00006c22:    bd70        p.      POP      {r4-r6,pc}
        0x00006c24:    26ff        .&      MOVS     r6,#0xff
        0x00006c26:    0045        E.      LSLS     r5,r0,#1
        0x00006c28:    0636        6.      LSLS     r6,r6,#24
        0x00006c2a:    42b5        .B      CMP      r5,r6
        0x00006c2c:    d806        ..      BHI      0x6c3c ; __aeabi_fmul + 168
        0x00006c2e:    004d        M.      LSLS     r5,r1,#1
        0x00006c30:    42b5        .B      CMP      r5,r6
        0x00006c32:    d803        ..      BHI      0x6c3c ; __aeabi_fmul + 168
        0x00006c34:    18d2        ..      ADDS     r2,r2,r3
        0x00006c36:    2aff        .*      CMP      r2,#0xff
        0x00006c38:    d000        ..      BEQ      0x6c3c ; __aeabi_fmul + 168
        0x00006c3a:    e7e7        ..      B        0x6c0c ; __aeabi_fmul + 120
        0x00006c3c:    4800        .H      LDR      r0,[pc,#0] ; [0x6c40] = 0x7fc00000
        0x00006c3e:    bd70        p.      POP      {r4-r6,pc}
    $d
        0x00006c40:    7fc00000    ....    DCD    2143289344
    $t
    x$fpl$frleqf
    __aeabi_cfrcmple
    _frcmple
        0x00006c44:    2301        .#      MOVS     r3,#1
        0x00006c46:    000a        ..      MOVS     r2,r1
        0x00006c48:    05db        ..      LSLS     r3,r3,#23
        0x00006c4a:    4302        .C      ORRS     r2,r2,r0
        0x00006c4c:    d40d        ..      BMI      0x6c6a ; __aeabi_cfrcmple + 38
        0x00006c4e:    42da        .B      CMN      r2,r3
        0x00006c50:    d403        ..      BMI      0x6c5a ; __aeabi_cfrcmple + 22
        0x00006c52:    429a        .B      CMP      r2,r3
        0x00006c54:    d407        ..      BMI      0x6c66 ; __aeabi_cfrcmple + 34
        0x00006c56:    4281        .B      CMP      r1,r0
        0x00006c58:    4770        pG      BX       lr
        0x00006c5a:    42d9        .B      CMN      r1,r3
        0x00006c5c:    d414        ..      BMI      0x6c88 ; __aeabi_cfrcmple + 68
        0x00006c5e:    42d8        .B      CMN      r0,r3
        0x00006c60:    d412        ..      BMI      0x6c88 ; __aeabi_cfrcmple + 68
        0x00006c62:    4281        .B      CMP      r1,r0
        0x00006c64:    4770        pG      BX       lr
        0x00006c66:    4289        .B      CMP      r1,r1
        0x00006c68:    4770        pG      BX       lr
        0x00006c6a:    42da        .B      CMN      r2,r3
        0x00006c6c:    d503        ..      BPL      0x6c76 ; __aeabi_cfrcmple + 50
        0x00006c6e:    429a        .B      CMP      r2,r3
        0x00006c70:    d5f9        ..      BPL      0x6c66 ; __aeabi_cfrcmple + 34
        0x00006c72:    4288        .B      CMP      r0,r1
        0x00006c74:    4770        pG      BX       lr
        0x00006c76:    005b        [.      LSLS     r3,r3,#1
        0x00006c78:    004a        J.      LSLS     r2,r1,#1
        0x00006c7a:    42da        .B      CMN      r2,r3
        0x00006c7c:    d204        ..      BCS      0x6c88 ; __aeabi_cfrcmple + 68
        0x00006c7e:    0042        B.      LSLS     r2,r0,#1
        0x00006c80:    42da        .B      CMN      r2,r3
        0x00006c82:    d201        ..      BCS      0x6c88 ; __aeabi_cfrcmple + 68
        0x00006c84:    4288        .B      CMP      r0,r1
        0x00006c86:    4770        pG      BX       lr
        0x00006c88:    4048        H@      EORS     r0,r0,r1
        0x00006c8a:    4041        A@      EORS     r1,r1,r0
        0x00006c8c:    b510        ..      PUSH     {r4,lr}
        0x00006c8e:    4a02        .J      LDR      r2,[pc,#8] ; [0x6c98] = 0x4160009
        0x00006c90:    4048        H@      EORS     r0,r0,r1
        0x00006c92:    f7fafdc7    ....    BL       __fpl_fcmp_InfNaN ; 0x1824
        0x00006c96:    bd10        ..      POP      {r4,pc}
    $d
        0x00006c98:    04160009    ....    DCD    68550665
    $t
    x$fpl$frsb
    __aeabi_frsub
    _frsb
        0x00006c9c:    b570        p.      PUSH     {r4-r6,lr}
        0x00006c9e:    2501        .%      MOVS     r5,#1
        0x00006ca0:    07ed        ..      LSLS     r5,r5,#31
        0x00006ca2:    4068        h@      EORS     r0,r0,r5
        0x00006ca4:    0004        ..      MOVS     r4,r0
        0x00006ca6:    404c        L@      EORS     r4,r4,r1
        0x00006ca8:    d502        ..      BPL      0x6cb0 ; __aeabi_frsub + 20
        0x00006caa:    4069        i@      EORS     r1,r1,r5
        0x00006cac:    f000f808    ....    BL       _fsub1 ; 0x6cc0
        0x00006cb0:    f7ffff06    ....    BL       _fadd1 ; 0x6ac0
    x$fpl$fsub
    __aeabi_fsub
    _fsub
        0x00006cb4:    b570        p.      PUSH     {r4-r6,lr}
        0x00006cb6:    2501        .%      MOVS     r5,#1
        0x00006cb8:    0004        ..      MOVS     r4,r0
        0x00006cba:    07ed        ..      LSLS     r5,r5,#31
        0x00006cbc:    404c        L@      EORS     r4,r4,r1
        0x00006cbe:    d422        ".      BMI      0x6d06 ; _fsub1 + 70
    _fsub1
        0x00006cc0:    1a44        D.      SUBS     r4,r0,r1
        0x00006cc2:    d202        ..      BCS      0x6cca ; _fsub1 + 10
        0x00006cc4:    406c        l@      EORS     r4,r4,r5
        0x00006cc6:    1b00        ..      SUBS     r0,r0,r4
        0x00006cc8:    1909        ..      ADDS     r1,r1,r4
        0x00006cca:    0dc6        ..      LSRS     r6,r0,#23
        0x00006ccc:    004b        K.      LSLS     r3,r1,#1
        0x00006cce:    b2f2        ..      UXTB     r2,r6
        0x00006cd0:    2aff        .*      CMP      r2,#0xff
        0x00006cd2:    d04b        K.      BEQ      0x6d6c ; _fsub1 + 172
        0x00006cd4:    0e1b        ..      LSRS     r3,r3,#24
        0x00006cd6:    d050        P.      BEQ      0x6d7a ; _fsub1 + 186
        0x00006cd8:    0200        ..      LSLS     r0,r0,#8
        0x00006cda:    020c        ..      LSLS     r4,r1,#8
        0x00006cdc:    1ad3        ..      SUBS     r3,r2,r3
        0x00006cde:    432c        ,C      ORRS     r4,r4,r5
        0x00006ce0:    40dc        .@      LSRS     r4,r4,r3
        0x00006ce2:    43a8        .C      BICS     r0,r0,r5
        0x00006ce4:    1b05        ..      SUBS     r5,r0,r4
        0x00006ce6:    d505        ..      BPL      0x6cf4 ; _fsub1 + 52
        0x00006ce8:    00ad        ..      LSLS     r5,r5,#2
        0x00006cea:    d319        ..      BCC      0x6d20 ; _fsub1 + 96
        0x00006cec:    086d        m.      LSRS     r5,r5,#1
        0x00006cee:    1e76        v.      SUBS     r6,r6,#1
        0x00006cf0:    1e52        R.      SUBS     r2,r2,#1
        0x00006cf2:    d037        7.      BEQ      0x6d64 ; _fsub1 + 164
        0x00006cf4:    05f6        ..      LSLS     r6,r6,#23
        0x00006cf6:    0a28        (.      LSRS     r0,r5,#8
        0x00006cf8:    d201        ..      BCS      0x6cfe ; _fsub1 + 62
        0x00006cfa:    1980        ..      ADDS     r0,r0,r6
        0x00006cfc:    bd70        p.      POP      {r4-r6,pc}
        0x00006cfe:    4170        pA      ADCS     r0,r0,r6
        0x00006d00:    066d        m.      LSLS     r5,r5,#25
        0x00006d02:    d003        ..      BEQ      0x6d0c ; _fsub1 + 76
        0x00006d04:    bd70        p.      POP      {r4-r6,pc}
        0x00006d06:    4069        i@      EORS     r1,r1,r5
        0x00006d08:    f7fffeda    ....    BL       _fadd1 ; 0x6ac0
        0x00006d0c:    409c        .@      LSLS     r4,r4,r3
        0x00006d0e:    0209        ..      LSLS     r1,r1,#8
        0x00006d10:    4061        a@      EORS     r1,r1,r4
        0x00006d12:    0049        I.      LSLS     r1,r1,#1
        0x00006d14:    d001        ..      BEQ      0x6d1a ; _fsub1 + 90
        0x00006d16:    1e40        @.      SUBS     r0,r0,#1
        0x00006d18:    bd70        p.      POP      {r4-r6,pc}
        0x00006d1a:    2401        .$      MOVS     r4,#1
        0x00006d1c:    43a0        .C      BICS     r0,r0,r4
        0x00006d1e:    bd70        p.      POP      {r4-r6,pc}
        0x00006d20:    086d        m.      LSRS     r5,r5,#1
        0x00006d22:    d01d        ..      BEQ      0x6d60 ; _fsub1 + 160
        0x00006d24:    2001        .       MOVS     r0,#1
        0x00006d26:    0c2b        +.      LSRS     r3,r5,#16
        0x00006d28:    d101        ..      BNE      0x6d2e ; _fsub1 + 110
        0x00006d2a:    042d        -.      LSLS     r5,r5,#16
        0x00006d2c:    3010        .0      ADDS     r0,r0,#0x10
        0x00006d2e:    0e2b        +.      LSRS     r3,r5,#24
        0x00006d30:    d101        ..      BNE      0x6d36 ; _fsub1 + 118
        0x00006d32:    022d        -.      LSLS     r5,r5,#8
        0x00006d34:    3008        .0      ADDS     r0,r0,#8
        0x00006d36:    0f2b        +.      LSRS     r3,r5,#28
        0x00006d38:    d101        ..      BNE      0x6d3e ; _fsub1 + 126
        0x00006d3a:    012d        -.      LSLS     r5,r5,#4
        0x00006d3c:    1d00        ..      ADDS     r0,r0,#4
        0x00006d3e:    0fab        ..      LSRS     r3,r5,#30
        0x00006d40:    d101        ..      BNE      0x6d46 ; _fsub1 + 134
        0x00006d42:    00ad        ..      LSLS     r5,r5,#2
        0x00006d44:    1c80        ..      ADDS     r0,r0,#2
        0x00006d46:    0feb        ..      LSRS     r3,r5,#31
        0x00006d48:    d101        ..      BNE      0x6d4e ; _fsub1 + 142
        0x00006d4a:    006d        m.      LSLS     r5,r5,#1
        0x00006d4c:    1c40        @.      ADDS     r0,r0,#1
        0x00006d4e:    006d        m.      LSLS     r5,r5,#1
        0x00006d50:    1a36        6.      SUBS     r6,r6,r0
        0x00006d52:    1a12        ..      SUBS     r2,r2,r0
        0x00006d54:    0a68        h.      LSRS     r0,r5,#9
        0x00006d56:    05f5        ..      LSLS     r5,r6,#23
        0x00006d58:    1940        @.      ADDS     r0,r0,r5
        0x00006d5a:    2a01        .*      CMP      r2,#1
        0x00006d5c:    db02        ..      BLT      0x6d64 ; _fsub1 + 164
        0x00006d5e:    bd70        p.      POP      {r4-r6,pc}
        0x00006d60:    2000        .       MOVS     r0,#0
        0x00006d62:    bd70        p.      POP      {r4-r6,pc}
        0x00006d64:    36c0        .6      ADDS     r6,r6,#0xc0
        0x00006d66:    0a30        0.      LSRS     r0,r6,#8
        0x00006d68:    07c0        ..      LSLS     r0,r0,#31
        0x00006d6a:    bd70        p.      POP      {r4-r6,pc}
        0x00006d6c:    0e1b        ..      LSRS     r3,r3,#24
        0x00006d6e:    0244        D.      LSLS     r4,r0,#9
        0x00006d70:    d101        ..      BNE      0x6d76 ; _fsub1 + 182
        0x00006d72:    2bff        .+      CMP      r3,#0xff
        0x00006d74:    d100        ..      BNE      0x6d78 ; _fsub1 + 184
        0x00006d76:    4802        .H      LDR      r0,[pc,#8] ; [0x6d80] = 0x7fc00000
        0x00006d78:    bd70        p.      POP      {r4-r6,pc}
        0x00006d7a:    2a00        .*      CMP      r2,#0
        0x00006d7c:    d0f0        ..      BEQ      0x6d60 ; _fsub1 + 160
        0x00006d7e:    bd70        p.      POP      {r4-r6,pc}
    $d
        0x00006d80:    7fc00000    ....    DCD    2143289344
    $d.realdata
    .constdata
    x$fpl$usenofp
    __I$use$fp
    platform_gpio_pins
        0x00006d84:    50004000    .@.P    DCD    1342193664
        0x00006d88:    00001000    ....    DCD    4096
        0x00006d8c:    0000000c    ....    DCD    12
        0x00006d90:    50004000    .@.P    DCD    1342193664
        0x00006d94:    00004000    .@..    DCD    16384
        0x00006d98:    0000000e    ....    DCD    14
        0x00006d9c:    50004040    @@.P    DCD    1342193728
        0x00006da0:    00000020     ...    DCD    32
        0x00006da4:    00000005    ....    DCD    5
        0x00006da8:    50004040    @@.P    DCD    1342193728
        0x00006dac:    00000040    @...    DCD    64
        0x00006db0:    00000006    ....    DCD    6
        0x00006db4:    50004040    @@.P    DCD    1342193728
        0x00006db8:    00000080    ....    DCD    128
        0x00006dbc:    00000007    ....    DCD    7
        0x00006dc0:    50004000    .@.P    DCD    1342193664
        0x00006dc4:    00000800    ....    DCD    2048
        0x00006dc8:    0000000b    ....    DCD    11
        0x00006dcc:    50004000    .@.P    DCD    1342193664
        0x00006dd0:    00002000    . ..    DCD    8192
        0x00006dd4:    0000000d    ....    DCD    13
        0x00006dd8:    50004000    .@.P    DCD    1342193664
        0x00006ddc:    00000008    ....    DCD    8
        0x00006de0:    00000003    ....    DCD    3
        0x00006de4:    50004000    .@.P    DCD    1342193664
        0x00006de8:    00000020     ...    DCD    32
        0x00006dec:    00000005    ....    DCD    5
        0x00006df0:    50004000    .@.P    DCD    1342193664
        0x00006df4:    00000040    @...    DCD    64
        0x00006df8:    00000006    ....    DCD    6
        0x00006dfc:    50004000    .@.P    DCD    1342193664
        0x00006e00:    00000080    ....    DCD    128
        0x00006e04:    00000007    ....    DCD    7
        0x00006e08:    50004000    .@.P    DCD    1342193664
        0x00006e0c:    00001000    ....    DCD    4096
        0x00006e10:    0000000c    ....    DCD    12
        0x00006e14:    50004000    .@.P    DCD    1342193664
        0x00006e18:    00002000    . ..    DCD    8192
        0x00006e1c:    0000000d    ....    DCD    13
        0x00006e20:    50004000    .@.P    DCD    1342193664
        0x00006e24:    00008000    ....    DCD    32768
        0x00006e28:    0000000f    ....    DCD    15
    platform_pwm_peripherals
        0x00006e2c:    00000000    ....    DCD    0
        0x00006e30:    03000000    ....    DCD    50331648
        0x00006e34:    01000000    ....    DCD    16777216
        0x00006e38:    00000001    ....    DCD    1
        0x00006e3c:    0c000000    ....    DCD    201326592
        0x00006e40:    04000000    ....    DCD    67108864
    .constdata
        0x00006e44:    01000100    ....    DCD    16777472
        0x00006e48:    01000100    ....    DCD    16777472
        0x00006e4c:    01000100    ....    DCD    16777472
    .constdata
    uc_hextab
        0x00006e50:    33323130    0123    DCD    858927408
        0x00006e54:    37363534    4567    DCD    926299444
        0x00006e58:    42413938    89AB    DCD    1111570744
        0x00006e5c:    46454443    CDEF    DCD    1178944579
        0x00006e60:    00583040    @0X.    DCD    5779520
    lc_hextab
        0x00006e64:    33323130    0123    DCD    858927408
        0x00006e68:    37363534    4567    DCD    926299444
        0x00006e6c:    62613938    89ab    DCD    1650538808
        0x00006e70:    66656463    cdef    DCD    1717920867
        0x00006e74:    00783040    @0x.    DCD    7876672
    .constdata
    ddiv_reciptbl
        0x00006e78:    7e7f8080    ...~    DCD    2122285184
        0x00006e7c:    7a7b7c7d    }|{z    DCD    2054913149
        0x00006e80:    76777879    yxwv    DCD    1987541113
        0x00006e84:    73747576    vuts    DCD    1937012086
        0x00006e88:    70717172    rqqp    DCD    1886482802
        0x00006e8c:    6d6e6e6f    onnm    DCD    1835953775
        0x00006e90:    6a6b6c6c    llkj    DCD    1785425004
        0x00006e94:    6868696a    jihh    DCD    1751673194
        0x00006e98:    65666667    gffe    DCD    1701209703
        0x00006e9c:    63636464    ddcc    DCD    1667458148
        0x00006ea0:    60616162    baa`    DCD    1616994658
        0x00006ea4:    5e5f5f60    `__^    DCD    1583308640
        0x00006ea8:    5c5d5d5e    ^]]\    DCD    1549622622
        0x00006eac:    5a5b5b5c    \[[Z    DCD    1515936604
        0x00006eb0:    5859595a    ZYYX    DCD    1482250586
        0x00006eb4:    56575758    XWWV    DCD    1448564568
        0x00006eb8:    55555556    VUUU    DCD    1431655766
        0x00006ebc:    53535454    TTSS    DCD    1397970004
        0x00006ec0:    51525252    RRRQ    DCD    1364349522
        0x00006ec4:    50505051    QPPP    DCD    1347440721
        0x00006ec8:    4e4f4f4f    OOON    DCD    1313820495
        0x00006ecc:    4d4d4d4e    NMMM    DCD    1296911694
        0x00006ed0:    4b4c4c4c    LLLK    DCD    1263291468
        0x00006ed4:    4a4a4b4b    KKJJ    DCD    1246382923
        0x00006ed8:    4949494a    JIII    DCD    1229539658
        0x00006edc:    47484848    HHHG    DCD    1195919432
        0x00006ee0:    46474747    GGGF    DCD    1179076423
        0x00006ee4:    45454646    FFEE    DCD    1162167878
        0x00006ee8:    44444445    EDDD    DCD    1145324613
        0x00006eec:    43434344    DCCC    DCD    1128481604
        0x00006ef0:    42424243    CBBB    DCD    1111638595
        0x00006ef4:    41414142    BAAA    DCD    1094795586
    .constdata
    fdiv_tab
        0x00006ef8:    84838281    ....    DCD    2223211137
        0x00006efc:    88878685    ....    DCD    2290583173
        0x00006f00:    8d8c8b89    ....    DCD    2374798217
        0x00006f04:    92918f8e    ....    DCD    2459013006
        0x00006f08:    97969593    ....    DCD    2543228307
        0x00006f0c:    9d9c9a99    ....    DCD    2644286105
        0x00006f10:    a3a2a09f    ....    DCD    2745344159
        0x00006f14:    aaa8a7a5    ....    DCD    2863179685
        0x00006f18:    b2b0aeac    ....    DCD    2997923500
        0x00006f1c:    b9b7b5b3    ....    DCD    3115824563
        0x00006f20:    c2c0bebc    ....    DCD    3267411644
        0x00006f24:    ccc9c7c5    ....    DCD    3435775941
        0x00006f28:    d7d4d1ce    ....    DCD    3621048782
        0x00006f2c:    e2dfdcd9    ....    DCD    3806321881
        0x00006f30:    f0ece9e6    ....    DCD    4042058214
        0x00006f34:    fefaf7f3    ....    DCD    4277860339
    .constdata
    atanhi
        0x00006f38:    0561bb4f    O.a.    DCD    90291023
        0x00006f3c:    3fddac67    g..?    DCD    1071492199
        0x00006f40:    54442d18    .-DT    DCD    1413754136
        0x00006f44:    3fe921fb    .!.?    DCD    1072243195
        0x00006f48:    d281f69b    ....    DCD    3531732635
        0x00006f4c:    3fef730b    .s.?    DCD    1072657163
        0x00006f50:    54442d18    .-DT    DCD    1413754136
        0x00006f54:    3ff921fb    .!.?    DCD    1073291771
    atanlo
        0x00006f58:    222f65e2    .e/"    DCD    573531618
        0x00006f5c:    3c7a2b7f    .+z<    DCD    1014639487
        0x00006f60:    33145c07    .\.3    DCD    856972295
        0x00006f64:    3c81a626    &..<    DCD    1015129638
        0x00006f68:    7af0cbbd    ...z    DCD    2062601149
        0x00006f6c:    3c700788    ..p<    DCD    1013974920
        0x00006f70:    33145c07    .\.3    DCD    856972295
        0x00006f74:    3c91a626    &..<    DCD    1016178214
    aTodd
        0x00006f78:    9998ebc4    ....    DCD    2576935876
        0x00006f7c:    bfc99999    ....    DCD    3217660313
        0x00006f80:    fe231671    q.#.    DCD    4263712369
        0x00006f84:    bfbc71c6    .q..    DCD    3216798150
        0x00006f88:    af749a6d    m.t.    DCD    2943654509
        0x00006f8c:    bfb3b0f2    ....    DCD    3216224498
        0x00006f90:    52defd9a    ...R    DCD    1390345626
        0x00006f94:    bfadde2d    -...    DCD    3215842861
        0x00006f98:    2c6a6c2f    /lj,    DCD    745172015
        0x00006f9c:    bfa2b444    D...    DCD    3215111236
    aTeven
        0x00006fa0:    5555550d    .UUU    DCD    1431655693
        0x00006fa4:    3fd55555    UU.?    DCD    1070945621
        0x00006fa8:    920083ff    ....    DCD    2449507327
        0x00006fac:    3fc24924    $I.?    DCD    1069697316
        0x00006fb0:    c54c206e    n L.    DCD    3310100590
        0x00006fb4:    3fb745cd    .E.?    DCD    1068975565
        0x00006fb8:    a0d03d51    Q=..    DCD    2698001745
        0x00006fbc:    3fb10d66    f..?    DCD    1068567910
        0x00006fc0:    24760deb    ..v$    DCD    611716587
        0x00006fc4:    3fa97b4b    K{.?    DCD    1068071755
        0x00006fc8:    e322da11    ..".    DCD    3810712081
        0x00006fcc:    3f90ad3a    :..?    DCD    1066446138
    .constdata
    C
        0x00006fd0:    5555554c    LUUU    DCD    1431655756
        0x00006fd4:    3fa55555    UU.?    DCD    1067799893
        0x00006fd8:    16c15177    wQ..    DCD    381768055
        0x00006fdc:    bf56c16c    l.V.    DCD    3210133868
        0x00006fe0:    19cb1590    ....    DCD    432739728
        0x00006fe4:    3efa01a0    ...>    DCD    1056571808
        0x00006fe8:    809c52ad    .R..    DCD    2157728429
        0x00006fec:    be927e4f    O~..    DCD    3197271631
        0x00006ff0:    bdb4b1c4    ....    DCD    3182735812
        0x00006ff4:    3e21ee9e    ..!>    DCD    1042411166
        0x00006ff8:    be8838d4    .8..    DCD    3196598484
        0x00006ffc:    bda8fae9    ....    DCD    3181968105
    .constdata
    __mathlib_zero
        0x00007000:    00000000    ....    DCD    0
        0x00007004:    00000000    ....    DCD    0
    .constdata
    pio2s
        0x00007008:    54400000    ..@T    DCD    1413480448
        0x0000700c:    3ff921fb    .!.?    DCD    1073291771
        0x00007010:    1a626331    1cb.    DCD    442655537
        0x00007014:    3dd0b461    a..=    DCD    1037087841
        0x00007018:    1a600000    ..`.    DCD    442499072
        0x0000701c:    3dd0b461    a..=    DCD    1037087841
        0x00007020:    2e037073    sp..    DCD    771977331
        0x00007024:    3ba3198a    ...;    DCD    1000544650
        0x00007028:    2e000000    ....    DCD    771751936
        0x0000702c:    3ba3198a    ...;    DCD    1000544650
        0x00007030:    252049c1    .I %    DCD    622873025
        0x00007034:    397b839a    ..{9    DCD    964395930
    twooverpi
        0x00007038:    00000000    ....    DCD    0
        0x0000703c:    00000000    ....    DCD    0
        0x00007040:    a2f9836e    n...    DCD    2734261102
        0x00007044:    4e441529    ).DN    DCD    1313084713
        0x00007048:    fc2757d1    .W'.    DCD    4230436817
        0x0000704c:    f534ddc0    ..4.    DCD    4113882560
        0x00007050:    db629599    ..b.    DCD    3680671129
        0x00007054:    3c439041    A.C<    DCD    1011060801
        0x00007058:    fe5163ab    .cQ.    DCD    4266746795
        0x0000705c:    debbc561    a...    DCD    3736847713
        0x00007060:    b7246e3a    :n$.    DCD    3072618042
        0x00007064:    424dd2e0    ..MB    DCD    1112396512
        0x00007068:    06492eea    ..I.    DCD    105459434
        0x0000706c:    09d1921c    ....    DCD    164729372
        0x00007070:    fe1deb1c    ....    DCD    4263373596
        0x00007074:    b129a73e    >.).    DCD    2972297022
        0x00007078:    e88235f5    .5..    DCD    3900847605
        0x0000707c:    2ebb4484    .D..    DCD    784024708
        0x00007080:    e99c7026    &p..    DCD    3919343654
        0x00007084:    b45f7e41    A~_.    DCD    3026157121
        0x00007088:    3991d639    9..9    DCD    965858873
        0x0000708c:    835339f4    .9S.    DCD    2203269620
        0x00007090:    9c845f8b    ._..    DCD    2625920907
        0x00007094:    bdf9283b    ;(..    DCD    3187222587
        0x00007098:    1ff897ff    ....    DCD    536385535
        0x0000709c:    de05980f    ....    DCD    3724908559
        0x000070a0:    ef2f118b    ../.    DCD    4012839307
        0x000070a4:    5a0a6d1f    .m.Z    DCD    1510632735
        0x000070a8:    6d367ecf    .~6m    DCD    1832287951
        0x000070ac:    27cb09b7    ...'    DCD    667617719
        0x000070b0:    4f463f66    f?FO    DCD    1330003814
        0x000070b4:    9e5fea2d    -._.    DCD    2657085997
        0x000070b8:    7527bac7    ..'u    DCD    1965537991
        0x000070bc:    ebe5f17b    {...    DCD    3957715323
        0x000070c0:    3d0739f7    .9.=    DCD    1023883767
        0x000070c4:    8a5292ea    ..R.    DCD    2320667370
        0x000070c8:    6bfb5fb1    ._.k    DCD    1811636145
        0x000070cc:    1f8d5d08    .]..    DCD    529358088
    .constdata
    S
        0x000070d0:    1110f8a6    ....    DCD    286324902
        0x000070d4:    3f811111    ...?    DCD    1065423121
        0x000070d8:    19c161d5    .a..    DCD    432103893
        0x000070dc:    bf2a01a0    ..*.    DCD    3207201184
        0x000070e0:    57b1fe7d    }..W    DCD    1471282813
        0x000070e4:    3ec71de3    ...>    DCD    1053236707
        0x000070e8:    8a2b9ceb    ..+.    DCD    2318114027
        0x000070ec:    be5ae5e6    ..Z.    DCD    3193628134
        0x000070f0:    5acfd57c    |..Z    DCD    1523570044
        0x000070f4:    3de5d93a    :..=    DCD    1038473530
    Region$$Table$$Base
        0x000070f8:    00007118    .q..    DCD    28952
        0x000070fc:    20000000    ...     DCD    536870912
        0x00007100:    00000784    ....    DCD    1924
        0x00007104:    00000104    ....    DCD    260
        0x00007108:    0000789c    .x..    DCD    30876
        0x0000710c:    20000784    ...     DCD    536872836
        0x00007110:    0000191c    ....    DCD    6428
        0x00007114:    00000120     ...    DCD    288
    Region$$Table$$Limit

** Section #2 'ER_RW' (SHT_PROGBITS) [SHF_ALLOC + SHF_WRITE]
    Size   : 1924 bytes (alignment 4)
    Address: 0x20000000


** Section #3 'ER_ZI' (SHT_NOBITS) [SHF_ALLOC + SHF_WRITE]
    Size   : 6428 bytes (alignment 8)
    Address: 0x20000784


** Section #4 '.debug_abbrev' (SHT_PROGBITS)
    Size   : 1476 bytes


** Section #5 '.debug_frame' (SHT_PROGBITS)
    Size   : 6908 bytes


** Section #6 '.debug_info' (SHT_PROGBITS)
    Size   : 59164 bytes


** Section #7 '.debug_line' (SHT_PROGBITS)
    Size   : 16524 bytes


** Section #8 '.debug_loc' (SHT_PROGBITS)
    Size   : 4648 bytes


** Section #9 '.debug_macinfo' (SHT_PROGBITS)
    Size   : 461832 bytes


** Section #10 '.debug_pubnames' (SHT_PROGBITS)
    Size   : 4398 bytes


** Section #11 '.symtab' (SHT_SYMTAB)
    Size   : 21488 bytes (alignment 4)
    String table #12 '.strtab'
    Last local symbol no. 897


** Section #12 '.strtab' (SHT_STRTAB)
    Size   : 15008 bytes


** Section #13 '.note' (SHT_NOTE)
    Size   : 28 bytes (alignment 4)


** Section #14 '.comment' (SHT_PROGBITS)
    Size   : 38664 bytes


** Section #15 '.shstrtab' (SHT_STRTAB)
    Size   : 156 bytes


